 YSF

 Timestamp is 61f4b474 (Sat Jan 29 00:28:52 2022)

 Preferred load address is 10000000

 Start         Length     Name                   Class
 0001:00000000 00075265H .textbss                DATA
 0002:00000000 00015150H .text$di                CODE
 0002:00015150 000db100H .text$mn                CODE
 0002:000f0250 0000d370H .text$x                 CODE
 0002:000fd5c0 00002077H .text$yd                CODE
 0003:00000000 00000104H .CRT$XCA                DATA
 0003:00000104 00000474H .CRT$XCU                DATA
 0003:00000578 00000104H .CRT$XCZ                DATA
 0003:0000067c 00000104H .CRT$XIA                DATA
 0003:00000780 00000104H .CRT$XIC                DATA
 0003:00000884 00000104H .CRT$XIZ                DATA
 0003:00000988 00000004H .CRT$XLA                DATA
 0003:0000098c 00000004H .CRT$XLZ                DATA
 0003:00000990 00000104H .CRT$XPA                DATA
 0003:00000a94 00000104H .CRT$XPZ                DATA
 0003:00000b98 00000104H .CRT$XTA                DATA
 0003:00000c9c 00000104H .CRT$XTZ                DATA
 0003:00000da0 0000f5a0H .rdata                  DATA
 0003:00010340 00000104H .rdata$CastGuardVftablesA DATA
 0003:00010444 00000104H .rdata$CastGuardVftablesC DATA
 0003:00010548 0000011cH .rdata$T                DATA
 0003:00010664 00001b94H .rdata$r                DATA
 0003:000121f8 00000178H .rdata$zzzdbg           DATA
 0003:00012370 00000104H .rtc$IAA                DATA
 0003:00012474 000001e4H .rtc$IMZ                DATA
 0003:00012658 00000104H .rtc$IZZ                DATA
 0003:0001275c 00000104H .rtc$TAA                DATA
 0003:00012860 000001e4H .rtc$TMZ                DATA
 0003:00012a44 00000104H .rtc$TZZ                DATA
 0003:00012b48 00009028H .xdata$x                DATA
 0003:0001bb70 0000030aH .edata                  DATA
 0004:00000000 0005ef20H .data                   DATA
 0004:0005ef20 000001f0H .data$r                 DATA
 0004:0005f110 000014d0H .data$rs                DATA
 0004:000605e0 0000114cH .bss                    DATA
 0005:00000000 000004ccH .idata$5                DATA
 0005:000004cc 0000008cH .idata$2                DATA
 0005:00000558 00000014H .idata$3                DATA
 0005:0000056c 000004ccH .idata$4                DATA
 0005:00000a38 00001a4aH .idata$6                DATA
 0006:00000000 00000c2cH .msvcjmc                DATA
 0007:00000000 00000104H .tls                    DATA
 0007:00000104 00000104H .tls$                   DATA
 0007:00000208 00000101H .tls$ZZZ                DATA
 0008:00000000 00000109H .00cfg                  DATA
 0009:00000000 000001c0H .rsrc$01                DATA
 0009:000001c0 0000059cH .rsrc$02                DATA

  Address         Publics by Value              Rva+Base       Lib:Object

 0000:00000000       ___arm64x_native_entrypoint 00000000     <absolute>
 0000:00000000       ___arm64x_redirection_metadata 00000000     <absolute>
 0000:00000000       ___guard_iat_count         00000000     <absolute>
 0000:00000000       ___hybrid_code_map         00000000     <absolute>
 0000:00000000       ___guard_longjmp_count     00000000     <absolute>
 0000:00000000       ___AbsoluteZero            00000000     <absolute>
 0000:00000000       ___arm64x_redirection_metadata_count 00000000     <absolute>
 0000:00000000       ___guard_longjmp_table     00000000     <absolute>
 0000:00000000       ___guard_eh_cont_table     00000000     <absolute>
 0000:00000000       ___guard_fids_table        00000000     <absolute>
 0000:00000000       ___guard_iat_table         00000000     <absolute>
 0000:00000000       ___hybrid_code_map_count   00000000     <absolute>
 0000:00000000       ___x64_code_ranges_to_entry_points 00000000     <absolute>
 0000:00000000       ___guard_check_icall_a64n_fptr 00000000     <absolute>
 0000:00000000       ___safe_se_handler_table   00000000     <absolute>
 0000:00000000       ___dynamic_value_reloc_table 00000000     <absolute>
 0000:00000000       ___arm64x_extra_rfe_table_size 00000000     <absolute>
 0000:00000000       ___arm64x_extra_rfe_table  00000000     <absolute>
 0000:00000000       ___enclave_config          00000000     <absolute>
 0000:00000000       ___hybrid_auxiliary_iat    00000000     <absolute>
 0000:00000000       ___safe_se_handler_count   00000000     <absolute>
 0000:00000000       ___volatile_metadata       00000000     <absolute>
 0000:00000000       ___guard_fids_count        00000000     <absolute>
 0000:00000000       ___guard_eh_cont_count     00000000     <absolute>
 0000:00000000       ___x64_code_ranges_to_entry_points_count 00000000     <absolute>
 0000:00000000       ___hybrid_auxiliary_iat_copy 00000000     <absolute>
 0000:0000002c       __tls_array                0000002c     <absolute>
 0000:00000100       ___guard_flags             00000100     <absolute>
 0000:00000000       ___ImageBase               10000000     <linker-defined>
 0001:00000000       __enc$textbss$begin        10001000     <linker-defined>
 0001:00075265       __enc$textbss$end          10076265     <linker-defined>
 0002:00015150       ??$Read@_N@BitStream@RakNet@@QAE_NAA_N@Z 1008c150 f i BitStream.obj
 0002:00015230       ??$Write@_N@BitStream@RakNet@@QAEX_N@Z 1008c230 f i BitStream.obj
 0002:000152a0       ??0BitStream@RakNet@@QAE@H@Z 1008c2a0 f   BitStream.obj
 0002:000153b0       ??0BitStream@RakNet@@QAE@PAEI_N@Z 1008c3b0 f   BitStream.obj
 0002:00015520       ??0BitStream@RakNet@@QAE@XZ 1008c520 f   BitStream.obj
 0002:000155b0       ??1BitStream@RakNet@@QAE@XZ 1008c5b0 f   BitStream.obj
 0002:00015640       ?AddBitsAndReallocate@BitStream@RakNet@@QAEXH@Z 1008c640 f   BitStream.obj
 0002:00015830       ?AlignReadToByteBoundary@BitStream@RakNet@@QAEXXZ 1008c830 f   BitStream.obj
 0002:000158c0       ?AlignWriteToByteBoundary@BitStream@RakNet@@QAEXXZ 1008c8c0 f   BitStream.obj
 0002:00015940       ?AssertCopyData@BitStream@RakNet@@QAEXXZ 1008c940 f   BitStream.obj
 0002:00015a60       ?AssertStreamEmpty@BitStream@RakNet@@QAEXXZ 1008ca60 f   BitStream.obj
 0002:00015af0       ?CopyData@BitStream@RakNet@@QBEHPAPAE@Z 1008caf0 f   BitStream.obj
 0002:00015be0       ?DoEndianSwap@BitStream@RakNet@@ABE_NXZ 1008cbe0 f   BitStream.obj
 0002:00015c30       ?GetNumberOfBitsUsed@BitStream@RakNet@@QBEHXZ 1008cc30 f i BitStream.obj
 0002:00015c90       ?GetWriteOffset@BitStream@RakNet@@QBEHXZ 1008cc90 f i BitStream.obj
 0002:00015cf0       ?IgnoreBits@BitStream@RakNet@@QAEXH@Z 1008ccf0 f   BitStream.obj
 0002:00015d60       ?PrintBits@BitStream@RakNet@@QBEXXZ 1008cd60 f   BitStream.obj
 0002:00015ef0       ?Read@BitStream@RakNet@@QAE_NPADH@Z 1008cef0 f   BitStream.obj
 0002:00015fd0       ?ReadAlignedBytes@BitStream@RakNet@@QAE_NPAEH@Z 1008cfd0 f   BitStream.obj
 0002:000160d0       ?ReadBit@BitStream@RakNet@@QAE_NXZ 1008d0d0 f   BitStream.obj
 0002:00016190       ?ReadBits@BitStream@RakNet@@QAE_NPAEH_N@Z 1008d190 f   BitStream.obj
 0002:00016390       ?ReadCompressed@BitStream@RakNet@@AAE_NPAEH_N@Z 1008d390 f   BitStream.obj
 0002:00016590       ?Reset@BitStream@RakNet@@QAEXXZ 1008d590 f   BitStream.obj
 0002:00016600       ?ResetReadPointer@BitStream@RakNet@@QAEXXZ 1008d600 f   BitStream.obj
 0002:00016660       ?ResetWritePointer@BitStream@RakNet@@QAEXXZ 1008d660 f   BitStream.obj
 0002:000166c0       ?ReverseBytes@BitStream@RakNet@@AAEXPAE0H@Z 1008d6c0 f   BitStream.obj
 0002:00016750       ?SetData@BitStream@RakNet@@QAEXPAE@Z 1008d750 f   BitStream.obj
 0002:000167c0       ?SetNumberOfBitsAllocated@BitStream@RakNet@@QAEXI@Z 1008d7c0 f   BitStream.obj
 0002:00016860       ?SetWriteOffset@BitStream@RakNet@@QAEXH@Z 1008d860 f   BitStream.obj
 0002:000168c0       ?Write0@BitStream@RakNet@@QAEXXZ 1008d8c0 f   BitStream.obj
 0002:00016950       ?Write1@BitStream@RakNet@@QAEXXZ 1008d950 f   BitStream.obj
 0002:00016a20       ?Write@BitStream@RakNet@@QAEXPAV12@@Z 1008da20 f   BitStream.obj
 0002:00016a90       ?Write@BitStream@RakNet@@QAEXPAV12@H@Z 1008da90 f   BitStream.obj
 0002:00016cb0       ?Write@BitStream@RakNet@@QAEXPBDH@Z 1008dcb0 f   BitStream.obj
 0002:00016d90       ?WriteAlignedBytes@BitStream@RakNet@@QAEXPBEH@Z 1008dd90 f   BitStream.obj
 0002:00016e40       ?WriteBits@BitStream@RakNet@@QAEXPBEH_N@Z 1008de40 f   BitStream.obj
 0002:00016ff0       ?WriteCompressed@BitStream@RakNet@@AAEXPBEH_N@Z 1008dff0 f   BitStream.obj
 0002:00017190       __JustMyCode_Default       1008e190 f i BitStream.obj
 0002:000171a0       ___local_stdio_printf_options 1008e1a0 f i BitStream.obj
 0002:000171f0       __vfprintf_l               1008e1f0 f i BitStream.obj
 0002:00017270       _printf                    1008e270 f i BitStream.obj
 0002:00017300       _amx_Align16               1008e300 f   amxplugin.obj
 0002:00017380       _amx_Align32               1008e380 f   amxplugin.obj
 0002:00017400       _amx_Allot                 1008e400 f   amxplugin.obj
 0002:00017490       _amx_Callback              1008e490 f   amxplugin.obj
 0002:00017520       _amx_Cleanup               1008e520 f   amxplugin.obj
 0002:000175a0       _amx_Clone                 1008e5a0 f   amxplugin.obj
 0002:00017630       _amx_Exec                  1008e630 f   amxplugin.obj
 0002:000176c0       _amx_FindNative            1008e6c0 f   amxplugin.obj
 0002:00017750       _amx_FindPubVar            1008e750 f   amxplugin.obj
 0002:000177e0       _amx_FindPublic            1008e7e0 f   amxplugin.obj
 0002:00017870       _amx_FindTagId             1008e870 f   amxplugin.obj
 0002:00017900       _amx_Flags                 1008e900 f   amxplugin.obj
 0002:00017980       _amx_GetAddr               1008e980 f   amxplugin.obj
 0002:00017a10       _amx_GetNative             1008ea10 f   amxplugin.obj
 0002:00017aa0       _amx_GetPubVar             1008eaa0 f   amxplugin.obj
 0002:00017b30       _amx_GetPublic             1008eb30 f   amxplugin.obj
 0002:00017bc0       _amx_GetString             1008ebc0 f   amxplugin.obj
 0002:00017c50       _amx_GetTag                1008ec50 f   amxplugin.obj
 0002:00017ce0       _amx_GetUserData           1008ece0 f   amxplugin.obj
 0002:00017d70       _amx_Init                  1008ed70 f   amxplugin.obj
 0002:00017df0       _amx_InitJIT               1008edf0 f   amxplugin.obj
 0002:00017e80       _amx_MemInfo               1008ee80 f   amxplugin.obj
 0002:00017f10       _amx_NameLength            1008ef10 f   amxplugin.obj
 0002:00017f90       _amx_NativeInfo            1008ef90 f   amxplugin.obj
 0002:00018010       _amx_NumNatives            1008f010 f   amxplugin.obj
 0002:00018090       _amx_NumPubVars            1008f090 f   amxplugin.obj
 0002:00018110       _amx_NumPublics            1008f110 f   amxplugin.obj
 0002:00018190       _amx_NumTags               1008f190 f   amxplugin.obj
 0002:00018210       _amx_Push                  1008f210 f   amxplugin.obj
 0002:00018290       _amx_PushArray             1008f290 f   amxplugin.obj
 0002:00018320       _amx_PushString            1008f320 f   amxplugin.obj
 0002:000183c0       _amx_RaiseError            1008f3c0 f   amxplugin.obj
 0002:00018440       _amx_Register              1008f440 f   amxplugin.obj
 0002:000184d0       _amx_Release               1008f4d0 f   amxplugin.obj
 0002:00018550       _amx_SetCallback           1008f550 f   amxplugin.obj
 0002:000185d0       _amx_SetDebugHook          1008f5d0 f   amxplugin.obj
 0002:00018650       _amx_SetString             1008f650 f   amxplugin.obj
 0002:000186e0       _amx_SetUserData           1008f6e0 f   amxplugin.obj
 0002:00018770       _amx_StrLen                1008f770 f   amxplugin.obj
 0002:000187f0       _amx_UTF8Check             1008f7f0 f   amxplugin.obj
 0002:00018870       _amx_UTF8Get               1008f870 f   amxplugin.obj
 0002:00018900       _amx_UTF8Len               1008f900 f   amxplugin.obj
 0002:00018980       _amx_UTF8Put               1008f980 f   amxplugin.obj
 0002:00018d90       _subhook_free              1008fd90 f   subhook.obj
 0002:00018e40       _subhook_get_dst           1008fe40 f   subhook.obj
 0002:00018ef0       _subhook_get_src           1008fef0 f   subhook.obj
 0002:00018f50       _subhook_get_trampoline    1008ff50 f   subhook.obj
 0002:00018fb0       _subhook_install           1008ffb0 f   subhook.obj
 0002:00019060       _subhook_is_installed      10090060 f   subhook.obj
 0002:00019390       _subhook_new               10090390 f   subhook.obj
 0002:00019690       _subhook_read_dst          10090690 f   subhook.obj
 0002:00019710       _subhook_remove            10090710 f   subhook.obj
 0002:000197b0       _subhook_set_disasm_handler 100907b0 f   subhook.obj
 0002:00019800       _subhook_unprotect         10090800 f   subhook.obj
 0002:000198b0       ??0?$ADDR@$$A6AXPBDZZ@@QAE@K@Z 100908b0 f i CAddresses.obj
 0002:00019910       ??0?$ADDR@$$BY0A@UConsoleCommand_s@@@@QAE@$$T@Z 10090910 f i CAddresses.obj
 0002:00019970       ??0?$ADDR@$$BY0FC@E@@QAE@XZ 10090970 f i CAddresses.obj
 0002:000199d0       ??0?$ADDR@E@@QAE@XZ        100909d0 f i CAddresses.obj
 0002:00019a30       ??0?$ADDR@G@@QAE@$$T@Z     10090a30 f i CAddresses.obj
 0002:00019a90       ??0?$ADDR@M@@QAE@$$T@Z     10090a90 f i CAddresses.obj
 0002:00019af0       ??0?$ADDR@M@@QAE@XZ        10090af0 f i CAddresses.obj
 0002:00019b50       ??0?$ADDR@P6AHIGPADHI@Z@@QAE@$$T@Z 10090b50 f i CAddresses.obj
 0002:00019bb0       ??0?$ADDR@P6APADPAUtagAMX@@PAHHAAH@Z@@QAE@$$T@Z 10090bb0 f i CAddresses.obj
 0002:00019c10       ??0?$ADDR@P6AXPAD@Z@@QAE@$$T@Z 10090c10 f i CAddresses.obj
 0002:00019c70       ??0?$ADDR@P6AXPAURPCParameters@@@Z@@QAE@$$T@Z 10090c70 f i CAddresses.obj
 0002:00019cd0       ??0?$ADDR@P6A_NPAD@Z@@QAE@$$T@Z 10090cd0 f i CAddresses.obj
 0002:00019d30       ??0?$ADDR@P6EHPAUCGameMode@@H@Z@@QAE@$$T@Z 10090d30 f i CAddresses.obj
 0002:00019d90       ??0?$ADDR@P6EHPAUCGameMode@@HH@Z@@QAE@$$T@Z 10090d90 f i CAddresses.obj
 0002:00019df0       ??0?$ADDR@P6EHPAXPAD@Z@@QAE@$$T@Z 10090df0 f i CAddresses.obj
 0002:00019e50       ??0?$ADDR@P6EHPAXPAUPacket@@@Z@@QAE@$$T@Z 10090e50 f i CAddresses.obj
 0002:00019eb0       ??0?$ADDR@P6EKPAUCPlayerPool@@G@Z@@QAE@$$T@Z 10090eb0 f i CAddresses.obj
 0002:00019f10       ??0?$ADDR@P6EPADPAXPAD@Z@@QAE@$$T@Z 10090f10 f i CAddresses.obj
 0002:00019f70       ??0?$ADDR@P6EPAUConsoleVariable_s@@PAXPAD@Z@@QAE@$$T@Z 10090f70 f i CAddresses.obj
 0002:00019fd0       ??0?$ADDR@P6EXPAUCVehicle@@PAX@Z@@QAE@$$T@Z 10090fd0 f i CAddresses.obj
 0002:0001a030       ??0?$ADDR@P6EXPAX@Z@@QAE@$$T@Z 10091030 f i CAddresses.obj
 0002:0001a090       ??0?$ADDR@P6EXPAXE@Z@@QAE@$$T@Z 10091090 f i CAddresses.obj
 0002:0001a0f0       ??0?$ADDR@P6EXPAXG@Z@@QAE@$$T@Z 100910f0 f i CAddresses.obj
 0002:0001a150       ??0?$ADDR@P6EXPAXIPADPBUsockaddr_in@@H@Z@@QAE@$$T@Z 10091150 f i CAddresses.obj
 0002:0001a1b0       ??0?$ADDR@P6EXPAXM@Z@@QAE@$$T@Z 100911b0 f i CAddresses.obj
 0002:0001a210       ??0?$ADDR@P6EXPAXPAD1@Z@@QAE@$$T@Z 10091210 f i CAddresses.obj
 0002:0001a270       ??0?$ADDR@P6EXPAXPAD@Z@@QAE@$$T@Z 10091270 f i CAddresses.obj
 0002:0001a2d0       ??0?$ADDR@P6EXPAXPADH10@Z@@QAE@$$T@Z 100912d0 f i CAddresses.obj
 0002:0001a330       ??0?$ADDR@P6EXPAXPADH@Z@@QAE@$$T@Z 10091330 f i CAddresses.obj
 0002:0001a390       ??0?$ADDR@P6E_NPAXPAD@Z@@QAE@$$T@Z 10091390 f i CAddresses.obj
 0002:0001a3f0       ??0?$ADDR@P6E_NPAXPBD@Z@@QAE@$$T@Z 100913f0 f i CAddresses.obj
 0002:0001a450       ??0?$ADDR@PBD@@QAE@XZ      10091450 f i CAddresses.obj
 0002:0001a4b0       ??0?$ADDR@_N@@QAE@$$T@Z    100914b0 f i CAddresses.obj
 0002:0001a510       ??0CVector@@QAE@MMM@Z      10091510 f i CAddresses.obj
 0002:0001a5a0       ??0exception@std@@QAE@ABV01@@Z 100915a0 f i CAddresses.obj
 0002:0001a630       ??0exception@std@@QAE@QBD@Z 10091630 f i CAddresses.obj
 0002:0001a700       ??0logic_error@std@@QAE@ABV01@@Z 10091700 f i CAddresses.obj
 0002:0001a770       ??0logic_error@std@@QAE@PBD@Z 10091770 f i CAddresses.obj
 0002:0001a7e0       ??1exception@std@@UAE@XZ   100917e0 f i CAddresses.obj
 0002:0001a850       ??1logic_error@std@@UAE@XZ 10091850 f i CAddresses.obj
 0002:0001a8a0       ??4?$ADDR@$$BY0A@UConsoleCommand_s@@@@QAEAAV0@K@Z 100918a0 f i CAddresses.obj
 0002:0001a900       ??4?$ADDR@$$BY0FC@E@@QAEAAV0@K@Z 10091900 f i CAddresses.obj
 0002:0001a960       ??4?$ADDR@E@@QAEAAV0@K@Z   10091960 f i CAddresses.obj
 0002:0001a9c0       ??4?$ADDR@G@@QAEAAV0@K@Z   100919c0 f i CAddresses.obj
 0002:0001aa20       ??4?$ADDR@M@@QAEAAV0@K@Z   10091a20 f i CAddresses.obj
 0002:0001aa80       ??4?$ADDR@P6AHIGPADHI@Z@@QAEAAV0@K@Z 10091a80 f i CAddresses.obj
 0002:0001aae0       ??4?$ADDR@P6APADPAUtagAMX@@PAHHAAH@Z@@QAEAAV0@K@Z 10091ae0 f i CAddresses.obj
 0002:0001ab40       ??4?$ADDR@P6AXPAD@Z@@QAEAAV0@K@Z 10091b40 f i CAddresses.obj
 0002:0001aba0       ??4?$ADDR@P6AXPAURPCParameters@@@Z@@QAEAAV0@K@Z 10091ba0 f i CAddresses.obj
 0002:0001ac00       ??4?$ADDR@P6A_NPAD@Z@@QAEAAV0@K@Z 10091c00 f i CAddresses.obj
 0002:0001ac60       ??4?$ADDR@P6EHPAUCGameMode@@H@Z@@QAEAAV0@K@Z 10091c60 f i CAddresses.obj
 0002:0001acc0       ??4?$ADDR@P6EHPAUCGameMode@@HH@Z@@QAEAAV0@K@Z 10091cc0 f i CAddresses.obj
 0002:0001ad20       ??4?$ADDR@P6EHPAXPAD@Z@@QAEAAV0@K@Z 10091d20 f i CAddresses.obj
 0002:0001ad80       ??4?$ADDR@P6EHPAXPAUPacket@@@Z@@QAEAAV0@K@Z 10091d80 f i CAddresses.obj
 0002:0001ade0       ??4?$ADDR@P6EKPAUCPlayerPool@@G@Z@@QAEAAV0@K@Z 10091de0 f i CAddresses.obj
 0002:0001ae40       ??4?$ADDR@P6EPADPAXPAD@Z@@QAEAAV0@K@Z 10091e40 f i CAddresses.obj
 0002:0001aea0       ??4?$ADDR@P6EPAUConsoleVariable_s@@PAXPAD@Z@@QAEAAV0@K@Z 10091ea0 f i CAddresses.obj
 0002:0001af00       ??4?$ADDR@P6EXPAUCVehicle@@PAX@Z@@QAEAAV0@K@Z 10091f00 f i CAddresses.obj
 0002:0001af60       ??4?$ADDR@P6EXPAX@Z@@QAEAAV0@K@Z 10091f60 f i CAddresses.obj
 0002:0001afc0       ??4?$ADDR@P6EXPAXE@Z@@QAEAAV0@K@Z 10091fc0 f i CAddresses.obj
 0002:0001b020       ??4?$ADDR@P6EXPAXG@Z@@QAEAAV0@K@Z 10092020 f i CAddresses.obj
 0002:0001b080       ??4?$ADDR@P6EXPAXIPADPBUsockaddr_in@@H@Z@@QAEAAV0@K@Z 10092080 f i CAddresses.obj
 0002:0001b0e0       ??4?$ADDR@P6EXPAXM@Z@@QAEAAV0@K@Z 100920e0 f i CAddresses.obj
 0002:0001b140       ??4?$ADDR@P6EXPAXPAD1@Z@@QAEAAV0@K@Z 10092140 f i CAddresses.obj
 0002:0001b1a0       ??4?$ADDR@P6EXPAXPAD@Z@@QAEAAV0@K@Z 100921a0 f i CAddresses.obj
 0002:0001b200       ??4?$ADDR@P6EXPAXPADH10@Z@@QAEAAV0@K@Z 10092200 f i CAddresses.obj
 0002:0001b260       ??4?$ADDR@P6EXPAXPADH@Z@@QAEAAV0@K@Z 10092260 f i CAddresses.obj
 0002:0001b2c0       ??4?$ADDR@P6E_NPAXPAD@Z@@QAEAAV0@K@Z 100922c0 f i CAddresses.obj
 0002:0001b320       ??4?$ADDR@P6E_NPAXPBD@Z@@QAEAAV0@K@Z 10092320 f i CAddresses.obj
 0002:0001b380       ??4?$ADDR@PBD@@QAEAAV0@K@Z 10092380 f i CAddresses.obj
 0002:0001b3e0       ??4?$ADDR@_N@@QAEAAV0@K@Z  100923e0 f i CAddresses.obj
 0002:0001b440       ??B?$ADDR@$$BY0FC@E@@QBE_NXZ 10092440 f i CAddresses.obj
 0002:0001b4c0       ??B?$ADDR@E@@QBE_NXZ       100924c0 f i CAddresses.obj
 0002:0001b540       ??B?$ADDR@M@@QBEKXZ        10092540 f i CAddresses.obj
 0002:0001b5a0       ??B?$ADDR@M@@QBE_NXZ       100925a0 f i CAddresses.obj
 0002:0001b620       ??B?$ADDR@P6EHPAUCGameMode@@H@Z@@QBEKXZ 10092620 f i CAddresses.obj
 0002:0001b680       ??B?$ADDR@P6EHPAUCGameMode@@HH@Z@@QBEKXZ 10092680 f i CAddresses.obj
 0002:0001b6e0       ??B?$ADDR@P6EXPAXE@Z@@QBEKXZ 100926e0 f i CAddresses.obj
 0002:0001b740       ??_Gexception@std@@UAEPAXI@Z 10092740 f i CAddresses.obj
 0002:0001b740       ??_Eexception@std@@UAEPAXI@Z 10092740 f i CAddresses.obj
 0002:0001b7b0       ??_Elogic_error@std@@UAEPAXI@Z 100927b0 f i CAddresses.obj
 0002:0001b7b0       ??_Glogic_error@std@@UAEPAXI@Z 100927b0 f i CAddresses.obj
 0002:0001b820       ??_H@YGXPAXIIP6EPAX0@Z@Z   10092820 f i CAddresses.obj
 0002:0001b8d0       ?Initialize@CAddress@@SAXW4SAMPVersion@@@Z 100928d0 f   CAddresses.obj
 0002:0001c030       ?unlock@?$ADDR@$$BY0FC@E@@QAEXXZ 10093030 f i CAddresses.obj
 0002:0001c0d0       ?unlock@?$ADDR@E@@QAEXXZ   100930d0 f i CAddresses.obj
 0002:0001c170       ?unlock@?$ADDR@M@@QAEXXZ   10093170 f i CAddresses.obj
 0002:0001c210       ?what@exception@std@@UBEPBDXZ 10093210 f i CAddresses.obj
 0002:0001c290       ??$_Refancy@PBD$0A@@std@@YAPBDPBD@Z 10093290 f i amxfunctions.obj
 0002:0001c2e0       ??$_Unfancy@$$CBD@std@@YAPBDPBD@Z 100932e0 f i amxfunctions.obj
 0002:0001c330       ??$_Unfancy@D@std@@YAPADPAD@Z 10093330 f i amxfunctions.obj
 0002:0001c380       ??$addressof@$$CBV?$_String_val@U?$_Simple_types@D@std@@@std@@@std@@YAPBV?$_String_val@U?$_Simple_types@D@std@@@0@ABV10@@Z 10093380 f i amxfunctions.obj
 0002:0001c3d0       ??0?$_String_const_iterator@V?$_String_val@U?$_Simple_types@D@std@@@std@@@std@@QAE@ABV01@@Z 100933d0 f i amxfunctions.obj
 0002:0001c440       ??0?$_String_const_iterator@V?$_String_val@U?$_Simple_types@D@std@@@std@@@std@@QAE@PBDPBU_Container_base12@1@@Z 10093440 f i amxfunctions.obj
 0002:0001c4c0       ??0_Iterator_base12@std@@QAE@ABU01@@Z 100934c0 f i amxfunctions.obj
 0002:0001c540       ??0_Iterator_base12@std@@QAE@XZ 10093540 f i amxfunctions.obj
 0002:0001c5b0       ??1?$_String_const_iterator@V?$_String_val@U?$_Simple_types@D@std@@@std@@@std@@QAE@XZ 100935b0 f i amxfunctions.obj
 0002:0001c600       ??1_Iterator_base12@std@@QAE@XZ 10093600 f i amxfunctions.obj
 0002:0001c660       ??4_Iterator_base12@std@@QAEAAU01@ABU01@@Z 10093660 f i amxfunctions.obj
 0002:0001c6d0       ??8?$_String_const_iterator@V?$_String_val@U?$_Simple_types@D@std@@@std@@@std@@QBE_NABV01@@Z 100936d0 f i amxfunctions.obj
 0002:0001c770       ??9?$_String_const_iterator@V?$_String_val@U?$_Simple_types@D@std@@@std@@@std@@QBE_NABV01@@Z 10093770 f i amxfunctions.obj
 0002:0001c800       ??D?$_String_const_iterator@V?$_String_val@U?$_Simple_types@D@std@@@std@@@std@@QBEABDXZ 10093800 f i amxfunctions.obj
 0002:0001ca30       ??E?$_String_const_iterator@V?$_String_val@U?$_Simple_types@D@std@@@std@@@std@@QAE?AV01@H@Z 10093a30 f i amxfunctions.obj
 0002:0001caf0       ??E?$_String_const_iterator@V?$_String_val@U?$_Simple_types@D@std@@@std@@@std@@QAEAAV01@XZ 10093af0 f i amxfunctions.obj
 0002:0001cd20       ?_Adopt@_Iterator_base12@std@@QAEXPBU_Container_base12@2@@Z 10093d20 f i amxfunctions.obj
 0002:0001cd80       ?_Adopt_locked@_Iterator_base12@std@@AAEXPBU_Container_base12@2@@Z 10093d80 f i amxfunctions.obj
 0002:0001ce50       ?_Adopt_unlocked@_Iterator_base12@std@@AAEXPBU_Container_base12@2@@Z 10093e50 f i amxfunctions.obj
 0002:0001cf10       ?_Assign_locked@_Iterator_base12@std@@AAEXABU12@@Z 10093f10 f i amxfunctions.obj
 0002:0001cfe0       ?_Assign_unlocked@_Iterator_base12@std@@AAEXABU12@@Z 10093fe0 f i amxfunctions.obj
 0002:0001d070       ?_Compat@?$_String_const_iterator@V?$_String_val@U?$_Simple_types@D@std@@@std@@@std@@QBEXABV12@@Z 10094070 f i amxfunctions.obj
 0002:0001d160       ?_Getcont@_Iterator_base12@std@@QBEPBU_Container_base12@2@XZ 10094160 f i amxfunctions.obj
 0002:0001d1e0       ?_Large_string_engaged@?$_String_val@U?$_Simple_types@D@std@@@std@@QBE_NXZ 100941e0 f i amxfunctions.obj
 0002:0001d260       ?_Myptr@?$_String_val@U?$_Simple_types@D@std@@@std@@QBEPBDXZ 10094260 f i amxfunctions.obj
 0002:0001d2f0       ?_Orphan_me_locked_v3@_Iterator_base12@std@@AAEXXZ 100942f0 f i amxfunctions.obj
 0002:0001d3b0       ?_Orphan_me_unlocked_v3@_Iterator_base12@std@@AAEXXZ 100943b0 f i amxfunctions.obj
 0002:0001d4f0       ?begin@?$basic_string@DU?$char_traits@D@std@@V?$allocator@D@2@@std@@QBE?AV?$_String_const_iterator@V?$_String_val@U?$_Simple_types@D@std@@@std@@@2@XZ 100944f0 f i amxfunctions.obj
 0002:0001d580       ?end@?$basic_string@DU?$char_traits@D@std@@V?$allocator@D@2@@std@@QBE?AV?$_String_const_iterator@V?$_String_val@U?$_Simple_types@D@std@@@std@@@2@XZ 10094580 f i amxfunctions.obj
 0002:0001d610       ?get_amxaddr@@YAPAHPAUtagAMX@@H@Z 10094610 f   amxfunctions.obj
 0002:0001d6c0       ?set_amxstring@@YAHPAUtagAMX@@HABV?$basic_string@DU?$char_traits@D@std@@V?$allocator@D@2@@std@@H@Z 100946c0 f   amxfunctions.obj
 0002:0001d900       ?set_amxstring@@YAHPAUtagAMX@@HPBDH@Z 10094900 f   amxfunctions.obj
 0002:0001d9e0       ??0?$CSingleton@VCConfig@@@@QAE@XZ 100949e0 f i CConfig.obj
 0002:0001da40       ??0CConfig@@QAE@XZ         10094a40 f   CConfig.obj
 0002:0001e1e0       ??1?$CSingleton@VCConfig@@@@UAE@XZ 100951e0 f i CConfig.obj
 0002:0001e240       ??1CConfig@@UAE@XZ         10095240 f i CConfig.obj
 0002:0001e290       ??_E?$CSingleton@VCConfig@@@@UAEPAXI@Z 10095290 f i CConfig.obj
 0002:0001e290       ??_G?$CSingleton@VCConfig@@@@UAEPAXI@Z 10095290 f i CConfig.obj
 0002:0001e300       ??_GCConfig@@UAEPAXI@Z     10095300 f i CConfig.obj
 0002:0001e300       ??_ECConfig@@UAEPAXI@Z     10095300 f i CConfig.obj
 0002:0001e370       _fprintf                   10095370 f i CConfig.obj
 0002:0001e3f0       ??0CObjectData@@QAE@G@Z    100953f0 f   CObjectData.obj
 0002:0001e460       ??$?0$$V@?$_Compressed_pair@V?$allocator@D@std@@V?$_String_val@U?$_Simple_types@D@std@@@2@$00@std@@QAE@U_Zero_then_variadic_args_t@1@@Z 10095460 f i CPlugin.obj
 0002:0001e4d0       ??$?0$$V@?$_Compressed_pair@V?$allocator@U?$_Tree_node@DPAX@std@@@std@@V?$_Tree_val@U?$_Tree_simple_types@D@std@@@2@$00@std@@QAE@U_Zero_then_variadic_args_t@1@@Z 100954d0 f i CPlugin.obj
 0002:0001e540       ??$?0$$V@?$_Compressed_pair@V?$allocator@U?$_Tree_node@V?$basic_string@DU?$char_traits@D@std@@V?$allocator@D@2@@std@@PAX@std@@@std@@V?$_Tree_val@U?$_Tree_simple_types@V?$basic_string@DU?$char_traits@D@std@@V?$allocator@D@2@@std@@@std@@@2@$00@std@@QAE@U_Zero_then_variadic_args_t@1@@Z 10095540 f i CPlugin.obj
 0002:0001e5b0       ??$?0$$V@?$_Compressed_pair@V?$allocator@USysExec_t@CPlugin@@@std@@V?$_Deque_val@U?$_Deque_simple_types@USysExec_t@CPlugin@@@std@@@2@$00@std@@QAE@U_Zero_then_variadic_args_t@1@@Z 100955b0 f i CPlugin.obj
 0002:0001e620       ??$?0$$V@?$_Compressed_pair@V?$allocator@V?$basic_string@DU?$char_traits@D@std@@V?$allocator@D@2@@std@@@std@@V?$_Vector_val@U?$_Simple_types@V?$basic_string@DU?$char_traits@D@std@@V?$allocator@D@2@@std@@@std@@@2@$00@std@@QAE@U_Zero_then_variadic_args_t@1@@Z 10095620 f i CPlugin.obj
 0002:0001e690       ??$?0AAGAAK$0A@@?$pair@$$CBGK@std@@QAE@AAGAAK@Z 10095690 f i CPlugin.obj
 0002:0001e720       ??$?0AAGAAK@?$_List_node_emplace_op2@V?$allocator@U?$_List_node@U?$pair@$$CBGK@std@@PAX@std@@@std@@@std@@QAE@AAV?$allocator@U?$_List_node@U?$pair@$$CBGK@std@@PAX@std@@@1@AAGAAK@Z 10095720 f i CPlugin.obj
 0002:0001e820       ??$?0AAIAAI$0A@@?$pair@$$CBIVCPlayerData@@@std@@QAE@AAI0@Z 10095820 f i CPlugin.obj
 0002:0001e8b0       ??$?0AAIAAI@?$_List_node_emplace_op2@V?$allocator@U?$_List_node@U?$pair@$$CBIVCPlayerData@@@std@@PAX@std@@@std@@@std@@QAE@AAV?$allocator@U?$_List_node@U?$pair@$$CBIVCPlayerData@@@std@@PAX@std@@@1@AAI1@Z 100958b0 f i CPlugin.obj
 0002:0001e9b0       ??$?0AAPAU?$_List_node@U?$pair@$$CBGVCVector@@@std@@PAX@std@@_N$0A@@?$pair@PAU?$_List_node@U?$pair@$$CBGVCVector@@@std@@PAX@std@@_N@std@@QAE@AAPAU?$_List_node@U?$pair@$$CBGVCVector@@@std@@PAX@1@$$QA_N@Z 100959b0 f i CPlugin.obj
 0002:0001ea40       ??$?0AAPAU?$_Tree_node@DPAX@std@@AAPAU01@$0A@@?$pair@PAU?$_Tree_node@DPAX@std@@PAU12@@std@@QAE@AAPAU?$_Tree_node@DPAX@1@0@Z 10095a40 f i CPlugin.obj
 0002:0001ead0       ??$?0AAPAU?$_Tree_node@DPAX@std@@_N$0A@@?$pair@PAU?$_Tree_node@DPAX@std@@_N@std@@QAE@AAPAU?$_Tree_node@DPAX@1@$$QA_N@Z 10095ad0 f i CPlugin.obj
 0002:0001eb60       ??$?0AAPAU?$_Tree_node@GPAX@std@@AAPAU01@$0A@@?$pair@PAU?$_Tree_node@GPAX@std@@PAU12@@std@@QAE@AAPAU?$_Tree_node@GPAX@1@0@Z 10095b60 f i CPlugin.obj
 0002:0001ebf0       ??$?0AAPAU?$_Tree_node@GPAX@std@@_N$0A@@?$pair@PAU?$_Tree_node@GPAX@std@@_N@std@@QAE@AAPAU?$_Tree_node@GPAX@1@$$QA_N@Z 10095bf0 f i CPlugin.obj
 0002:0001ec80       ??$?0AAPAVCConfig@@@?$_Compressed_pair@U?$default_delete@VCConfig@@@std@@PAVCConfig@@$00@std@@QAE@U_Zero_then_variadic_args_t@1@AAPAVCConfig@@@Z 10095c80 f i CPlugin.obj
 0002:0001ecf0       ??$?0ABD@?$_Tree_temp_node@V?$allocator@U?$_Tree_node@DPAX@std@@@std@@@std@@QAE@AAV?$allocator@U?$_Tree_node@DPAX@std@@@1@PAU?$_Tree_node@DPAX@1@ABD@Z 10095cf0 f i CPlugin.obj
 0002:0001ee40       ??$?0ABG$$Z$$V@?$pair@$$CBGVCVector@@@std@@QAE@Upiecewise_construct_t@1@V?$tuple@ABG@1@V?$tuple@$$V@1@@Z 10095e40 f i CPlugin.obj
 0002:0001eed0       ??$?0ABG$0A@@?$tuple@ABG@std@@QAE@ABG@Z 10095ed0 f i CPlugin.obj
 0002:0001ef80       ??$?0ABG@?$_Tree_temp_node@V?$allocator@U?$_Tree_node@GPAX@std@@@std@@@std@@QAE@AAV?$allocator@U?$_Tree_node@GPAX@std@@@1@PAU?$_Tree_node@GPAX@1@ABG@Z 10095f80 f i CPlugin.obj
 0002:0001f0d0       ??$?0ABG@?$_Tuple_val@ABG@std@@QAE@ABG@Z 100960d0 f i CPlugin.obj
 0002:0001f140       ??$?0ABU?$less@D@std@@U_Zero_then_variadic_args_t@1@@?$_Compressed_pair@U?$less@D@std@@V?$_Compressed_pair@V?$allocator@U?$_Tree_node@DPAX@std@@@std@@V?$_Tree_val@U?$_Tree_simple_types@D@std@@@2@$00@2@$00@std@@QAE@U_One_then_variadic_args_t@1@ABU?$less@D@1@$$QAU_Zero_then_variadic_args_t@1@@Z 10096140 f i CPlugin.obj
 0002:0001f1d0       ??$?0ABU?$less@V?$basic_string@DU?$char_traits@D@std@@V?$allocator@D@2@@std@@@std@@U_Zero_then_variadic_args_t@1@@?$_Compressed_pair@U?$less@V?$basic_string@DU?$char_traits@D@std@@V?$allocator@D@2@@std@@@std@@V?$_Compressed_pair@V?$allocator@U?$_Tree_node@V?$basic_string@DU?$char_traits@D@std@@V?$allocator@D@2@@std@@PAX@std@@@std@@V?$_Tree_val@U?$_Tree_simple_types@V?$basic_string@DU?$char_traits@D@std@@V?$allocator@D@2@@std@@@std@@@2@$00@2@$00@std@@QAE@U_One_then_variadic_args_t@1@ABU?$less@V?$basic_string@DU?$char_traits@D@std@@V?$allocator@D@2@@std@@@1@$$QAU_Zero_then_variadic_args_t@1@@Z 100961d0 f i CPlugin.obj
 0002:0001f260       ??$?0ABUpiecewise_construct_t@std@@V?$tuple@ABG@1@V?$tuple@$$V@1@@?$_List_node_emplace_op2@V?$allocator@U?$_List_node@U?$pair@$$CBGVCVector@@@std@@PAX@std@@@std@@@std@@QAE@AAV?$allocator@U?$_List_node@U?$pair@$$CBGVCVector@@@std@@PAX@std@@@1@ABUpiecewise_construct_t@1@$$QAV?$tuple@ABG@1@$$QAV?$tuple@$$V@1@@Z 10096260 f i CPlugin.obj
 0002:0001f370       ??$?0ABV?$allocator@U?$pair@$$CBGK@std@@@std@@$$V@?$_Compressed_pair@V?$allocator@U?$_List_node@U?$pair@$$CBGK@std@@PAX@std@@@std@@V?$_List_val@U?$_List_simple_types@U?$pair@$$CBGK@std@@@std@@@2@$00@std@@QAE@U_One_then_variadic_args_t@1@ABV?$allocator@U?$pair@$$CBGK@std@@@1@@Z 10096370 f i CPlugin.obj
 0002:0001f3f0       ??$?0ABV?$allocator@U?$pair@$$CBGK@std@@@std@@$$V@?$_Compressed_pair@V?$allocator@V?$_List_unchecked_iterator@V?$_List_val@U?$_List_simple_types@U?$pair@$$CBGK@std@@@std@@@std@@@std@@@std@@V?$_Vector_val@U?$_Simple_types@V?$_List_unchecked_iterator@V?$_List_val@U?$_List_simple_types@U?$pair@$$CBGK@std@@@std@@@std@@@std@@@std@@@2@$00@std@@QAE@U_One_then_variadic_args_t@1@ABV?$allocator@U?$pair@$$CBGK@std@@@1@@Z 100963f0 f i CPlugin.obj
 0002:0001f470       ??$?0ABV?$allocator@U?$pair@$$CBGK@std@@@std@@$0A@@?$_Hash_vec@V?$allocator@V?$_List_unchecked_iterator@V?$_List_val@U?$_List_simple_types@U?$pair@$$CBGK@std@@@std@@@std@@@std@@@std@@@std@@QAE@ABV?$allocator@U?$pair@$$CBGK@std@@@1@@Z 10096470 f i CPlugin.obj
 0002:0001f550       ??$?0D@?$_Tree_temp_node@V?$allocator@U?$_Tree_node@DPAX@std@@@std@@@std@@QAE@AAV?$allocator@U?$_Tree_node@DPAX@std@@@1@PAU?$_Tree_node@DPAX@1@$$QAD@Z 10096550 f i CPlugin.obj
 0002:0001f6a0       ??$?0D@?$allocator@U_Container_proxy@std@@@std@@QAE@ABV?$allocator@D@1@@Z 100966a0 f i CPlugin.obj
 0002:0001f700       ??$?0M@?$_Compressed_pair@U?$equal_to@G@std@@M$00@std@@QAE@U_Zero_then_variadic_args_t@1@$$QAM@Z 10096700 f i CPlugin.obj
 0002:0001f770       ??$?0PAU?$_List_node@U?$pair@$$CBGVCVector@@@std@@PAX@std@@_N$0A@@?$pair@PAU?$_List_node@U?$pair@$$CBGVCVector@@@std@@PAX@std@@_N@std@@QAE@$$QAPAU?$_List_node@U?$pair@$$CBGVCVector@@@std@@PAX@1@$$QA_N@Z 10096770 f i CPlugin.obj
 0002:0001f800       ??$?0PAU?$_Tree_node@DPAX@std@@_N$0A@@?$pair@PAU?$_Tree_node@DPAX@std@@_N@std@@QAE@$$QAPAU?$_Tree_node@DPAX@1@$$QA_N@Z 10096800 f i CPlugin.obj
 0002:0001f890       ??$?0PAU?$_Tree_node@GPAX@std@@_N$0A@@?$pair@PAU?$_Tree_node@GPAX@std@@_N@std@@QAE@$$QAPAU?$_Tree_node@GPAX@1@$$QA_N@Z 10096890 f i CPlugin.obj
 0002:0001f920       ??$?0U?$_List_node@U?$pair@$$CBGK@std@@PAX@std@@@?$allocator@U_Container_proxy@std@@@std@@QAE@ABV?$allocator@U?$_List_node@U?$pair@$$CBGK@std@@PAX@std@@@1@@Z 10096920 f i CPlugin.obj
 0002:0001f980       ??$?0U?$_Tree_node@DPAX@std@@@?$allocator@U_Container_proxy@std@@@std@@QAE@ABV?$allocator@U?$_Tree_node@DPAX@std@@@1@@Z 10096980 f i CPlugin.obj
 0002:0001f9e0       ??$?0U?$_Tree_node@V?$basic_string@DU?$char_traits@D@std@@V?$allocator@D@2@@std@@PAX@std@@@?$allocator@U_Container_proxy@std@@@std@@QAE@ABV?$allocator@U?$_Tree_node@V?$basic_string@DU?$char_traits@D@std@@V?$allocator@D@2@@std@@PAX@std@@@1@@Z 100969e0 f i CPlugin.obj
 0002:0001fa40       ??$?0U?$default_delete@VCConfig@@@std@@$0A@@?$unique_ptr@VCConfig@@U?$default_delete@VCConfig@@@std@@@std@@QAE@$$QAV01@@Z 10096a40 f i CPlugin.obj
 0002:0001fae0       ??$?0U?$default_delete@VCConfig@@@std@@$0A@@?$unique_ptr@VCConfig@@U?$default_delete@VCConfig@@@std@@@std@@QAE@PAVCConfig@@@Z 10096ae0 f i CPlugin.obj
 0002:0001fb50       ??$?0U?$default_delete@VCConfig@@@std@@PAVCConfig@@@?$_Compressed_pair@U?$default_delete@VCConfig@@@std@@PAVCConfig@@$00@std@@QAE@U_One_then_variadic_args_t@1@$$QAU?$default_delete@VCConfig@@@1@$$QAPAVCConfig@@@Z 10096b50 f i CPlugin.obj
 0002:0001fbd0       ??$?0U?$pair@$$CBGK@std@@@?$allocator@U?$_List_node@U?$pair@$$CBGK@std@@PAX@std@@@std@@QAE@ABV?$allocator@U?$pair@$$CBGK@std@@@1@@Z 10096bd0 f i CPlugin.obj
 0002:0001fc30       ??$?0U?$pair@$$CBGK@std@@@?$allocator@V?$_List_unchecked_iterator@V?$_List_val@U?$_List_simple_types@U?$pair@$$CBGK@std@@@std@@@std@@@std@@@std@@QAE@ABV?$allocator@U?$pair@$$CBGK@std@@@1@@Z 10096c30 f i CPlugin.obj
 0002:0001fc90       ??$?0USysExec_t@CPlugin@@@?$allocator@PAUSysExec_t@CPlugin@@@std@@QAE@ABV?$allocator@USysExec_t@CPlugin@@@1@@Z 10096c90 f i CPlugin.obj
 0002:0001fcf0       ??$?0USysExec_t@CPlugin@@@?$allocator@U_Container_proxy@std@@@std@@QAE@ABV?$allocator@USysExec_t@CPlugin@@@1@@Z 10096cf0 f i CPlugin.obj
 0002:0001fd50       ??$?0U_Exact_args_t@std@@$0A@@?$tuple@$$V@std@@QAE@U_Exact_args_t@1@@Z 10096d50 f i CPlugin.obj
 0002:0001fdb0       ??$?0U_Exact_args_t@std@@ABG$$V$0A@@?$tuple@ABG@std@@QAE@U_Exact_args_t@1@ABG@Z 10096db0 f i CPlugin.obj
 0002:0001fe40       ??$?0U_Zero_then_variadic_args_t@std@@M@?$_Compressed_pair@U?$hash@G@std@@V?$_Compressed_pair@U?$equal_to@G@std@@M$00@2@$00@std@@QAE@U_Zero_then_variadic_args_t@1@$$QAU21@$$QAM@Z 10096e40 f i CPlugin.obj
 0002:0001fed0       ??$?0V?$_List_iterator@V?$_List_val@U?$_List_simple_types@U?$pair@$$CBGK@std@@@std@@@std@@@std@@_N$0A@@?$pair@V?$_List_iterator@V?$_List_val@U?$_List_simple_types@U?$pair@$$CBGK@std@@@std@@@std@@@std@@_N@std@@QAE@$$QAV?$_List_iterator@V?$_List_val@U?$_List_simple_types@U?$pair@$$CBGK@std@@@std@@@std@@@1@$$QA_N@Z 10096ed0 f i CPlugin.obj
 0002:0001ff60       ??$?0V?$_List_iterator@V?$_List_val@U?$_List_simple_types@U?$pair@$$CBIVCPlayerData@@@std@@@std@@@std@@@std@@_N$0A@@?$pair@V?$_List_iterator@V?$_List_val@U?$_List_simple_types@U?$pair@$$CBIVCPlayerData@@@std@@@std@@@std@@@std@@_N@std@@QAE@$$QAV?$_List_iterator@V?$_List_val@U?$_List_simple_types@U?$pair@$$CBIVCPlayerData@@@std@@@std@@@std@@@1@$$QA_N@Z 10096f60 f i CPlugin.obj
 0002:0001fff0       ??$?0V?$_List_unchecked_iterator@V?$_List_val@U?$_List_simple_types@U?$pair@$$CBGK@std@@@std@@@std@@@std@@@?$allocator@U_Container_proxy@std@@@std@@QAE@ABV?$allocator@V?$_List_unchecked_iterator@V?$_List_val@U?$_List_simple_types@U?$pair@$$CBGK@std@@@std@@@std@@@std@@@1@@Z 10096ff0 f i CPlugin.obj
 0002:00020050       ??$?0V?$_Tree_const_iterator@V?$_Tree_val@U?$_Tree_simple_types@D@std@@@std@@@std@@AB_N$0A@@?$pair@V?$_Tree_const_iterator@V?$_Tree_val@U?$_Tree_simple_types@D@std@@@std@@@std@@_N@std@@QAE@$$QAV?$_Tree_const_iterator@V?$_Tree_val@U?$_Tree_simple_types@D@std@@@std@@@1@AB_N@Z 10097050 f i CPlugin.obj
 0002:000200e0       ??$?0V?$_Tree_const_iterator@V?$_Tree_val@U?$_Tree_simple_types@G@std@@@std@@@std@@AB_N$0A@@?$pair@V?$_Tree_const_iterator@V?$_Tree_val@U?$_Tree_simple_types@G@std@@@std@@@std@@_N@std@@QAE@$$QAV?$_Tree_const_iterator@V?$_Tree_val@U?$_Tree_simple_types@G@std@@@std@@@1@AB_N@Z 100970e0 f i CPlugin.obj
 0002:00020170       ??$?0V?$allocator@D@std@@$$V@?$_Compressed_pair@V?$allocator@D@std@@V?$_String_val@U?$_Simple_types@D@std@@@2@$00@std@@QAE@U_One_then_variadic_args_t@1@$$QAV?$allocator@D@1@@Z 10097170 f i CPlugin.obj
 0002:000201e0       ??$?0V?$basic_string@DU?$char_traits@D@std@@V?$allocator@D@2@@std@@@?$allocator@U_Container_proxy@std@@@std@@QAE@ABV?$allocator@V?$basic_string@DU?$char_traits@D@std@@V?$allocator@D@2@@std@@@1@@Z 100971e0 f i CPlugin.obj
 0002:00020240       ??$?0V?$tuple@ABG@std@@V?$tuple@$$V@1@$0A@$$Z$S@?$pair@$$CBGVCVector@@@std@@QAE@AAV?$tuple@ABG@1@AAV?$tuple@$$V@1@U?$integer_sequence@I$0A@@1@U?$integer_sequence@I$S@1@@Z 10097240 f i CPlugin.obj
 0002:000202d0       ??$?0_J$0A@@?$duration@_JU?$ratio@$00$0DLJKMKAA@@std@@@chrono@std@@QAE@AB_J@Z 100972d0 f i CPlugin.obj
 0002:00020340       ??$?4U?$default_delete@VCConfig@@@std@@$0A@@?$unique_ptr@VCConfig@@U?$default_delete@VCConfig@@@std@@@std@@QAEAAV01@$$QAV01@@Z 10097340 f i CPlugin.obj
 0002:000203e0       ??$?8DU?$char_traits@D@std@@V?$allocator@D@1@@std@@YA_NABV?$basic_string@DU?$char_traits@D@std@@V?$allocator@D@2@@0@0@Z 100973e0 f i CPlugin.obj
 0002:00020440       ??$?8VCConfig@@U?$default_delete@VCConfig@@@std@@@std@@YA_NABV?$unique_ptr@VCConfig@@U?$default_delete@VCConfig@@@std@@@0@$$T@Z 10097440 f i CPlugin.obj
 0002:000204c0       ??$?8VCPlugin@@U?$default_delete@VCPlugin@@@std@@@std@@YA_NABV?$unique_ptr@VCPlugin@@U?$default_delete@VCPlugin@@@std@@@0@$$T@Z 100974c0 f i CPlugin.obj
 0002:00020540       ??$?8VCServer@@U?$default_delete@VCServer@@@std@@@std@@YA_NABV?$unique_ptr@VCServer@@U?$default_delete@VCServer@@@std@@@0@$$T@Z 10097540 f i CPlugin.obj
 0002:000205c0       ??$?9VCConfig@@U?$default_delete@VCConfig@@@std@@@std@@YA_NABV?$unique_ptr@VCConfig@@U?$default_delete@VCConfig@@@std@@@0@$$T@Z 100975c0 f i CPlugin.obj
 0002:00020650       ??$?CVCPlayerObjectAttachAddon@@$0A@@?$shared_ptr@VCPlayerObjectAttachAddon@@@std@@QBEPAVCPlayerObjectAttachAddon@@XZ 10097650 f i CPlugin.obj
 0002:000206b0       ??$?RG@?$_Uhash_compare@GU?$hash@G@std@@U?$equal_to@G@2@@std@@QBEIABG@Z 100976b0 f i CPlugin.obj
 0002:00020720       ??$?RGG@?$_Uhash_compare@GU?$hash@G@std@@U?$equal_to@G@2@@std@@QBE_NABG0@Z 10097720 f i CPlugin.obj
 0002:000207c0       ??$?RI@?$_Uhash_compare@IU?$hash@I@std@@U?$equal_to@I@2@@std@@QBEIABI@Z 100977c0 f i CPlugin.obj
 0002:00020830       ??$?RII@?$_Uhash_compare@IU?$hash@I@std@@U?$equal_to@I@2@@std@@QBE_NABI0@Z 10097830 f i CPlugin.obj
 0002:000208d0       ??$Init@$$V@?$CSingleton@VCConfig@@@@SAPAVCConfig@@XZ 100978d0 f i CPlugin.obj
 0002:00020b30       ??$Read@E@BitStream@RakNet@@QAE_NAAE@Z 10097b30 f i CPlugin.obj
 0002:00020bc0       ??$Read@G@BitStream@RakNet@@QAE_NAAG@Z 10097bc0 f i CPlugin.obj
 0002:00020c50       ??$Read@H@BitStream@RakNet@@QAE_NAAH@Z 10097c50 f i CPlugin.obj
 0002:00020ce0       ??$Read@K@BitStream@RakNet@@QAE_NAAK@Z 10097ce0 f i CPlugin.obj
 0002:00020d70       ??$Write@E@BitStream@RakNet@@QAEXE@Z 10097d70 f i CPlugin.obj
 0002:00020e00       ??$Write@F@BitStream@RakNet@@QAEXF@Z 10097e00 f i CPlugin.obj
 0002:00020e80       ??$Write@G@BitStream@RakNet@@QAEXG@Z 10097e80 f i CPlugin.obj
 0002:00020f00       ??$Write@H@BitStream@RakNet@@QAEXH@Z 10097f00 f i CPlugin.obj
 0002:00020f80       ??$Write@K@BitStream@RakNet@@QAEXK@Z 10097f80 f i CPlugin.obj
 0002:00021000       ??$Write@M@BitStream@RakNet@@QAEXM@Z 10098000 f i CPlugin.obj
 0002:00021080       ??$WriteCompressed@M@BitStream@RakNet@@QAEXM@Z 10098080 f i CPlugin.obj
 0002:00021190       ??$WriteNormQuat@M@BitStream@RakNet@@QAEXMMMM@Z 10098190 f i CPlugin.obj
 0002:000213a0       ??$WriteVector@M@BitStream@RakNet@@QAEXMMM@Z 100983a0 f i CPlugin.obj
 0002:000214c0       ??$_Adl_verify_range@PAV?$_List_unchecked_iterator@V?$_List_val@U?$_List_simple_types@U?$pair@$$CBGK@std@@@std@@@std@@@std@@PAV12@@std@@YAXABQAV?$_List_unchecked_iterator@V?$_List_val@U?$_List_simple_types@U?$pair@$$CBGK@std@@@std@@@std@@@0@0@Z 100984c0 f i CPlugin.obj
 0002:00021520       ??$_Adl_verify_range@PAV?$_List_unchecked_iterator@V?$_List_val@U?$_List_simple_types@U?$pair@$$CBGVCVector@@@std@@@std@@@std@@@std@@PAV12@@std@@YAXABQAV?$_List_unchecked_iterator@V?$_List_val@U?$_List_simple_types@U?$pair@$$CBGVCVector@@@std@@@std@@@std@@@0@0@Z 10098520 f i CPlugin.obj
 0002:00021580       ??$_Adl_verify_range@PAV?$_List_unchecked_iterator@V?$_List_val@U?$_List_simple_types@U?$pair@$$CBIVCPlayerData@@@std@@@std@@@std@@@std@@PAV12@@std@@YAXABQAV?$_List_unchecked_iterator@V?$_List_val@U?$_List_simple_types@U?$pair@$$CBIVCPlayerData@@@std@@@std@@@std@@@0@0@Z 10098580 f i CPlugin.obj
 0002:000215e0       ??$_Adl_verify_range@PBDPBD@std@@YAXABQBD0@Z 100985e0 f i CPlugin.obj
 0002:00021640       ??$_Adl_verify_range@V?$_Tree_unchecked_const_iterator@V?$_Tree_val@U?$_Tree_simple_types@D@std@@@std@@U_Iterator_base0@2@@std@@V12@@std@@YAXABV?$_Tree_unchecked_const_iterator@V?$_Tree_val@U?$_Tree_simple_types@D@std@@@std@@U_Iterator_base0@2@@0@0@Z 10098640 f i CPlugin.obj
 0002:00021690       ??$_Adl_verify_range@V?$_Tree_unchecked_const_iterator@V?$_Tree_val@U?$_Tree_simple_types@G@std@@@std@@U_Iterator_base0@2@@std@@V12@@std@@YAXABV?$_Tree_unchecked_const_iterator@V?$_Tree_val@U?$_Tree_simple_types@G@std@@@std@@U_Iterator_base0@2@@0@0@Z 10098690 f i CPlugin.obj
 0002:000216e0       ??$_Adl_verify_range@V?$_Vector_iterator@V?$_Vector_val@U?$_Simple_types@V?$basic_string@DU?$char_traits@D@std@@V?$allocator@D@2@@std@@@std@@@std@@@std@@V12@@std@@YAXABV?$_Vector_iterator@V?$_Vector_val@U?$_Simple_types@V?$basic_string@DU?$char_traits@D@std@@V?$allocator@D@2@@std@@@std@@@std@@@0@0@Z 100986e0 f i CPlugin.obj
 0002:00021740       ??$_Alloc_proxy@V?$allocator@U_Container_proxy@std@@@std@@@_Container_base12@std@@QAEX$$QAV?$allocator@U_Container_proxy@std@@@1@@Z 10098740 f i CPlugin.obj
 0002:000217f0       ??$_Allocate@$07U_Default_allocate_traits@std@@$0A@@std@@YAPAXI@Z 100987f0 f i CPlugin.obj
 0002:00021870       ??$_Allocate_manually_vector_aligned@U_Default_allocate_traits@std@@@std@@YAPAXI@Z 10098870 f i CPlugin.obj
 0002:000219b0       ??$_Buyheadnode@V?$allocator@U?$_Tree_node@DPAX@std@@@std@@@?$_Tree_node@DPAX@std@@SAPAU01@AAV?$allocator@U?$_Tree_node@DPAX@std@@@1@@Z 100989b0 f i CPlugin.obj
 0002:00021aa0       ??$_Buyheadnode@V?$allocator@U?$_Tree_node@V?$basic_string@DU?$char_traits@D@std@@V?$allocator@D@2@@std@@PAX@std@@@std@@@?$_Tree_node@V?$basic_string@DU?$char_traits@D@std@@V?$allocator@D@2@@std@@PAX@std@@SAPAU01@AAV?$allocator@U?$_Tree_node@V?$basic_string@DU?$char_traits@D@std@@V?$allocator@D@2@@std@@PAX@std@@@1@@Z 10098aa0 f i CPlugin.obj
 0002:00021b90       ??$_Construct_in_place@PADAAPAD@std@@YAXAAPAD0@Z 10098b90 f i CPlugin.obj
 0002:00021c30       ??$_Construct_in_place@PADABQAD@std@@YAXAAPADABQAD@Z 10098c30 f i CPlugin.obj
 0002:00021cd0       ??$_Construct_in_place@PAU?$_List_node@U?$pair@$$CBGK@std@@PAX@std@@AAPAU12@@std@@YAXAAPAU?$_List_node@U?$pair@$$CBGK@std@@PAX@0@0@Z 10098cd0 f i CPlugin.obj
 0002:00021d70       ??$_Construct_in_place@PAU?$_List_node@U?$pair@$$CBGK@std@@PAX@std@@ABQAU12@@std@@YAXAAPAU?$_List_node@U?$pair@$$CBGK@std@@PAX@0@ABQAU10@@Z 10098d70 f i CPlugin.obj
 0002:00021e10       ??$_Construct_in_place@PAU?$_List_node@U?$pair@$$CBGVCVector@@@std@@PAX@std@@ABQAU12@@std@@YAXAAPAU?$_List_node@U?$pair@$$CBGVCVector@@@std@@PAX@0@ABQAU10@@Z 10098e10 f i CPlugin.obj
 0002:00021eb0       ??$_Construct_in_place@PAU?$_List_node@U?$pair@$$CBIVCPlayerData@@@std@@PAX@std@@ABQAU12@@std@@YAXAAPAU?$_List_node@U?$pair@$$CBIVCPlayerData@@@std@@PAX@0@ABQAU10@@Z 10098eb0 f i CPlugin.obj
 0002:00021f50       ??$_Construct_in_place@PAU?$_Tree_node@DPAX@std@@AAPAU12@@std@@YAXAAPAU?$_Tree_node@DPAX@0@0@Z 10098f50 f i CPlugin.obj
 0002:00021ff0       ??$_Construct_in_place@PAU?$_Tree_node@DPAX@std@@ABQAU12@@std@@YAXAAPAU?$_Tree_node@DPAX@0@ABQAU10@@Z 10098ff0 f i CPlugin.obj
 0002:00022090       ??$_Construct_in_place@PAU?$_Tree_node@GPAX@std@@AAPAU12@@std@@YAXAAPAU?$_Tree_node@GPAX@0@0@Z 10099090 f i CPlugin.obj
 0002:00022130       ??$_Construct_in_place@PAU?$_Tree_node@V?$basic_string@DU?$char_traits@D@std@@V?$allocator@D@2@@std@@PAX@std@@ABQAU12@@std@@YAXAAPAU?$_Tree_node@V?$basic_string@DU?$char_traits@D@std@@V?$allocator@D@2@@std@@PAX@0@ABQAU10@@Z 10099130 f i CPlugin.obj
 0002:000221d0       ??$_Construct_in_place@U_Container_proxy@std@@PAU_Container_base12@2@@std@@YAXAAU_Container_proxy@0@$$QAPAU_Container_base12@0@@Z 100991d0 f i CPlugin.obj
 0002:00022270       ??$_Construct_in_place@V?$_List_unchecked_iterator@V?$_List_val@U?$_List_simple_types@U?$pair@$$CBGK@std@@@std@@@std@@@std@@ABV12@@std@@YAXAAV?$_List_unchecked_iterator@V?$_List_val@U?$_List_simple_types@U?$pair@$$CBGK@std@@@std@@@std@@@0@ABV10@@Z 10099270 f i CPlugin.obj
 0002:00022310       ??$_Construct_in_place@V?$_List_unchecked_iterator@V?$_List_val@U?$_List_simple_types@U?$pair@$$CBGVCVector@@@std@@@std@@@std@@@std@@ABV12@@std@@YAXAAV?$_List_unchecked_iterator@V?$_List_val@U?$_List_simple_types@U?$pair@$$CBGVCVector@@@std@@@std@@@std@@@0@ABV10@@Z 10099310 f i CPlugin.obj
 0002:000223b0       ??$_Construct_in_place@V?$_List_unchecked_iterator@V?$_List_val@U?$_List_simple_types@U?$pair@$$CBIVCPlayerData@@@std@@@std@@@std@@@std@@ABV12@@std@@YAXAAV?$_List_unchecked_iterator@V?$_List_val@U?$_List_simple_types@U?$pair@$$CBIVCPlayerData@@@std@@@std@@@std@@@0@ABV10@@Z 100993b0 f i CPlugin.obj
 0002:00022450       ??$_Convert_size@I@std@@YAII@Z 10099450 f i CPlugin.obj
 0002:000224a0       ??$_Deallocate@$07$0A@@std@@YAXPAXI@Z 100994a0 f i CPlugin.obj
 0002:00022560       ??$_Deallocate_plain@V?$allocator@U_Container_proxy@std@@@std@@@std@@YAXAAV?$allocator@U_Container_proxy@std@@@0@QAU_Container_proxy@0@@Z 10099560 f i CPlugin.obj
 0002:00022600       ??$_Debug_lt_pred@ABU?$less@D@std@@ABDABD$0A@@std@@YA_NABU?$less@D@0@ABD1@Z 10099600 f i CPlugin.obj
 0002:00022710       ??$_Debug_lt_pred@ABU?$less@G@std@@ABGABG$0A@@std@@YA_NABU?$less@G@0@ABG1@Z 10099710 f i CPlugin.obj
 0002:00022820       ??$_Delete_plain_internal@V?$allocator@U_Container_proxy@std@@@std@@@std@@YAXAAV?$allocator@U_Container_proxy@std@@@0@QAU_Container_proxy@0@@Z 10099820 f i CPlugin.obj
 0002:00022880       ??$_Destroy_in_place@PAD@std@@YAXAAPAD@Z 10099880 f i CPlugin.obj
 0002:000228d0       ??$_Destroy_in_place@PAU?$_List_node@U?$pair@$$CBGK@std@@PAX@std@@@std@@YAXAAPAU?$_List_node@U?$pair@$$CBGK@std@@PAX@0@@Z 100998d0 f i CPlugin.obj
 0002:00022920       ??$_Destroy_in_place@PAU?$_List_node@U?$pair@$$CBGVCVector@@@std@@PAX@std@@@std@@YAXAAPAU?$_List_node@U?$pair@$$CBGVCVector@@@std@@PAX@0@@Z 10099920 f i CPlugin.obj
 0002:00022970       ??$_Destroy_in_place@PAU?$_List_node@U?$pair@$$CBIVCPlayerData@@@std@@PAX@std@@@std@@YAXAAPAU?$_List_node@U?$pair@$$CBIVCPlayerData@@@std@@PAX@0@@Z 10099970 f i CPlugin.obj
 0002:000229c0       ??$_Destroy_in_place@PAU?$_Tree_node@DPAX@std@@@std@@YAXAAPAU?$_Tree_node@DPAX@0@@Z 100999c0 f i CPlugin.obj
 0002:00022a10       ??$_Destroy_in_place@PAU?$_Tree_node@GPAX@std@@@std@@YAXAAPAU?$_Tree_node@GPAX@0@@Z 10099a10 f i CPlugin.obj
 0002:00022a60       ??$_Destroy_in_place@PAU?$_Tree_node@V?$basic_string@DU?$char_traits@D@std@@V?$allocator@D@2@@std@@PAX@std@@@std@@YAXAAPAU?$_Tree_node@V?$basic_string@DU?$char_traits@D@std@@V?$allocator@D@2@@std@@PAX@0@@Z 10099a60 f i CPlugin.obj
 0002:00022ab0       ??$_Destroy_in_place@PAUSysExec_t@CPlugin@@@std@@YAXAAPAUSysExec_t@CPlugin@@@Z 10099ab0 f i CPlugin.obj
 0002:00022b00       ??$_Destroy_range@PAV?$_List_unchecked_iterator@V?$_List_val@U?$_List_simple_types@U?$pair@$$CBGK@std@@@std@@@std@@@std@@PAV12@@std@@YAXPAV?$_List_unchecked_iterator@V?$_List_val@U?$_List_simple_types@U?$pair@$$CBGK@std@@@std@@@std@@@0@QAV10@@Z 10099b00 f i CPlugin.obj
 0002:00022b50       ??$_Destroy_range@PAV?$_List_unchecked_iterator@V?$_List_val@U?$_List_simple_types@U?$pair@$$CBGVCVector@@@std@@@std@@@std@@@std@@PAV12@@std@@YAXPAV?$_List_unchecked_iterator@V?$_List_val@U?$_List_simple_types@U?$pair@$$CBGVCVector@@@std@@@std@@@std@@@0@QAV10@@Z 10099b50 f i CPlugin.obj
 0002:00022ba0       ??$_Destroy_range@PAV?$_List_unchecked_iterator@V?$_List_val@U?$_List_simple_types@U?$pair@$$CBIVCPlayerData@@@std@@@std@@@std@@@std@@PAV12@@std@@YAXPAV?$_List_unchecked_iterator@V?$_List_val@U?$_List_simple_types@U?$pair@$$CBIVCPlayerData@@@std@@@std@@@std@@@0@QAV10@@Z 10099ba0 f i CPlugin.obj
 0002:00022bf0       ??$_Destroy_range@V?$allocator@V?$basic_string@DU?$char_traits@D@std@@V?$allocator@D@2@@std@@@std@@@std@@YAXPAV?$basic_string@DU?$char_traits@D@std@@V?$allocator@D@2@@0@QAV10@AAV?$allocator@V?$basic_string@DU?$char_traits@D@std@@V?$allocator@D@2@@std@@@0@@Z 10099bf0 f i CPlugin.obj
 0002:00022cb0       ??$_Emplace@ABD@?$_Tree@V?$_Tset_traits@DU?$less@D@std@@V?$allocator@D@2@$0A@@std@@@std@@IAE?AU?$pair@PAU?$_Tree_node@DPAX@std@@_N@1@ABD@Z 10099cb0 f i CPlugin.obj
 0002:00022e80       ??$_Emplace@ABG@?$_Tree@V?$_Tset_traits@GU?$less@G@std@@V?$allocator@G@2@$0A@@std@@@std@@IAE?AU?$pair@PAU?$_Tree_node@GPAX@std@@_N@1@ABG@Z 10099e80 f i CPlugin.obj
 0002:00023050       ??$_Emplace@D@?$_Tree@V?$_Tset_traits@DU?$less@D@std@@V?$allocator@D@2@$0A@@std@@@std@@IAE?AU?$pair@PAU?$_Tree_node@DPAX@std@@_N@1@$$QAD@Z 1009a050 f i CPlugin.obj
 0002:00023220       ??$_Emplace_back@ABV?$_List_unchecked_iterator@V?$_List_val@U?$_List_simple_types@U?$pair@$$CBGK@std@@@std@@@std@@@std@@@?$_Uninitialized_backout@PAV?$_List_unchecked_iterator@V?$_List_val@U?$_List_simple_types@U?$pair@$$CBGK@std@@@std@@@std@@@std@@@std@@QAEXABV?$_List_unchecked_iterator@V?$_List_val@U?$_List_simple_types@U?$pair@$$CBGK@std@@@std@@@std@@@1@@Z 1009a220 f i CPlugin.obj
 0002:000232b0       ??$_Emplace_back@ABV?$_List_unchecked_iterator@V?$_List_val@U?$_List_simple_types@U?$pair@$$CBGVCVector@@@std@@@std@@@std@@@std@@@?$_Uninitialized_backout@PAV?$_List_unchecked_iterator@V?$_List_val@U?$_List_simple_types@U?$pair@$$CBGVCVector@@@std@@@std@@@std@@@std@@@std@@QAEXABV?$_List_unchecked_iterator@V?$_List_val@U?$_List_simple_types@U?$pair@$$CBGVCVector@@@std@@@std@@@std@@@1@@Z 1009a2b0 f i CPlugin.obj
 0002:00023340       ??$_Emplace_back@ABV?$_List_unchecked_iterator@V?$_List_val@U?$_List_simple_types@U?$pair@$$CBIVCPlayerData@@@std@@@std@@@std@@@std@@@?$_Uninitialized_backout@PAV?$_List_unchecked_iterator@V?$_List_val@U?$_List_simple_types@U?$pair@$$CBIVCPlayerData@@@std@@@std@@@std@@@std@@@std@@QAEXABV?$_List_unchecked_iterator@V?$_List_val@U?$_List_simple_types@U?$pair@$$CBIVCPlayerData@@@std@@@std@@@std@@@1@@Z 1009a340 f i CPlugin.obj
 0002:000233d0       ??$_Emplace_back@V?$basic_string@DU?$char_traits@D@std@@V?$allocator@D@2@@std@@@?$_Uninitialized_backout_al@V?$allocator@V?$basic_string@DU?$char_traits@D@std@@V?$allocator@D@2@@std@@@std@@@std@@QAEX$$QAV?$basic_string@DU?$char_traits@D@std@@V?$allocator@D@2@@1@@Z 1009a3d0 f i CPlugin.obj
 0002:00023470       ??$_Emplace_back_with_unused_capacity@V?$basic_string@DU?$char_traits@D@std@@V?$allocator@D@2@@std@@@?$vector@V?$basic_string@DU?$char_traits@D@std@@V?$allocator@D@2@@std@@V?$allocator@V?$basic_string@DU?$char_traits@D@std@@V?$allocator@D@2@@std@@@2@@std@@AAE?A_T$$QAV?$basic_string@DU?$char_traits@D@std@@V?$allocator@D@2@@1@@Z 1009a470 f i CPlugin.obj
 0002:00023540       ??$_Emplace_hint@ABD@?$_Tree@V?$_Tset_traits@DU?$less@D@std@@V?$allocator@D@2@$0A@@std@@@std@@IAEPAU?$_Tree_node@DPAX@1@QAU21@ABD@Z 1009a540 f i CPlugin.obj
 0002:000236a0       ??$_Emplace_reallocate@V?$basic_string@DU?$char_traits@D@std@@V?$allocator@D@2@@std@@@?$vector@V?$basic_string@DU?$char_traits@D@std@@V?$allocator@D@2@@std@@V?$allocator@V?$basic_string@DU?$char_traits@D@std@@V?$allocator@D@2@@std@@@2@@std@@QAEPAV?$basic_string@DU?$char_traits@D@std@@V?$allocator@D@2@@1@QAV21@$$QAV21@@Z 1009a6a0 f i CPlugin.obj
 0002:00023970       ??$_Eqrange@D@?$_Tree@V?$_Tset_traits@DU?$less@D@std@@V?$allocator@D@2@$0A@@std@@@std@@IBE?AU?$pair@PAU?$_Tree_node@DPAX@std@@PAU12@@1@ABD@Z 1009a970 f i CPlugin.obj
 0002:00023bb0       ??$_Eqrange@G@?$_Tree@V?$_Tset_traits@GU?$less@G@std@@V?$allocator@G@2@$0A@@std@@@std@@IBE?AU?$pair@PAU?$_Tree_node@GPAX@std@@PAU12@@1@ABG@Z 1009abb0 f i CPlugin.obj
 0002:00023df0       ??$_Erase_head@V?$allocator@U?$_Tree_node@DPAX@std@@@std@@@?$_Tree_val@U?$_Tree_simple_types@D@std@@@std@@QAEXAAV?$allocator@U?$_Tree_node@DPAX@std@@@1@@Z 1009adf0 f i CPlugin.obj
 0002:00023e80       ??$_Erase_head@V?$allocator@U?$_Tree_node@V?$basic_string@DU?$char_traits@D@std@@V?$allocator@D@2@@std@@PAX@std@@@std@@@?$_Tree_val@U?$_Tree_simple_types@V?$basic_string@DU?$char_traits@D@std@@V?$allocator@D@2@@std@@@std@@@std@@QAEXAAV?$allocator@U?$_Tree_node@V?$basic_string@DU?$char_traits@D@std@@V?$allocator@D@2@@std@@PAX@std@@@1@@Z 1009ae80 f i CPlugin.obj
 0002:00023f10       ??$_Erase_tree@V?$allocator@U?$_Tree_node@DPAX@std@@@std@@@?$_Tree_val@U?$_Tree_simple_types@D@std@@@std@@QAEXAAV?$allocator@U?$_Tree_node@DPAX@std@@@1@PAU?$_Tree_node@DPAX@1@@Z 1009af10 f i CPlugin.obj
 0002:00023fb0       ??$_Erase_tree@V?$allocator@U?$_Tree_node@GPAX@std@@@std@@@?$_Tree_val@U?$_Tree_simple_types@G@std@@@std@@QAEXAAV?$allocator@U?$_Tree_node@GPAX@std@@@1@PAU?$_Tree_node@GPAX@1@@Z 1009afb0 f i CPlugin.obj
 0002:00024050       ??$_Erase_tree@V?$allocator@U?$_Tree_node@V?$basic_string@DU?$char_traits@D@std@@V?$allocator@D@2@@std@@PAX@std@@@std@@@?$_Tree_val@U?$_Tree_simple_types@V?$basic_string@DU?$char_traits@D@std@@V?$allocator@D@2@@std@@@std@@@std@@QAEXAAV?$allocator@U?$_Tree_node@V?$basic_string@DU?$char_traits@D@std@@V?$allocator@D@2@@std@@PAX@std@@@1@PAU?$_Tree_node@V?$basic_string@DU?$char_traits@D@std@@V?$allocator@D@2@@std@@PAX@1@@Z 1009b050 f i CPlugin.obj
 0002:000240f0       ??$_Find@D@?$_Tree@V?$_Tset_traits@DU?$less@D@std@@V?$allocator@D@2@$0A@@std@@@std@@ABEPAU?$_Tree_node@DPAX@1@ABD@Z 1009b0f0 f i CPlugin.obj
 0002:000241c0       ??$_Find@G@?$_Hash@V?$_Umap_traits@GKV?$_Uhash_compare@GU?$hash@G@std@@U?$equal_to@G@2@@std@@V?$allocator@U?$pair@$$CBGK@std@@@2@$0A@@std@@@std@@ABEPAU?$_List_node@U?$pair@$$CBGK@std@@PAX@1@ABGI@Z 1009b1c0 f i CPlugin.obj
 0002:00024250       ??$_Find@G@?$_Hash@V?$_Umap_traits@GVCVector@@V?$_Uhash_compare@GU?$hash@G@std@@U?$equal_to@G@2@@std@@V?$allocator@U?$pair@$$CBGVCVector@@@std@@@3@$0A@@std@@@std@@ABEPAU?$_List_node@U?$pair@$$CBGVCVector@@@std@@PAX@1@ABGI@Z 1009b250 f i CPlugin.obj
 0002:000242e0       ??$_Find@G@?$_Tree@V?$_Tset_traits@GU?$less@G@std@@V?$allocator@G@2@$0A@@std@@@std@@ABEPAU?$_Tree_node@GPAX@1@ABG@Z 1009b2e0 f i CPlugin.obj
 0002:000243b0       ??$_Find@I@?$_Hash@V?$_Umap_traits@IVCPlayerData@@V?$_Uhash_compare@IU?$hash@I@std@@U?$equal_to@I@2@@std@@V?$allocator@U?$pair@$$CBIVCPlayerData@@@std@@@3@$0A@@std@@@std@@ABEPAU?$_List_node@U?$pair@$$CBIVCPlayerData@@@std@@PAX@1@ABII@Z 1009b3b0 f i CPlugin.obj
 0002:00024440       ??$_Find_hint@D@?$_Tree@V?$_Tset_traits@DU?$less@D@std@@V?$allocator@D@2@$0A@@std@@@std@@IBE?AU?$_Tree_find_hint_result@PAU?$_Tree_node@DPAX@std@@@1@QAU?$_Tree_node@DPAX@1@ABD@Z 1009b440 f i CPlugin.obj
 0002:00024870       ??$_Find_last@G@?$_Hash@V?$_Umap_traits@GKV?$_Uhash_compare@GU?$hash@G@std@@U?$equal_to@G@2@@std@@V?$allocator@U?$pair@$$CBGK@std@@@2@$0A@@std@@@std@@IBE?AU?$_Hash_find_last_result@PAU?$_List_node@U?$pair@$$CBGK@std@@PAX@std@@@1@ABGI@Z 1009b870 f i CPlugin.obj
 0002:000249b0       ??$_Find_last@G@?$_Hash@V?$_Umap_traits@GVCVector@@V?$_Uhash_compare@GU?$hash@G@std@@U?$equal_to@G@2@@std@@V?$allocator@U?$pair@$$CBGVCVector@@@std@@@3@$0A@@std@@@std@@IBE?AU?$_Hash_find_last_result@PAU?$_List_node@U?$pair@$$CBGVCVector@@@std@@PAX@std@@@1@ABGI@Z 1009b9b0 f i CPlugin.obj
 0002:00024af0       ??$_Find_last@I@?$_Hash@V?$_Umap_traits@IVCPlayerData@@V?$_Uhash_compare@IU?$hash@I@std@@U?$equal_to@I@2@@std@@V?$allocator@U?$pair@$$CBIVCPlayerData@@@std@@@3@$0A@@std@@@std@@IBE?AU?$_Hash_find_last_result@PAU?$_List_node@U?$pair@$$CBIVCPlayerData@@@std@@PAX@std@@@1@ABII@Z 1009baf0 f i CPlugin.obj
 0002:00024c30       ??$_Find_lower_bound@D@?$_Tree@V?$_Tset_traits@DU?$less@D@std@@V?$allocator@D@2@$0A@@std@@@std@@IBE?AU?$_Tree_find_result@PAU?$_Tree_node@DPAX@std@@@1@ABD@Z 1009bc30 f i CPlugin.obj
 0002:00024d90       ??$_Find_lower_bound@G@?$_Tree@V?$_Tset_traits@GU?$less@G@std@@V?$allocator@G@2@$0A@@std@@@std@@IBE?AU?$_Tree_find_result@PAU?$_Tree_node@GPAX@std@@@1@ABG@Z 1009bd90 f i CPlugin.obj
 0002:00024ef0       ??$_Find_unchecked1@PAV?$basic_string@DU?$char_traits@D@std@@V?$allocator@D@2@@std@@V12@@std@@YAPAV?$basic_string@DU?$char_traits@D@std@@V?$allocator@D@2@@0@PAV10@QAV10@ABV10@U?$integral_constant@_N$0A@@0@@Z 1009bef0 f i CPlugin.obj
 0002:00024f70       ??$_Find_unchecked@PAV?$basic_string@DU?$char_traits@D@std@@V?$allocator@D@2@@std@@V12@@std@@YAPAV?$basic_string@DU?$char_traits@D@std@@V?$allocator@D@2@@0@QAV10@0ABV10@@Z 1009bf70 f i CPlugin.obj
 0002:00024ff0       ??$_Fnv1a_append_value@G@std@@YAIIABG@Z 1009bff0 f i CPlugin.obj
 0002:00025050       ??$_Fnv1a_append_value@I@std@@YAIIABI@Z 1009c050 f i CPlugin.obj
 0002:000250b0       ??$_Free_non_head@V?$allocator@U?$_List_node@U?$pair@$$CBGK@std@@PAX@std@@@std@@@?$_List_node@U?$pair@$$CBGK@std@@PAX@std@@SAXAAV?$allocator@U?$_List_node@U?$pair@$$CBGK@std@@PAX@std@@@1@PAU01@@Z 1009c0b0 f i CPlugin.obj
 0002:00025150       ??$_Free_non_head@V?$allocator@U?$_List_node@U?$pair@$$CBGVCVector@@@std@@PAX@std@@@std@@@?$_List_node@U?$pair@$$CBGVCVector@@@std@@PAX@std@@SAXAAV?$allocator@U?$_List_node@U?$pair@$$CBGVCVector@@@std@@PAX@std@@@1@PAU01@@Z 1009c150 f i CPlugin.obj
 0002:000251f0       ??$_Free_non_head@V?$allocator@U?$_List_node@U?$pair@$$CBIVCPlayerData@@@std@@PAX@std@@@std@@@?$_List_node@U?$pair@$$CBIVCPlayerData@@@std@@PAX@std@@SAXAAV?$allocator@U?$_List_node@U?$pair@$$CBIVCPlayerData@@@std@@PAX@std@@@1@PAU01@@Z 1009c1f0 f i CPlugin.obj
 0002:00025290       ??$_Freenode0@V?$allocator@U?$_List_node@U?$pair@$$CBGK@std@@PAX@std@@@std@@@?$_List_node@U?$pair@$$CBGK@std@@PAX@std@@SAXAAV?$allocator@U?$_List_node@U?$pair@$$CBGK@std@@PAX@std@@@1@PAU01@@Z 1009c290 f i CPlugin.obj
 0002:00025350       ??$_Freenode0@V?$allocator@U?$_List_node@U?$pair@$$CBGVCVector@@@std@@PAX@std@@@std@@@?$_List_node@U?$pair@$$CBGVCVector@@@std@@PAX@std@@SAXAAV?$allocator@U?$_List_node@U?$pair@$$CBGVCVector@@@std@@PAX@std@@@1@PAU01@@Z 1009c350 f i CPlugin.obj
 0002:00025410       ??$_Freenode0@V?$allocator@U?$_List_node@U?$pair@$$CBIVCPlayerData@@@std@@PAX@std@@@std@@@?$_List_node@U?$pair@$$CBIVCPlayerData@@@std@@PAX@std@@SAXAAV?$allocator@U?$_List_node@U?$pair@$$CBIVCPlayerData@@@std@@PAX@std@@@1@PAU01@@Z 1009c410 f i CPlugin.obj
 0002:000254d0       ??$_Freenode0@V?$allocator@U?$_Tree_node@DPAX@std@@@std@@@?$_Tree_node@DPAX@std@@SAXAAV?$allocator@U?$_Tree_node@DPAX@std@@@1@PAU01@@Z 1009c4d0 f i CPlugin.obj
 0002:000255a0       ??$_Freenode0@V?$allocator@U?$_Tree_node@GPAX@std@@@std@@@?$_Tree_node@GPAX@std@@SAXAAV?$allocator@U?$_Tree_node@GPAX@std@@@1@PAU01@@Z 1009c5a0 f i CPlugin.obj
 0002:00025670       ??$_Freenode0@V?$allocator@U?$_Tree_node@V?$basic_string@DU?$char_traits@D@std@@V?$allocator@D@2@@std@@PAX@std@@@std@@@?$_Tree_node@V?$basic_string@DU?$char_traits@D@std@@V?$allocator@D@2@@std@@PAX@std@@SAXAAV?$allocator@U?$_Tree_node@V?$basic_string@DU?$char_traits@D@std@@V?$allocator@D@2@@std@@PAX@std@@@1@PAU01@@Z 1009c670 f i CPlugin.obj
 0002:00025740       ??$_Freenode@V?$allocator@U?$_List_node@U?$pair@$$CBGK@std@@PAX@std@@@std@@@?$_List_node@U?$pair@$$CBGK@std@@PAX@std@@SAXAAV?$allocator@U?$_List_node@U?$pair@$$CBGK@std@@PAX@std@@@1@PAU01@@Z 1009c740 f i CPlugin.obj
 0002:00025800       ??$_Freenode@V?$allocator@U?$_List_node@U?$pair@$$CBGVCVector@@@std@@PAX@std@@@std@@@?$_List_node@U?$pair@$$CBGVCVector@@@std@@PAX@std@@SAXAAV?$allocator@U?$_List_node@U?$pair@$$CBGVCVector@@@std@@PAX@std@@@1@PAU01@@Z 1009c800 f i CPlugin.obj
 0002:000258c0       ??$_Freenode@V?$allocator@U?$_List_node@U?$pair@$$CBIVCPlayerData@@@std@@PAX@std@@@std@@@?$_List_node@U?$pair@$$CBIVCPlayerData@@@std@@PAX@std@@SAXAAV?$allocator@U?$_List_node@U?$pair@$$CBIVCPlayerData@@@std@@PAX@std@@@1@PAU01@@Z 1009c8c0 f i CPlugin.obj
 0002:00025980       ??$_Freenode@V?$allocator@U?$_Tree_node@DPAX@std@@@std@@@?$_Tree_node@DPAX@std@@SAXAAV?$allocator@U?$_Tree_node@DPAX@std@@@1@PAU01@@Z 1009c980 f i CPlugin.obj
 0002:00025a40       ??$_Freenode@V?$allocator@U?$_Tree_node@GPAX@std@@@std@@@?$_Tree_node@GPAX@std@@SAXAAV?$allocator@U?$_Tree_node@GPAX@std@@@1@PAU01@@Z 1009ca40 f i CPlugin.obj
 0002:00025b00       ??$_Freenode@V?$allocator@U?$_Tree_node@V?$basic_string@DU?$char_traits@D@std@@V?$allocator@D@2@@std@@PAX@std@@@std@@@?$_Tree_node@V?$basic_string@DU?$char_traits@D@std@@V?$allocator@D@2@@std@@PAX@std@@SAXAAV?$allocator@U?$_Tree_node@V?$basic_string@DU?$char_traits@D@std@@V?$allocator@D@2@@std@@PAX@std@@@1@PAU01@@Z 1009cb00 f i CPlugin.obj
 0002:00025bc0       ??$_Get_size_of_n@$00@std@@YAII@Z 1009cbc0 f i CPlugin.obj
 0002:00025c10       ??$_Get_size_of_n@$03@std@@YAII@Z 1009cc10 f i CPlugin.obj
 0002:00025c80       ??$_Get_size_of_n@$07@std@@YAII@Z 1009cc80 f i CPlugin.obj
 0002:00025cf0       ??$_Get_size_of_n@$0BA@@std@@YAII@Z 1009ccf0 f i CPlugin.obj
 0002:00025d60       ??$_Get_size_of_n@$0BI@@std@@YAII@Z 1009cd60 f i CPlugin.obj
 0002:00025dd0       ??$_Get_size_of_n@$0BM@@std@@YAII@Z 1009cdd0 f i CPlugin.obj
 0002:00025e40       ??$_Get_size_of_n@$0CM@@std@@YAII@Z 1009ce40 f i CPlugin.obj
 0002:00025eb0       ??$_Get_size_of_n@$0LECI@@std@@YAII@Z 1009ceb0 f i CPlugin.obj
 0002:00025f20       ??$_Get_unwrapped@AAPBD@std@@YA?A_TAAPBD@Z 1009cf20 f i CPlugin.obj
 0002:00025f70       ??$_Get_unwrapped@AAV?$_Tree_unchecked_const_iterator@V?$_Tree_val@U?$_Tree_simple_types@D@std@@@std@@U_Iterator_base0@2@@std@@@std@@YA?A_TAAV?$_Tree_unchecked_const_iterator@V?$_Tree_val@U?$_Tree_simple_types@D@std@@@std@@U_Iterator_base0@2@@0@@Z 1009cf70 f i CPlugin.obj
 0002:00025fc0       ??$_Get_unwrapped@AAV?$_Tree_unchecked_const_iterator@V?$_Tree_val@U?$_Tree_simple_types@G@std@@@std@@U_Iterator_base0@2@@std@@@std@@YA?A_TAAV?$_Tree_unchecked_const_iterator@V?$_Tree_val@U?$_Tree_simple_types@G@std@@@std@@U_Iterator_base0@2@@0@@Z 1009cfc0 f i CPlugin.obj
 0002:00026010       ??$_Get_unwrapped@AAV?$_Vector_iterator@V?$_Vector_val@U?$_Simple_types@V?$basic_string@DU?$char_traits@D@std@@V?$allocator@D@2@@std@@@std@@@std@@@std@@@std@@YA?A_TAAV?$_Vector_iterator@V?$_Vector_val@U?$_Simple_types@V?$basic_string@DU?$char_traits@D@std@@V?$allocator@D@2@@std@@@std@@@std@@@0@@Z 1009d010 f i CPlugin.obj
 0002:00026060       ??$_Get_unwrapped@ABQAV?$_List_unchecked_iterator@V?$_List_val@U?$_List_simple_types@U?$pair@$$CBGK@std@@@std@@@std@@@std@@@std@@YA?A_TABQAV?$_List_unchecked_iterator@V?$_List_val@U?$_List_simple_types@U?$pair@$$CBGK@std@@@std@@@std@@@0@@Z 1009d060 f i CPlugin.obj
 0002:000260b0       ??$_Get_unwrapped@ABQAV?$_List_unchecked_iterator@V?$_List_val@U?$_List_simple_types@U?$pair@$$CBGVCVector@@@std@@@std@@@std@@@std@@@std@@YA?A_TABQAV?$_List_unchecked_iterator@V?$_List_val@U?$_List_simple_types@U?$pair@$$CBGVCVector@@@std@@@std@@@std@@@0@@Z 1009d0b0 f i CPlugin.obj
 0002:00026100       ??$_Get_unwrapped@ABQAV?$_List_unchecked_iterator@V?$_List_val@U?$_List_simple_types@U?$pair@$$CBIVCPlayerData@@@std@@@std@@@std@@@std@@@std@@YA?A_TABQAV?$_List_unchecked_iterator@V?$_List_val@U?$_List_simple_types@U?$pair@$$CBIVCPlayerData@@@std@@@std@@@std@@@0@@Z 1009d100 f i CPlugin.obj
 0002:00026150       ??$_Get_unwrapped@ABQAV?$basic_string@DU?$char_traits@D@std@@V?$allocator@D@2@@std@@@std@@YA?A_TABQAV?$basic_string@DU?$char_traits@D@std@@V?$allocator@D@2@@0@@Z 1009d150 f i CPlugin.obj
 0002:000261a0       ??$_Get_unwrapped@ABV?$_Vector_iterator@V?$_Vector_val@U?$_Simple_types@V?$basic_string@DU?$char_traits@D@std@@V?$allocator@D@2@@std@@@std@@@std@@@std@@@std@@YA?A_TABV?$_Vector_iterator@V?$_Vector_val@U?$_Simple_types@V?$basic_string@DU?$char_traits@D@std@@V?$allocator@D@2@@std@@@std@@@std@@@0@@Z 1009d1a0 f i CPlugin.obj
 0002:000261f0       ??$_Hash_representation@G@std@@YAIABG@Z 1009d1f0 f i CPlugin.obj
 0002:00026250       ??$_Hash_representation@I@std@@YAIABI@Z 1009d250 f i CPlugin.obj
 0002:000262b0       ??$_Kfn@$$CBGK@?$_Umap_traits@GKV?$_Uhash_compare@GU?$hash@G@std@@U?$equal_to@G@2@@std@@V?$allocator@U?$pair@$$CBGK@std@@@2@$0A@@std@@SAABGABU?$pair@$$CBGK@1@@Z 1009d2b0 f i CPlugin.obj
 0002:00026300       ??$_Kfn@$$CBGVCVector@@@?$_Umap_traits@GVCVector@@V?$_Uhash_compare@GU?$hash@G@std@@U?$equal_to@G@2@@std@@V?$allocator@U?$pair@$$CBGVCVector@@@std@@@3@$0A@@std@@SAABGABU?$pair@$$CBGVCVector@@@1@@Z 1009d300 f i CPlugin.obj
 0002:00026350       ??$_Kfn@$$CBIVCPlayerData@@@?$_Umap_traits@IVCPlayerData@@V?$_Uhash_compare@IU?$hash@I@std@@U?$equal_to@I@2@@std@@V?$allocator@U?$pair@$$CBIVCPlayerData@@@std@@@3@$0A@@std@@SAABIABU?$pair@$$CBIVCPlayerData@@@1@@Z 1009d350 f i CPlugin.obj
 0002:000263a0       ??$_Lower_bound_duplicate@D@?$_Tree@V?$_Tset_traits@DU?$less@D@std@@V?$allocator@D@2@$0A@@std@@@std@@IBE_NQAU?$_Tree_node@DPAX@1@ABD@Z 1009d3a0 f i CPlugin.obj
 0002:00026460       ??$_Lower_bound_duplicate@G@?$_Tree@V?$_Tset_traits@GU?$less@G@std@@V?$allocator@G@2@$0A@@std@@@std@@IBE_NQAU?$_Tree_node@GPAX@1@ABG@Z 1009d460 f i CPlugin.obj
 0002:00026520       ??$_Reallocate_for@V<lambda_9366063389c5f42a00a5088cf24e69de>@@PBD@?$basic_string@DU?$char_traits@D@std@@V?$allocator@D@2@@std@@AAEAAV01@IV<lambda_9366063389c5f42a00a5088cf24e69de>@@PBD@Z 1009d520 f i CPlugin.obj
 0002:000266a0       ??$_Reallocate_grow_by@V<lambda_ab246b20b9526e2ef7792587e4298a77>@@PBDI@?$basic_string@DU?$char_traits@D@std@@V?$allocator@D@2@@std@@AAEAAV01@IV<lambda_ab246b20b9526e2ef7792587e4298a77>@@PBDI@Z 1009d6a0 f i CPlugin.obj
 0002:00026890       ??$_Refancy@PAV?$basic_string@DU?$char_traits@D@std@@V?$allocator@D@2@@std@@$0A@@std@@YAPAV?$basic_string@DU?$char_traits@D@std@@V?$allocator@D@2@@0@PAV10@@Z 1009d890 f i CPlugin.obj
 0002:000268e0       ??$_Seek_wrapped@V?$_Vector_iterator@V?$_Vector_val@U?$_Simple_types@V?$basic_string@DU?$char_traits@D@std@@V?$allocator@D@2@@std@@@std@@@std@@@std@@PAV?$basic_string@DU?$char_traits@D@std@@V?$allocator@D@2@@2@@std@@YAXAAV?$_Vector_iterator@V?$_Vector_val@U?$_Simple_types@V?$basic_string@DU?$char_traits@D@std@@V?$allocator@D@2@@std@@@std@@@std@@@0@$$QAPAV?$basic_string@DU?$char_traits@D@std@@V?$allocator@D@2@@0@@Z 1009d8e0 f i CPlugin.obj
 0002:00026940       ??$_Traits_equal@U?$char_traits@D@std@@@std@@YA_NQBDI0I@Z 1009d940 f i CPlugin.obj
 0002:000269e0       ??$_Try_emplace@ABG$$V@?$_Hash@V?$_Umap_traits@GVCVector@@V?$_Uhash_compare@GU?$hash@G@std@@U?$equal_to@G@2@@std@@V?$allocator@U?$pair@$$CBGVCVector@@@std@@@3@$0A@@std@@@std@@IAE?AU?$pair@PAU?$_List_node@U?$pair@$$CBGVCVector@@@std@@PAX@std@@_N@1@ABG@Z 1009d9e0 f i CPlugin.obj
 0002:00026c50       ??$_Tuple_get@$0A@ABG@std@@YA$$QA_P$$QAV?$tuple@ABG@0@@Z 1009dc50 f i CPlugin.obj
 0002:00026ca0       ??$_Unfancy@USysExec_t@CPlugin@@@std@@YAPAUSysExec_t@CPlugin@@PAU12@@Z 1009dca0 f i CPlugin.obj
 0002:00026cf0       ??$_Unfancy@U_Container_proxy@std@@@std@@YAPAU_Container_proxy@0@PAU10@@Z 1009dcf0 f i CPlugin.obj
 0002:00026d40       ??$_Unfancy@V?$basic_string@DU?$char_traits@D@std@@V?$allocator@D@2@@std@@@std@@YAPAV?$basic_string@DU?$char_traits@D@std@@V?$allocator@D@2@@0@PAV10@@Z 1009dd40 f i CPlugin.obj
 0002:00026d90       ??$_Uninitialized_move@PAV?$basic_string@DU?$char_traits@D@std@@V?$allocator@D@2@@std@@V?$allocator@V?$basic_string@DU?$char_traits@D@std@@V?$allocator@D@2@@std@@@2@@std@@YAPAV?$basic_string@DU?$char_traits@D@std@@V?$allocator@D@2@@0@QAV10@0PAV10@AAV?$allocator@V?$basic_string@DU?$char_traits@D@std@@V?$allocator@D@2@@std@@@0@@Z 1009dd90 f i CPlugin.obj
 0002:00026ef0       ??$_Verify_range@D@std@@YAXQBD0@Z 1009def0 f i CPlugin.obj
 0002:00026fc0       ??$_Verify_range@V?$_List_unchecked_iterator@V?$_List_val@U?$_List_simple_types@U?$pair@$$CBGK@std@@@std@@@std@@@std@@@std@@YAXQBV?$_List_unchecked_iterator@V?$_List_val@U?$_List_simple_types@U?$pair@$$CBGK@std@@@std@@@std@@@0@0@Z 1009dfc0 f i CPlugin.obj
 0002:00027090       ??$_Verify_range@V?$_List_unchecked_iterator@V?$_List_val@U?$_List_simple_types@U?$pair@$$CBGVCVector@@@std@@@std@@@std@@@std@@@std@@YAXQBV?$_List_unchecked_iterator@V?$_List_val@U?$_List_simple_types@U?$pair@$$CBGVCVector@@@std@@@std@@@std@@@0@0@Z 1009e090 f i CPlugin.obj
 0002:00027160       ??$_Verify_range@V?$_List_unchecked_iterator@V?$_List_val@U?$_List_simple_types@U?$pair@$$CBIVCPlayerData@@@std@@@std@@@std@@@std@@@std@@YAXQBV?$_List_unchecked_iterator@V?$_List_val@U?$_List_simple_types@U?$pair@$$CBIVCPlayerData@@@std@@@std@@@std@@@0@0@Z 1009e160 f i CPlugin.obj
 0002:00027230       ??$_Voidify_iter@PAD@std@@YAPAXPAD@Z 1009e230 f i CPlugin.obj
 0002:00027280       ??$_Voidify_iter@PAG@std@@YAPAXPAG@Z 1009e280 f i CPlugin.obj
 0002:000272d0       ??$_Voidify_iter@PAPAD@std@@YAPAXPAPAD@Z 1009e2d0 f i CPlugin.obj
 0002:00027320       ??$_Voidify_iter@PAPAU?$_List_node@U?$pair@$$CBGK@std@@PAX@std@@@std@@YAPAXPAPAU?$_List_node@U?$pair@$$CBGK@std@@PAX@0@@Z 1009e320 f i CPlugin.obj
 0002:00027370       ??$_Voidify_iter@PAPAU?$_List_node@U?$pair@$$CBGVCVector@@@std@@PAX@std@@@std@@YAPAXPAPAU?$_List_node@U?$pair@$$CBGVCVector@@@std@@PAX@0@@Z 1009e370 f i CPlugin.obj
 0002:000273c0       ??$_Voidify_iter@PAPAU?$_List_node@U?$pair@$$CBIVCPlayerData@@@std@@PAX@std@@@std@@YAPAXPAPAU?$_List_node@U?$pair@$$CBIVCPlayerData@@@std@@PAX@0@@Z 1009e3c0 f i CPlugin.obj
 0002:00027410       ??$_Voidify_iter@PAPAU?$_Tree_node@DPAX@std@@@std@@YAPAXPAPAU?$_Tree_node@DPAX@0@@Z 1009e410 f i CPlugin.obj
 0002:00027460       ??$_Voidify_iter@PAPAU?$_Tree_node@GPAX@std@@@std@@YAPAXPAPAU?$_Tree_node@GPAX@0@@Z 1009e460 f i CPlugin.obj
 0002:000274b0       ??$_Voidify_iter@PAPAU?$_Tree_node@V?$basic_string@DU?$char_traits@D@std@@V?$allocator@D@2@@std@@PAX@std@@@std@@YAPAXPAPAU?$_Tree_node@V?$basic_string@DU?$char_traits@D@std@@V?$allocator@D@2@@std@@PAX@0@@Z 1009e4b0 f i CPlugin.obj
 0002:00027500       ??$_Voidify_iter@PAU?$pair@$$CBGK@std@@@std@@YAPAXPAU?$pair@$$CBGK@0@@Z 1009e500 f i CPlugin.obj
 0002:00027550       ??$_Voidify_iter@PAU?$pair@$$CBGVCVector@@@std@@@std@@YAPAXPAU?$pair@$$CBGVCVector@@@0@@Z 1009e550 f i CPlugin.obj
 0002:000275a0       ??$_Voidify_iter@PAU?$pair@$$CBIVCPlayerData@@@std@@@std@@YAPAXPAU?$pair@$$CBIVCPlayerData@@@0@@Z 1009e5a0 f i CPlugin.obj
 0002:000275f0       ??$_Voidify_iter@PAU_Container_proxy@std@@@std@@YAPAXPAU_Container_proxy@0@@Z 1009e5f0 f i CPlugin.obj
 0002:00027640       ??$_Voidify_iter@PAV?$_List_unchecked_iterator@V?$_List_val@U?$_List_simple_types@U?$pair@$$CBGK@std@@@std@@@std@@@std@@@std@@YAPAXPAV?$_List_unchecked_iterator@V?$_List_val@U?$_List_simple_types@U?$pair@$$CBGK@std@@@std@@@std@@@0@@Z 1009e640 f i CPlugin.obj
 0002:00027690       ??$_Voidify_iter@PAV?$_List_unchecked_iterator@V?$_List_val@U?$_List_simple_types@U?$pair@$$CBGVCVector@@@std@@@std@@@std@@@std@@@std@@YAPAXPAV?$_List_unchecked_iterator@V?$_List_val@U?$_List_simple_types@U?$pair@$$CBGVCVector@@@std@@@std@@@std@@@0@@Z 1009e690 f i CPlugin.obj
 0002:000276e0       ??$_Voidify_iter@PAV?$_List_unchecked_iterator@V?$_List_val@U?$_List_simple_types@U?$pair@$$CBIVCPlayerData@@@std@@@std@@@std@@@std@@@std@@YAPAXPAV?$_List_unchecked_iterator@V?$_List_val@U?$_List_simple_types@U?$pair@$$CBIVCPlayerData@@@std@@@std@@@std@@@0@@Z 1009e6e0 f i CPlugin.obj
 0002:00027730       ??$_Voidify_iter@PAV?$basic_string@DU?$char_traits@D@std@@V?$allocator@D@2@@std@@@std@@YAPAXPAV?$basic_string@DU?$char_traits@D@std@@V?$allocator@D@2@@0@@Z 1009e730 f i CPlugin.obj
 0002:00027780       ??$addressof@$$CBV?$_List_val@U?$_List_simple_types@U?$pair@$$CBGK@std@@@std@@@std@@@std@@YAPBV?$_List_val@U?$_List_simple_types@U?$pair@$$CBGK@std@@@std@@@0@ABV10@@Z 1009e780 f i CPlugin.obj
 0002:000277d0       ??$addressof@$$CBV?$_List_val@U?$_List_simple_types@U?$pair@$$CBGVCVector@@@std@@@std@@@std@@@std@@YAPBV?$_List_val@U?$_List_simple_types@U?$pair@$$CBGVCVector@@@std@@@std@@@0@ABV10@@Z 1009e7d0 f i CPlugin.obj
 0002:00027820       ??$addressof@$$CBV?$_List_val@U?$_List_simple_types@U?$pair@$$CBIVCPlayerData@@@std@@@std@@@std@@@std@@YAPBV?$_List_val@U?$_List_simple_types@U?$pair@$$CBIVCPlayerData@@@std@@@std@@@0@ABV10@@Z 1009e820 f i CPlugin.obj
 0002:00027870       ??$addressof@$$CBV?$_Tree_val@U?$_Tree_simple_types@D@std@@@std@@@std@@YAPBV?$_Tree_val@U?$_Tree_simple_types@D@std@@@0@ABV10@@Z 1009e870 f i CPlugin.obj
 0002:000278c0       ??$addressof@$$CBV?$_Tree_val@U?$_Tree_simple_types@G@std@@@std@@@std@@YAPBV?$_Tree_val@U?$_Tree_simple_types@G@std@@@0@ABV10@@Z 1009e8c0 f i CPlugin.obj
 0002:00027910       ??$addressof@D@std@@YAPADAAD@Z 1009e910 f i CPlugin.obj
 0002:00027960       ??$addressof@G@std@@YAPAGAAG@Z 1009e960 f i CPlugin.obj
 0002:000279b0       ??$addressof@PAD@std@@YAPAPADAAPAD@Z 1009e9b0 f i CPlugin.obj
 0002:00027a00       ??$addressof@PAU?$_List_node@U?$pair@$$CBGK@std@@PAX@std@@@std@@YAPAPAU?$_List_node@U?$pair@$$CBGK@std@@PAX@0@AAPAU10@@Z 1009ea00 f i CPlugin.obj
 0002:00027a50       ??$addressof@PAU?$_List_node@U?$pair@$$CBGVCVector@@@std@@PAX@std@@@std@@YAPAPAU?$_List_node@U?$pair@$$CBGVCVector@@@std@@PAX@0@AAPAU10@@Z 1009ea50 f i CPlugin.obj
 0002:00027aa0       ??$addressof@PAU?$_List_node@U?$pair@$$CBIVCPlayerData@@@std@@PAX@std@@@std@@YAPAPAU?$_List_node@U?$pair@$$CBIVCPlayerData@@@std@@PAX@0@AAPAU10@@Z 1009eaa0 f i CPlugin.obj
 0002:00027af0       ??$addressof@PAU?$_Tree_node@DPAX@std@@@std@@YAPAPAU?$_Tree_node@DPAX@0@AAPAU10@@Z 1009eaf0 f i CPlugin.obj
 0002:00027b40       ??$addressof@PAU?$_Tree_node@GPAX@std@@@std@@YAPAPAU?$_Tree_node@GPAX@0@AAPAU10@@Z 1009eb40 f i CPlugin.obj
 0002:00027b90       ??$addressof@PAU?$_Tree_node@V?$basic_string@DU?$char_traits@D@std@@V?$allocator@D@2@@std@@PAX@std@@@std@@YAPAPAU?$_Tree_node@V?$basic_string@DU?$char_traits@D@std@@V?$allocator@D@2@@std@@PAX@0@AAPAU10@@Z 1009eb90 f i CPlugin.obj
 0002:00027be0       ??$addressof@U?$pair@$$CBGK@std@@@std@@YAPAU?$pair@$$CBGK@0@AAU10@@Z 1009ebe0 f i CPlugin.obj
 0002:00027c30       ??$addressof@U?$pair@$$CBGVCVector@@@std@@@std@@YAPAU?$pair@$$CBGVCVector@@@0@AAU10@@Z 1009ec30 f i CPlugin.obj
 0002:00027c80       ??$addressof@U?$pair@$$CBIVCPlayerData@@@std@@@std@@YAPAU?$pair@$$CBIVCPlayerData@@@0@AAU10@@Z 1009ec80 f i CPlugin.obj
 0002:00027cd0       ??$addressof@U_Container_base12@std@@@std@@YAPAU_Container_base12@0@AAU10@@Z 1009ecd0 f i CPlugin.obj
 0002:00027d20       ??$addressof@U_Container_proxy@std@@@std@@YAPAU_Container_proxy@0@AAU10@@Z 1009ed20 f i CPlugin.obj
 0002:00027d70       ??$addressof@V?$_Deque_val@U?$_Deque_simple_types@USysExec_t@CPlugin@@@std@@@std@@@std@@YAPAV?$_Deque_val@U?$_Deque_simple_types@USysExec_t@CPlugin@@@std@@@0@AAV10@@Z 1009ed70 f i CPlugin.obj
 0002:00027dc0       ??$addressof@V?$_List_unchecked_iterator@V?$_List_val@U?$_List_simple_types@U?$pair@$$CBGK@std@@@std@@@std@@@std@@@std@@YAPAV?$_List_unchecked_iterator@V?$_List_val@U?$_List_simple_types@U?$pair@$$CBGK@std@@@std@@@std@@@0@AAV10@@Z 1009edc0 f i CPlugin.obj
 0002:00027e10       ??$addressof@V?$_List_unchecked_iterator@V?$_List_val@U?$_List_simple_types@U?$pair@$$CBGVCVector@@@std@@@std@@@std@@@std@@@std@@YAPAV?$_List_unchecked_iterator@V?$_List_val@U?$_List_simple_types@U?$pair@$$CBGVCVector@@@std@@@std@@@std@@@0@AAV10@@Z 1009ee10 f i CPlugin.obj
 0002:00027e60       ??$addressof@V?$_List_unchecked_iterator@V?$_List_val@U?$_List_simple_types@U?$pair@$$CBIVCPlayerData@@@std@@@std@@@std@@@std@@@std@@YAPAV?$_List_unchecked_iterator@V?$_List_val@U?$_List_simple_types@U?$pair@$$CBIVCPlayerData@@@std@@@std@@@std@@@0@AAV10@@Z 1009ee60 f i CPlugin.obj
 0002:00027eb0       ??$addressof@V?$_List_val@U?$_List_simple_types@U?$pair@$$CBGK@std@@@std@@@std@@@std@@YAPAV?$_List_val@U?$_List_simple_types@U?$pair@$$CBGK@std@@@std@@@0@AAV10@@Z 1009eeb0 f i CPlugin.obj
 0002:00027f00       ??$addressof@V?$_List_val@U?$_List_simple_types@U?$pair@$$CBGVCVector@@@std@@@std@@@std@@@std@@YAPAV?$_List_val@U?$_List_simple_types@U?$pair@$$CBGVCVector@@@std@@@std@@@0@AAV10@@Z 1009ef00 f i CPlugin.obj
 0002:00027f50       ??$addressof@V?$_List_val@U?$_List_simple_types@U?$pair@$$CBIVCPlayerData@@@std@@@std@@@std@@@std@@YAPAV?$_List_val@U?$_List_simple_types@U?$pair@$$CBIVCPlayerData@@@std@@@std@@@0@AAV10@@Z 1009ef50 f i CPlugin.obj
 0002:00027fa0       ??$addressof@V?$_String_val@U?$_Simple_types@D@std@@@std@@@std@@YAPAV?$_String_val@U?$_Simple_types@D@std@@@0@AAV10@@Z 1009efa0 f i CPlugin.obj
 0002:00027ff0       ??$addressof@V?$_Tree_val@U?$_Tree_simple_types@D@std@@@std@@@std@@YAPAV?$_Tree_val@U?$_Tree_simple_types@D@std@@@0@AAV10@@Z 1009eff0 f i CPlugin.obj
 0002:00028040       ??$addressof@V?$_Tree_val@U?$_Tree_simple_types@G@std@@@std@@@std@@YAPAV?$_Tree_val@U?$_Tree_simple_types@G@std@@@0@AAV10@@Z 1009f040 f i CPlugin.obj
 0002:00028090       ??$addressof@V?$_Tree_val@U?$_Tree_simple_types@V?$basic_string@DU?$char_traits@D@std@@V?$allocator@D@2@@std@@@std@@@std@@@std@@YAPAV?$_Tree_val@U?$_Tree_simple_types@V?$basic_string@DU?$char_traits@D@std@@V?$allocator@D@2@@std@@@std@@@0@AAV10@@Z 1009f090 f i CPlugin.obj
 0002:000280e0       ??$addressof@V?$_Vector_val@U?$_Simple_types@V?$basic_string@DU?$char_traits@D@std@@V?$allocator@D@2@@std@@@std@@@std@@@std@@YAPAV?$_Vector_val@U?$_Simple_types@V?$basic_string@DU?$char_traits@D@std@@V?$allocator@D@2@@std@@@std@@@0@AAV10@@Z 1009f0e0 f i CPlugin.obj
 0002:00028130       ??$addressof@V?$basic_string@DU?$char_traits@D@std@@V?$allocator@D@2@@std@@@std@@YAPAV?$basic_string@DU?$char_traits@D@std@@V?$allocator@D@2@@0@AAV10@@Z 1009f130 f i CPlugin.obj
 0002:00028180       ??$addressof@V?$unique_ptr@VCConfig@@U?$default_delete@VCConfig@@@std@@@std@@@std@@YAPAV?$unique_ptr@VCConfig@@U?$default_delete@VCConfig@@@std@@@0@AAV10@@Z 1009f180 f i CPlugin.obj
 0002:000281d0       ??$addressof@Vmutex@std@@@std@@YAPAVmutex@0@AAV10@@Z 1009f1d0 f i CPlugin.obj
 0002:00028220       ??$construct@DABD@?$_Default_allocator_traits@V?$allocator@U?$_Tree_node@DPAX@std@@@std@@@std@@SAXAAV?$allocator@U?$_Tree_node@DPAX@std@@@1@QADABD@Z 1009f220 f i CPlugin.obj
 0002:000282b0       ??$construct@DD@?$_Default_allocator_traits@V?$allocator@U?$_Tree_node@DPAX@std@@@std@@@std@@SAXAAV?$allocator@U?$_Tree_node@DPAX@std@@@1@QAD$$QAD@Z 1009f2b0 f i CPlugin.obj
 0002:00028340       ??$construct@GABG@?$_Default_allocator_traits@V?$allocator@U?$_Tree_node@GPAX@std@@@std@@@std@@SAXAAV?$allocator@U?$_Tree_node@GPAX@std@@@1@QAGABG@Z 1009f340 f i CPlugin.obj
 0002:000283d0       ??$construct@U?$pair@$$CBGK@std@@AAGAAK@?$_Default_allocator_traits@V?$allocator@U?$_List_node@U?$pair@$$CBGK@std@@PAX@std@@@std@@@std@@SAXAAV?$allocator@U?$_List_node@U?$pair@$$CBGK@std@@PAX@std@@@1@QAU?$pair@$$CBGK@1@AAGAAK@Z 1009f3d0 f i CPlugin.obj
 0002:00028470       ??$construct@U?$pair@$$CBGVCVector@@@std@@ABUpiecewise_construct_t@2@V?$tuple@ABG@2@V?$tuple@$$V@2@@?$_Default_allocator_traits@V?$allocator@U?$_List_node@U?$pair@$$CBGVCVector@@@std@@PAX@std@@@std@@@std@@SAXAAV?$allocator@U?$_List_node@U?$pair@$$CBGVCVector@@@std@@PAX@std@@@1@QAU?$pair@$$CBGVCVector@@@1@ABUpiecewise_construct_t@1@$$QAV?$tuple@ABG@1@$$QAV?$tuple@$$V@1@@Z 1009f470 f i CPlugin.obj
 0002:00028540       ??$construct@U?$pair@$$CBIVCPlayerData@@@std@@AAIAAI@?$_Default_allocator_traits@V?$allocator@U?$_List_node@U?$pair@$$CBIVCPlayerData@@@std@@PAX@std@@@std@@@std@@SAXAAV?$allocator@U?$_List_node@U?$pair@$$CBIVCPlayerData@@@std@@PAX@std@@@1@QAU?$pair@$$CBIVCPlayerData@@@1@AAI2@Z 1009f540 f i CPlugin.obj
 0002:000285e0       ??$construct@V?$basic_string@DU?$char_traits@D@std@@V?$allocator@D@2@@std@@V12@@?$_Default_allocator_traits@V?$allocator@V?$basic_string@DU?$char_traits@D@std@@V?$allocator@D@2@@std@@@std@@@std@@SAXAAV?$allocator@V?$basic_string@DU?$char_traits@D@std@@V?$allocator@D@2@@std@@@1@QAV?$basic_string@DU?$char_traits@D@std@@V?$allocator@D@2@@1@$$QAV31@@Z 1009f5e0 f i CPlugin.obj
 0002:00028670       ??$destroy@D@?$_Default_allocator_traits@V?$allocator@U?$_Tree_node@DPAX@std@@@std@@@std@@SAXAAV?$allocator@U?$_Tree_node@DPAX@std@@@1@QAD@Z 1009f670 f i CPlugin.obj
 0002:000286c0       ??$destroy@G@?$_Default_allocator_traits@V?$allocator@U?$_Tree_node@GPAX@std@@@std@@@std@@SAXAAV?$allocator@U?$_Tree_node@GPAX@std@@@1@QAG@Z 1009f6c0 f i CPlugin.obj
 0002:00028710       ??$destroy@U?$pair@$$CBGK@std@@@?$_Default_allocator_traits@V?$allocator@U?$_List_node@U?$pair@$$CBGK@std@@PAX@std@@@std@@@std@@SAXAAV?$allocator@U?$_List_node@U?$pair@$$CBGK@std@@PAX@std@@@1@QAU?$pair@$$CBGK@1@@Z 1009f710 f i CPlugin.obj
 0002:00028760       ??$destroy@U?$pair@$$CBGVCVector@@@std@@@?$_Default_allocator_traits@V?$allocator@U?$_List_node@U?$pair@$$CBGVCVector@@@std@@PAX@std@@@std@@@std@@SAXAAV?$allocator@U?$_List_node@U?$pair@$$CBGVCVector@@@std@@PAX@std@@@1@QAU?$pair@$$CBGVCVector@@@1@@Z 1009f760 f i CPlugin.obj
 0002:000287b0       ??$destroy@U?$pair@$$CBIVCPlayerData@@@std@@@?$_Default_allocator_traits@V?$allocator@U?$_List_node@U?$pair@$$CBIVCPlayerData@@@std@@PAX@std@@@std@@@std@@SAXAAV?$allocator@U?$_List_node@U?$pair@$$CBIVCPlayerData@@@std@@PAX@std@@@1@QAU?$pair@$$CBIVCPlayerData@@@1@@Z 1009f7b0 f i CPlugin.obj
 0002:00028800       ??$destroy@USysExec_t@CPlugin@@@?$_Default_allocator_traits@V?$allocator@USysExec_t@CPlugin@@@std@@@std@@SAXAAV?$allocator@USysExec_t@CPlugin@@@1@QAUSysExec_t@CPlugin@@@Z 1009f800 f i CPlugin.obj
 0002:00028850       ??$destroy@V?$basic_string@DU?$char_traits@D@std@@V?$allocator@D@2@@std@@@?$_Default_allocator_traits@V?$allocator@U?$_Tree_node@V?$basic_string@DU?$char_traits@D@std@@V?$allocator@D@2@@std@@PAX@std@@@std@@@std@@SAXAAV?$allocator@U?$_Tree_node@V?$basic_string@DU?$char_traits@D@std@@V?$allocator@D@2@@std@@PAX@std@@@1@QAV?$basic_string@DU?$char_traits@D@std@@V?$allocator@D@2@@1@@Z 1009f850 f i CPlugin.obj
 0002:000288a0       ??$destroy@V?$basic_string@DU?$char_traits@D@std@@V?$allocator@D@2@@std@@@?$_Default_allocator_traits@V?$allocator@V?$basic_string@DU?$char_traits@D@std@@V?$allocator@D@2@@std@@@std@@@std@@SAXAAV?$allocator@V?$basic_string@DU?$char_traits@D@std@@V?$allocator@D@2@@std@@@1@QAV?$basic_string@DU?$char_traits@D@std@@V?$allocator@D@2@@1@@Z 1009f8a0 f i CPlugin.obj
 0002:000288f0       ??$distance@V?$_Tree_unchecked_const_iterator@V?$_Tree_val@U?$_Tree_simple_types@D@std@@@std@@U_Iterator_base0@2@@std@@@std@@YAHV?$_Tree_unchecked_const_iterator@V?$_Tree_val@U?$_Tree_simple_types@D@std@@@std@@U_Iterator_base0@2@@0@0@Z 1009f8f0 f i CPlugin.obj
 0002:00028a10       ??$distance@V?$_Tree_unchecked_const_iterator@V?$_Tree_val@U?$_Tree_simple_types@G@std@@@std@@U_Iterator_base0@2@@std@@@std@@YAHV?$_Tree_unchecked_const_iterator@V?$_Tree_val@U?$_Tree_simple_types@G@std@@@std@@U_Iterator_base0@2@@0@0@Z 1009fa10 f i CPlugin.obj
 0002:00028b30       ??$distance@V?$_Vector_iterator@V?$_Vector_val@U?$_Simple_types@V?$basic_string@DU?$char_traits@D@std@@V?$allocator@D@2@@std@@@std@@@std@@@std@@@std@@YAHV?$_Vector_iterator@V?$_Vector_val@U?$_Simple_types@V?$basic_string@DU?$char_traits@D@std@@V?$allocator@D@2@@std@@@std@@@std@@@0@0@Z 1009fb30 f i CPlugin.obj
 0002:00028bc0       ??$emplace@AAGAAK@?$_Hash@V?$_Umap_traits@GKV?$_Uhash_compare@GU?$hash@G@std@@U?$equal_to@G@2@@std@@V?$allocator@U?$pair@$$CBGK@std@@@2@$0A@@std@@@std@@QAE?AU?$pair@V?$_List_iterator@V?$_List_val@U?$_List_simple_types@U?$pair@$$CBGK@std@@@std@@@std@@@std@@_N@1@AAGAAK@Z 1009fbc0 f i CPlugin.obj
 0002:00028ec0       ??$emplace@AAIAAI@?$_Hash@V?$_Umap_traits@IVCPlayerData@@V?$_Uhash_compare@IU?$hash@I@std@@U?$equal_to@I@2@@std@@V?$allocator@U?$pair@$$CBIVCPlayerData@@@std@@@3@$0A@@std@@@std@@QAE?AU?$pair@V?$_List_iterator@V?$_List_val@U?$_List_simple_types@U?$pair@$$CBIVCPlayerData@@@std@@@std@@@std@@@std@@_N@1@AAI0@Z 1009fec0 f i CPlugin.obj
 0002:000291c0       ??$emplace_back@V?$basic_string@DU?$char_traits@D@std@@V?$allocator@D@2@@std@@@?$vector@V?$basic_string@DU?$char_traits@D@std@@V?$allocator@D@2@@std@@V?$allocator@V?$basic_string@DU?$char_traits@D@std@@V?$allocator@D@2@@std@@@2@@std@@QAE?A_T$$QAV?$basic_string@DU?$char_traits@D@std@@V?$allocator@D@2@@1@@Z 100a01c0 f i CPlugin.obj
 0002:00029280       ??$exchange@PAU?$_List_node@U?$pair@$$CBGK@std@@PAX@std@@$$T@std@@YAPAU?$_List_node@U?$pair@$$CBGK@std@@PAX@0@AAPAU10@$$QA$$T@Z 100a0280 f i CPlugin.obj
 0002:000292f0       ??$exchange@PAU?$_List_node@U?$pair@$$CBGVCVector@@@std@@PAX@std@@$$T@std@@YAPAU?$_List_node@U?$pair@$$CBGVCVector@@@std@@PAX@0@AAPAU10@$$QA$$T@Z 100a02f0 f i CPlugin.obj
 0002:00029360       ??$exchange@PAU?$_List_node@U?$pair@$$CBIVCPlayerData@@@std@@PAX@std@@$$T@std@@YAPAU?$_List_node@U?$pair@$$CBIVCPlayerData@@@std@@PAX@0@AAPAU10@$$QA$$T@Z 100a0360 f i CPlugin.obj
 0002:000293d0       ??$exchange@PAU?$_Tree_node@DPAX@std@@$$T@std@@YAPAU?$_Tree_node@DPAX@0@AAPAU10@$$QA$$T@Z 100a03d0 f i CPlugin.obj
 0002:00029440       ??$exchange@PAU?$_Tree_node@DPAX@std@@AAPAU12@@std@@YAPAU?$_Tree_node@DPAX@0@AAPAU10@0@Z 100a0440 f i CPlugin.obj
 0002:000294b0       ??$exchange@PAU?$_Tree_node@GPAX@std@@$$T@std@@YAPAU?$_Tree_node@GPAX@0@AAPAU10@$$QA$$T@Z 100a04b0 f i CPlugin.obj
 0002:00029520       ??$exchange@PAU?$_Tree_node@GPAX@std@@AAPAU12@@std@@YAPAU?$_Tree_node@GPAX@0@AAPAU10@0@Z 100a0520 f i CPlugin.obj
 0002:00029590       ??$exchange@PAU?$_Tree_node@V?$basic_string@DU?$char_traits@D@std@@V?$allocator@D@2@@std@@PAX@std@@AAPAU12@@std@@YAPAU?$_Tree_node@V?$basic_string@DU?$char_traits@D@std@@V?$allocator@D@2@@std@@PAX@0@AAPAU10@0@Z 100a0590 f i CPlugin.obj
 0002:00029600       ??$exchange@PAU_Container_proxy@std@@$$T@std@@YAPAU_Container_proxy@0@AAPAU10@$$QA$$T@Z 100a0600 f i CPlugin.obj
 0002:00029670       ??$exchange@PAVCConfig@@$$T@std@@YAPAVCConfig@@AAPAV1@$$QA$$T@Z 100a0670 f i CPlugin.obj
 0002:000296e0       ??$exchange@PAVCConfig@@AAPAV1@@std@@YAPAVCConfig@@AAPAV1@0@Z 100a06e0 f i CPlugin.obj
 0002:00029750       ??$fill@PAV?$_List_unchecked_iterator@V?$_List_val@U?$_List_simple_types@U?$pair@$$CBGK@std@@@std@@@std@@@std@@V12@@std@@YAXQAV?$_List_unchecked_iterator@V?$_List_val@U?$_List_simple_types@U?$pair@$$CBGK@std@@@std@@@std@@@0@0ABV10@@Z 100a0750 f i CPlugin.obj
 0002:00029800       ??$fill@PAV?$_List_unchecked_iterator@V?$_List_val@U?$_List_simple_types@U?$pair@$$CBGVCVector@@@std@@@std@@@std@@@std@@V12@@std@@YAXQAV?$_List_unchecked_iterator@V?$_List_val@U?$_List_simple_types@U?$pair@$$CBGVCVector@@@std@@@std@@@std@@@0@0ABV10@@Z 100a0800 f i CPlugin.obj
 0002:000298b0       ??$fill@PAV?$_List_unchecked_iterator@V?$_List_val@U?$_List_simple_types@U?$pair@$$CBIVCPlayerData@@@std@@@std@@@std@@@std@@V12@@std@@YAXQAV?$_List_unchecked_iterator@V?$_List_val@U?$_List_simple_types@U?$pair@$$CBIVCPlayerData@@@std@@@std@@@std@@@0@0ABV10@@Z 100a08b0 f i CPlugin.obj
 0002:00029960       ??$find@V?$_Vector_iterator@V?$_Vector_val@U?$_Simple_types@V?$basic_string@DU?$char_traits@D@std@@V?$allocator@D@2@@std@@@std@@@std@@@std@@V?$basic_string@DU?$char_traits@D@std@@V?$allocator@D@2@@2@@std@@YA?AV?$_Vector_iterator@V?$_Vector_val@U?$_Simple_types@V?$basic_string@DU?$char_traits@D@std@@V?$allocator@D@2@@std@@@std@@@std@@@0@V10@V10@ABV?$basic_string@DU?$char_traits@D@std@@V?$allocator@D@2@@0@@Z 100a0960 f i CPlugin.obj
 0002:00029aa0       ??$find@X@?$_Hash@V?$_Umap_traits@GKV?$_Uhash_compare@GU?$hash@G@std@@U?$equal_to@G@2@@std@@V?$allocator@U?$pair@$$CBGK@std@@@2@$0A@@std@@@std@@QAE?AV?$_List_iterator@V?$_List_val@U?$_List_simple_types@U?$pair@$$CBGK@std@@@std@@@std@@@1@ABG@Z 100a0aa0 f i CPlugin.obj
 0002:00029b50       ??$find@X@?$_Hash@V?$_Umap_traits@GVCVector@@V?$_Uhash_compare@GU?$hash@G@std@@U?$equal_to@G@2@@std@@V?$allocator@U?$pair@$$CBGVCVector@@@std@@@3@$0A@@std@@@std@@QAE?AV?$_List_iterator@V?$_List_val@U?$_List_simple_types@U?$pair@$$CBGVCVector@@@std@@@std@@@std@@@1@ABG@Z 100a0b50 f i CPlugin.obj
 0002:00029c00       ??$find@X@?$_Hash@V?$_Umap_traits@IVCPlayerData@@V?$_Uhash_compare@IU?$hash@I@std@@U?$equal_to@I@2@@std@@V?$allocator@U?$pair@$$CBIVCPlayerData@@@std@@@3@$0A@@std@@@std@@QAE?AV?$_List_iterator@V?$_List_val@U?$_List_simple_types@U?$pair@$$CBIVCPlayerData@@@std@@@std@@@std@@@1@ABI@Z 100a0c00 f i CPlugin.obj
 0002:00029cb0       ??$forward@AAG@std@@YAAAGAAG@Z 100a0cb0 f i CPlugin.obj
 0002:00029d00       ??$forward@AAI@std@@YAAAIAAI@Z 100a0d00 f i CPlugin.obj
 0002:00029d50       ??$forward@AAK@std@@YAAAKAAK@Z 100a0d50 f i CPlugin.obj
 0002:00029da0       ??$forward@AAPAD@std@@YAAAPADAAPAD@Z 100a0da0 f i CPlugin.obj
 0002:00029df0       ??$forward@AAPAU?$_List_node@U?$pair@$$CBGK@std@@PAX@std@@@std@@YAAAPAU?$_List_node@U?$pair@$$CBGK@std@@PAX@0@AAPAU10@@Z 100a0df0 f i CPlugin.obj
 0002:00029e40       ??$forward@AAPAU?$_List_node@U?$pair@$$CBGVCVector@@@std@@PAX@std@@@std@@YAAAPAU?$_List_node@U?$pair@$$CBGVCVector@@@std@@PAX@0@AAPAU10@@Z 100a0e40 f i CPlugin.obj
 0002:00029e90       ??$forward@AAPAU?$_Tree_node@DPAX@std@@@std@@YAAAPAU?$_Tree_node@DPAX@0@AAPAU10@@Z 100a0e90 f i CPlugin.obj
 0002:00029ee0       ??$forward@AAPAU?$_Tree_node@GPAX@std@@@std@@YAAAPAU?$_Tree_node@GPAX@0@AAPAU10@@Z 100a0ee0 f i CPlugin.obj
 0002:00029f30       ??$forward@AAPAVCConfig@@@std@@YAAAPAVCConfig@@AAPAV1@@Z 100a0f30 f i CPlugin.obj
 0002:00029f80       ??$forward@ABD@std@@YAABDABD@Z 100a0f80 f i CPlugin.obj
 0002:00029fd0       ??$forward@ABG@std@@YAABGABG@Z 100a0fd0 f i CPlugin.obj
 0002:0002a020       ??$forward@ABQAD@std@@YAABQADABQAD@Z 100a1020 f i CPlugin.obj
 0002:0002a070       ??$forward@ABQAU?$_List_node@U?$pair@$$CBGK@std@@PAX@std@@@std@@YAABQAU?$_List_node@U?$pair@$$CBGK@std@@PAX@0@ABQAU10@@Z 100a1070 f i CPlugin.obj
 0002:0002a0c0       ??$forward@ABQAU?$_List_node@U?$pair@$$CBGVCVector@@@std@@PAX@std@@@std@@YAABQAU?$_List_node@U?$pair@$$CBGVCVector@@@std@@PAX@0@ABQAU10@@Z 100a10c0 f i CPlugin.obj
 0002:0002a110       ??$forward@ABQAU?$_List_node@U?$pair@$$CBIVCPlayerData@@@std@@PAX@std@@@std@@YAABQAU?$_List_node@U?$pair@$$CBIVCPlayerData@@@std@@PAX@0@ABQAU10@@Z 100a1110 f i CPlugin.obj
 0002:0002a160       ??$forward@ABQAU?$_Tree_node@DPAX@std@@@std@@YAABQAU?$_Tree_node@DPAX@0@ABQAU10@@Z 100a1160 f i CPlugin.obj
 0002:0002a1b0       ??$forward@ABQAU?$_Tree_node@V?$basic_string@DU?$char_traits@D@std@@V?$allocator@D@2@@std@@PAX@std@@@std@@YAABQAU?$_Tree_node@V?$basic_string@DU?$char_traits@D@std@@V?$allocator@D@2@@std@@PAX@0@ABQAU10@@Z 100a11b0 f i CPlugin.obj
 0002:0002a200       ??$forward@ABU?$less@D@std@@@std@@YAABU?$less@D@0@ABU10@@Z 100a1200 f i CPlugin.obj
 0002:0002a250       ??$forward@ABU?$less@V?$basic_string@DU?$char_traits@D@std@@V?$allocator@D@2@@std@@@std@@@std@@YAABU?$less@V?$basic_string@DU?$char_traits@D@std@@V?$allocator@D@2@@std@@@0@ABU10@@Z 100a1250 f i CPlugin.obj
 0002:0002a2a0       ??$forward@ABUpiecewise_construct_t@std@@@std@@YAABUpiecewise_construct_t@0@ABU10@@Z 100a12a0 f i CPlugin.obj
 0002:0002a2f0       ??$forward@ABV?$_List_unchecked_iterator@V?$_List_val@U?$_List_simple_types@U?$pair@$$CBGK@std@@@std@@@std@@@std@@@std@@YAABV?$_List_unchecked_iterator@V?$_List_val@U?$_List_simple_types@U?$pair@$$CBGK@std@@@std@@@std@@@0@ABV10@@Z 100a12f0 f i CPlugin.obj
 0002:0002a340       ??$forward@ABV?$_List_unchecked_iterator@V?$_List_val@U?$_List_simple_types@U?$pair@$$CBGVCVector@@@std@@@std@@@std@@@std@@@std@@YAABV?$_List_unchecked_iterator@V?$_List_val@U?$_List_simple_types@U?$pair@$$CBGVCVector@@@std@@@std@@@std@@@0@ABV10@@Z 100a1340 f i CPlugin.obj
 0002:0002a390       ??$forward@ABV?$_List_unchecked_iterator@V?$_List_val@U?$_List_simple_types@U?$pair@$$CBIVCPlayerData@@@std@@@std@@@std@@@std@@@std@@YAABV?$_List_unchecked_iterator@V?$_List_val@U?$_List_simple_types@U?$pair@$$CBIVCPlayerData@@@std@@@std@@@std@@@0@ABV10@@Z 100a1390 f i CPlugin.obj
 0002:0002a3e0       ??$forward@ABV?$allocator@U?$pair@$$CBGK@std@@@std@@@std@@YAABV?$allocator@U?$pair@$$CBGK@std@@@0@ABV10@@Z 100a13e0 f i CPlugin.obj
 0002:0002a430       ??$forward@AB_N@std@@YAAB_NAB_N@Z 100a1430 f i CPlugin.obj
 0002:0002a480       ??$forward@D@std@@YA$$QADAAD@Z 100a1480 f i CPlugin.obj
 0002:0002a4d0       ??$forward@M@std@@YA$$QAMAAM@Z 100a14d0 f i CPlugin.obj
 0002:0002a520       ??$forward@PAU?$_List_node@U?$pair@$$CBGVCVector@@@std@@PAX@std@@@std@@YA$$QAPAU?$_List_node@U?$pair@$$CBGVCVector@@@std@@PAX@0@AAPAU10@@Z 100a1520 f i CPlugin.obj
 0002:0002a570       ??$forward@PAU?$_Tree_node@DPAX@std@@@std@@YA$$QAPAU?$_Tree_node@DPAX@0@AAPAU10@@Z 100a1570 f i CPlugin.obj
 0002:0002a5c0       ??$forward@PAU?$_Tree_node@GPAX@std@@@std@@YA$$QAPAU?$_Tree_node@GPAX@0@AAPAU10@@Z 100a15c0 f i CPlugin.obj
 0002:0002a610       ??$forward@PAU_Container_base12@std@@@std@@YA$$QAPAU_Container_base12@0@AAPAU10@@Z 100a1610 f i CPlugin.obj
 0002:0002a660       ??$forward@PAV?$basic_string@DU?$char_traits@D@std@@V?$allocator@D@2@@std@@@std@@YA$$QAPAV?$basic_string@DU?$char_traits@D@std@@V?$allocator@D@2@@0@AAPAV10@@Z 100a1660 f i CPlugin.obj
 0002:0002a6b0       ??$forward@PAVCConfig@@@std@@YA$$QAPAVCConfig@@AAPAV1@@Z 100a16b0 f i CPlugin.obj
 0002:0002a700       ??$forward@U?$default_delete@VCConfig@@@std@@@std@@YA$$QAU?$default_delete@VCConfig@@@0@AAU10@@Z 100a1700 f i CPlugin.obj
 0002:0002a750       ??$forward@U_Zero_then_variadic_args_t@std@@@std@@YA$$QAU_Zero_then_variadic_args_t@0@AAU10@@Z 100a1750 f i CPlugin.obj
 0002:0002a7a0       ??$forward@V?$_List_iterator@V?$_List_val@U?$_List_simple_types@U?$pair@$$CBGK@std@@@std@@@std@@@std@@@std@@YA$$QAV?$_List_iterator@V?$_List_val@U?$_List_simple_types@U?$pair@$$CBGK@std@@@std@@@std@@@0@AAV10@@Z 100a17a0 f i CPlugin.obj
 0002:0002a7f0       ??$forward@V?$_List_iterator@V?$_List_val@U?$_List_simple_types@U?$pair@$$CBIVCPlayerData@@@std@@@std@@@std@@@std@@@std@@YA$$QAV?$_List_iterator@V?$_List_val@U?$_List_simple_types@U?$pair@$$CBIVCPlayerData@@@std@@@std@@@std@@@0@AAV10@@Z 100a17f0 f i CPlugin.obj
 0002:0002a840       ??$forward@V?$_Tree_const_iterator@V?$_Tree_val@U?$_Tree_simple_types@D@std@@@std@@@std@@@std@@YA$$QAV?$_Tree_const_iterator@V?$_Tree_val@U?$_Tree_simple_types@D@std@@@std@@@0@AAV10@@Z 100a1840 f i CPlugin.obj
 0002:0002a890       ??$forward@V?$_Tree_const_iterator@V?$_Tree_val@U?$_Tree_simple_types@G@std@@@std@@@std@@@std@@YA$$QAV?$_Tree_const_iterator@V?$_Tree_val@U?$_Tree_simple_types@G@std@@@std@@@0@AAV10@@Z 100a1890 f i CPlugin.obj
 0002:0002a8e0       ??$forward@V?$allocator@D@std@@@std@@YA$$QAV?$allocator@D@0@AAV10@@Z 100a18e0 f i CPlugin.obj
 0002:0002a930       ??$forward@V?$basic_string@DU?$char_traits@D@std@@V?$allocator@D@2@@std@@@std@@YA$$QAV?$basic_string@DU?$char_traits@D@std@@V?$allocator@D@2@@0@AAV10@@Z 100a1930 f i CPlugin.obj
 0002:0002a980       ??$forward@V?$tuple@$$V@std@@@std@@YA$$QAV?$tuple@$$V@0@AAV10@@Z 100a1980 f i CPlugin.obj
 0002:0002a9d0       ??$forward@V?$tuple@ABG@std@@@std@@YA$$QAV?$tuple@ABG@0@AAV10@@Z 100a19d0 f i CPlugin.obj
 0002:0002aa20       ??$forward@_N@std@@YA$$QA_NAA_N@Z 100a1a20 f i CPlugin.obj
 0002:0002aa70       ??$forward_as_tuple@$$V@std@@YA?AV?$tuple@$$V@0@XZ 100a1a70 f i CPlugin.obj
 0002:0002aac0       ??$forward_as_tuple@ABG@std@@YA?AV?$tuple@ABG@0@ABG@Z 100a1ac0 f i CPlugin.obj
 0002:0002ab20       ??$insert@$0A@$0A@@?$_Tree@V?$_Tset_traits@DU?$less@D@std@@V?$allocator@D@2@$0A@@std@@@std@@QAE?AU?$pair@V?$_Tree_const_iterator@V?$_Tree_val@U?$_Tree_simple_types@D@std@@@std@@@std@@_N@1@$$QAD@Z 100a1b20 f i CPlugin.obj
 0002:0002ac40       ??$insert@$0A@$0A@@?$_Tree@V?$_Tset_traits@DU?$less@D@std@@V?$allocator@D@2@$0A@@std@@@std@@QAE?AU?$pair@V?$_Tree_const_iterator@V?$_Tree_val@U?$_Tree_simple_types@D@std@@@std@@@std@@_N@1@ABD@Z 100a1c40 f i CPlugin.obj
 0002:0002ad50       ??$insert@$0A@$0A@@?$_Tree@V?$_Tset_traits@GU?$less@G@std@@V?$allocator@G@2@$0A@@std@@@std@@QAE?AU?$pair@V?$_Tree_const_iterator@V?$_Tree_val@U?$_Tree_simple_types@G@std@@@std@@@std@@_N@1@ABG@Z 100a1d50 f i CPlugin.obj
 0002:0002ae60       ??$insert@PBD@?$_Tree@V?$_Tset_traits@DU?$less@D@std@@V?$allocator@D@2@$0A@@std@@@std@@QAEXPBD0@Z 100a1e60 f i CPlugin.obj
 0002:0002af30       ??$make_unique@VCConfig@@$$V$0A@@std@@YA?AV?$unique_ptr@VCConfig@@U?$default_delete@VCConfig@@@std@@@0@XZ 100a1f30 f i CPlugin.obj
 0002:0002b080       ??$max@I@std@@YAABIABI0@Z  100a2080 f i CPlugin.obj
 0002:0002b110       ??$min@I@std@@YAABIABI0@Z  100a2110 f i CPlugin.obj
 0002:0002b1a0       ??$move@AAD@std@@YA$$QADAAD@Z 100a21a0 f i CPlugin.obj
 0002:0002b1f0       ??$move@AAV?$allocator@D@std@@@std@@YA$$QAV?$allocator@D@0@AAV10@@Z 100a21f0 f i CPlugin.obj
 0002:0002b240       ??$move@AAV?$basic_string@DU?$char_traits@D@std@@V?$allocator@D@2@@std@@@std@@YA$$QAV?$basic_string@DU?$char_traits@D@std@@V?$allocator@D@2@@0@AAV10@@Z 100a2240 f i CPlugin.obj
 0002:0002b290       ??$move@AAV?$tuple@ABG@std@@@std@@YA$$QAV?$tuple@ABG@0@AAV10@@Z 100a2290 f i CPlugin.obj
 0002:0002b2e0       ??$swap@D$0A@@std@@YAXAAD0@Z 100a22e0 f i CPlugin.obj
 0002:0002b3b0       ??$uninitialized_fill@PAV?$_List_unchecked_iterator@V?$_List_val@U?$_List_simple_types@U?$pair@$$CBGK@std@@@std@@@std@@@std@@V12@@std@@YAXQAV?$_List_unchecked_iterator@V?$_List_val@U?$_List_simple_types@U?$pair@$$CBGK@std@@@std@@@std@@@0@0ABV10@@Z 100a23b0 f i CPlugin.obj
 0002:0002b500       ??$uninitialized_fill@PAV?$_List_unchecked_iterator@V?$_List_val@U?$_List_simple_types@U?$pair@$$CBGVCVector@@@std@@@std@@@std@@@std@@V12@@std@@YAXQAV?$_List_unchecked_iterator@V?$_List_val@U?$_List_simple_types@U?$pair@$$CBGVCVector@@@std@@@std@@@std@@@0@0ABV10@@Z 100a2500 f i CPlugin.obj
 0002:0002b650       ??$uninitialized_fill@PAV?$_List_unchecked_iterator@V?$_List_val@U?$_List_simple_types@U?$pair@$$CBIVCPlayerData@@@std@@@std@@@std@@@std@@V12@@std@@YAXQAV?$_List_unchecked_iterator@V?$_List_val@U?$_List_simple_types@U?$pair@$$CBIVCPlayerData@@@std@@@std@@@std@@@0@0ABV10@@Z 100a2650 f i CPlugin.obj
 0002:0002b810       ??0?$CSingleton@VCPlugin@@@@QAE@XZ 100a2810 f i CPlugin.obj
 0002:0002b870       ??0?$_Alloc_construct_ptr@V?$allocator@U?$_List_node@U?$pair@$$CBGK@std@@PAX@std@@@std@@@std@@QAE@AAV?$allocator@U?$_List_node@U?$pair@$$CBGK@std@@PAX@std@@@1@@Z 100a2870 f i CPlugin.obj
 0002:0002b8e0       ??0?$_Alloc_construct_ptr@V?$allocator@U?$_List_node@U?$pair@$$CBGVCVector@@@std@@PAX@std@@@std@@@std@@QAE@AAV?$allocator@U?$_List_node@U?$pair@$$CBGVCVector@@@std@@PAX@std@@@1@@Z 100a28e0 f i CPlugin.obj
 0002:0002b950       ??0?$_Alloc_construct_ptr@V?$allocator@U?$_List_node@U?$pair@$$CBIVCPlayerData@@@std@@PAX@std@@@std@@@std@@QAE@AAV?$allocator@U?$_List_node@U?$pair@$$CBIVCPlayerData@@@std@@PAX@std@@@1@@Z 100a2950 f i CPlugin.obj
 0002:0002b9c0       ??0?$_Alloc_construct_ptr@V?$allocator@U?$_Tree_node@DPAX@std@@@std@@@std@@QAE@AAV?$allocator@U?$_Tree_node@DPAX@std@@@1@@Z 100a29c0 f i CPlugin.obj
 0002:0002ba30       ??0?$_Alloc_construct_ptr@V?$allocator@U?$_Tree_node@GPAX@std@@@std@@@std@@QAE@AAV?$allocator@U?$_Tree_node@GPAX@std@@@1@@Z 100a2a30 f i CPlugin.obj
 0002:0002baa0       ??0?$_Container_proxy_ptr12@V?$allocator@U_Container_proxy@std@@@std@@@std@@QAE@AAV?$allocator@U_Container_proxy@std@@@1@AAU_Container_base12@1@@Z 100a2aa0 f i CPlugin.obj
 0002:0002bb70       ??0?$_Deque_unchecked_const_iterator@V?$_Deque_val@U?$_Deque_simple_types@USysExec_t@CPlugin@@@std@@@std@@@std@@QAE@IPBU_Container_base12@1@@Z 100a2b70 f i CPlugin.obj
 0002:0002bbe0       ??0?$_Deque_unchecked_iterator@V?$_Deque_val@U?$_Deque_simple_types@USysExec_t@CPlugin@@@std@@@std@@@std@@QAE@IPBU_Container_base12@1@@Z 100a2be0 f i CPlugin.obj
 0002:0002bc40       ??0?$_Deque_val@U?$_Deque_simple_types@USysExec_t@CPlugin@@@std@@@std@@QAE@XZ 100a2c40 f i CPlugin.obj
 0002:0002bcd0       ??0?$_Hash@V?$_Umap_traits@GKV?$_Uhash_compare@GU?$hash@G@std@@U?$equal_to@G@2@@std@@V?$allocator@U?$pair@$$CBGK@std@@@2@$0A@@std@@@std@@IAE@ABV?$_Uhash_compare@GU?$hash@G@std@@U?$equal_to@G@2@@1@ABV?$allocator@U?$pair@$$CBGK@std@@@1@@Z 100a2cd0 f i CPlugin.obj
 0002:0002be00       ??0?$_List_const_iterator@V?$_List_val@U?$_List_simple_types@U?$pair@$$CBGK@std@@@std@@@std@@@std@@QAE@$$QAV01@@Z 100a2e00 f i CPlugin.obj
 0002:0002be60       ??0?$_List_const_iterator@V?$_List_val@U?$_List_simple_types@U?$pair@$$CBGK@std@@@std@@@std@@@std@@QAE@PAU?$_List_node@U?$pair@$$CBGK@std@@PAX@1@PBV?$_List_val@U?$_List_simple_types@U?$pair@$$CBGK@std@@@std@@@1@@Z 100a2e60 f i CPlugin.obj
 0002:0002bec0       ??0?$_List_const_iterator@V?$_List_val@U?$_List_simple_types@U?$pair@$$CBGVCVector@@@std@@@std@@@std@@@std@@QAE@PAU?$_List_node@U?$pair@$$CBGVCVector@@@std@@PAX@1@PBV?$_List_val@U?$_List_simple_types@U?$pair@$$CBGVCVector@@@std@@@std@@@1@@Z 100a2ec0 f i CPlugin.obj
 0002:0002bf20       ??0?$_List_const_iterator@V?$_List_val@U?$_List_simple_types@U?$pair@$$CBIVCPlayerData@@@std@@@std@@@std@@@std@@QAE@$$QAV01@@Z 100a2f20 f i CPlugin.obj
 0002:0002bf80       ??0?$_List_const_iterator@V?$_List_val@U?$_List_simple_types@U?$pair@$$CBIVCPlayerData@@@std@@@std@@@std@@@std@@QAE@PAU?$_List_node@U?$pair@$$CBIVCPlayerData@@@std@@PAX@1@PBV?$_List_val@U?$_List_simple_types@U?$pair@$$CBIVCPlayerData@@@std@@@std@@@1@@Z 100a2f80 f i CPlugin.obj
 0002:0002bfe0       ??0?$_List_iterator@V?$_List_val@U?$_List_simple_types@U?$pair@$$CBGK@std@@@std@@@std@@@std@@QAE@$$QAV01@@Z 100a2fe0 f i CPlugin.obj
 0002:0002c040       ??0?$_List_iterator@V?$_List_val@U?$_List_simple_types@U?$pair@$$CBGK@std@@@std@@@std@@@std@@QAE@PAU?$_List_node@U?$pair@$$CBGK@std@@PAX@1@PBV?$_List_val@U?$_List_simple_types@U?$pair@$$CBGK@std@@@std@@@1@@Z 100a3040 f i CPlugin.obj
 0002:0002c0a0       ??0?$_List_iterator@V?$_List_val@U?$_List_simple_types@U?$pair@$$CBGVCVector@@@std@@@std@@@std@@@std@@QAE@PAU?$_List_node@U?$pair@$$CBGVCVector@@@std@@PAX@1@PBV?$_List_val@U?$_List_simple_types@U?$pair@$$CBGVCVector@@@std@@@std@@@1@@Z 100a30a0 f i CPlugin.obj
 0002:0002c100       ??0?$_List_iterator@V?$_List_val@U?$_List_simple_types@U?$pair@$$CBIVCPlayerData@@@std@@@std@@@std@@@std@@QAE@$$QAV01@@Z 100a3100 f i CPlugin.obj
 0002:0002c160       ??0?$_List_iterator@V?$_List_val@U?$_List_simple_types@U?$pair@$$CBIVCPlayerData@@@std@@@std@@@std@@@std@@QAE@PAU?$_List_node@U?$pair@$$CBIVCPlayerData@@@std@@PAX@1@PBV?$_List_val@U?$_List_simple_types@U?$pair@$$CBIVCPlayerData@@@std@@@std@@@1@@Z 100a3160 f i CPlugin.obj
 0002:0002c1c0       ??0?$_List_unchecked_const_iterator@V?$_List_val@U?$_List_simple_types@U?$pair@$$CBGK@std@@@std@@@std@@U_Iterator_base0@2@@std@@QAE@PAU?$_List_node@U?$pair@$$CBGK@std@@PAX@1@PBV?$_List_val@U?$_List_simple_types@U?$pair@$$CBGK@std@@@std@@@1@@Z 100a31c0 f i CPlugin.obj
 0002:0002c230       ??0?$_List_unchecked_const_iterator@V?$_List_val@U?$_List_simple_types@U?$pair@$$CBGK@std@@@std@@@std@@U_Iterator_base12@2@@std@@QAE@$$QAV01@@Z 100a3230 f i CPlugin.obj
 0002:0002c2a0       ??0?$_List_unchecked_const_iterator@V?$_List_val@U?$_List_simple_types@U?$pair@$$CBGK@std@@@std@@@std@@U_Iterator_base12@2@@std@@QAE@PAU?$_List_node@U?$pair@$$CBGK@std@@PAX@1@PBV?$_List_val@U?$_List_simple_types@U?$pair@$$CBGK@std@@@std@@@1@@Z 100a32a0 f i CPlugin.obj
 0002:0002c320       ??0?$_List_unchecked_const_iterator@V?$_List_val@U?$_List_simple_types@U?$pair@$$CBGV?$shared_ptr@VCPlayerObjectAttachAddon@@@std@@@std@@@std@@@std@@U_Iterator_base0@2@@std@@QAE@PAU?$_List_node@U?$pair@$$CBGV?$shared_ptr@VCPlayerObjectAttachAddon@@@std@@@std@@PAX@1@PBV?$_List_val@U?$_List_simple_types@U?$pair@$$CBGV?$shared_ptr@VCPlayerObjectAttachAddon@@@std@@@std@@@std@@@1@@Z 100a3320 f i CPlugin.obj
 0002:0002c390       ??0?$_List_unchecked_const_iterator@V?$_List_val@U?$_List_simple_types@U?$pair@$$CBGVCVector@@@std@@@std@@@std@@U_Iterator_base0@2@@std@@QAE@PAU?$_List_node@U?$pair@$$CBGVCVector@@@std@@PAX@1@PBV?$_List_val@U?$_List_simple_types@U?$pair@$$CBGVCVector@@@std@@@std@@@1@@Z 100a3390 f i CPlugin.obj
 0002:0002c400       ??0?$_List_unchecked_const_iterator@V?$_List_val@U?$_List_simple_types@U?$pair@$$CBGVCVector@@@std@@@std@@@std@@U_Iterator_base12@2@@std@@QAE@PAU?$_List_node@U?$pair@$$CBGVCVector@@@std@@PAX@1@PBV?$_List_val@U?$_List_simple_types@U?$pair@$$CBGVCVector@@@std@@@std@@@1@@Z 100a3400 f i CPlugin.obj
 0002:0002c480       ??0?$_List_unchecked_const_iterator@V?$_List_val@U?$_List_simple_types@U?$pair@$$CBIVCPlayerData@@@std@@@std@@@std@@U_Iterator_base0@2@@std@@QAE@PAU?$_List_node@U?$pair@$$CBIVCPlayerData@@@std@@PAX@1@PBV?$_List_val@U?$_List_simple_types@U?$pair@$$CBIVCPlayerData@@@std@@@std@@@1@@Z 100a3480 f i CPlugin.obj
 0002:0002c4f0       ??0?$_List_unchecked_const_iterator@V?$_List_val@U?$_List_simple_types@U?$pair@$$CBIVCPlayerData@@@std@@@std@@@std@@U_Iterator_base12@2@@std@@QAE@$$QAV01@@Z 100a34f0 f i CPlugin.obj
 0002:0002c560       ??0?$_List_unchecked_const_iterator@V?$_List_val@U?$_List_simple_types@U?$pair@$$CBIVCPlayerData@@@std@@@std@@@std@@U_Iterator_base12@2@@std@@QAE@PAU?$_List_node@U?$pair@$$CBIVCPlayerData@@@std@@PAX@1@PBV?$_List_val@U?$_List_simple_types@U?$pair@$$CBIVCPlayerData@@@std@@@std@@@1@@Z 100a3560 f i CPlugin.obj
 0002:0002c5e0       ??0?$_List_unchecked_iterator@V?$_List_val@U?$_List_simple_types@U?$pair@$$CBGK@std@@@std@@@std@@@std@@QAE@PAU?$_List_node@U?$pair@$$CBGK@std@@PAX@1@PBV?$_List_val@U?$_List_simple_types@U?$pair@$$CBGK@std@@@std@@@1@@Z 100a35e0 f i CPlugin.obj
 0002:0002c640       ??0?$_List_unchecked_iterator@V?$_List_val@U?$_List_simple_types@U?$pair@$$CBGV?$shared_ptr@VCPlayerObjectAttachAddon@@@std@@@std@@@std@@@std@@@std@@QAE@PAU?$_List_node@U?$pair@$$CBGV?$shared_ptr@VCPlayerObjectAttachAddon@@@std@@@std@@PAX@1@PBV?$_List_val@U?$_List_simple_types@U?$pair@$$CBGV?$shared_ptr@VCPlayerObjectAttachAddon@@@std@@@std@@@std@@@1@@Z 100a3640 f i CPlugin.obj
 0002:0002c6a0       ??0?$_List_unchecked_iterator@V?$_List_val@U?$_List_simple_types@U?$pair@$$CBGVCVector@@@std@@@std@@@std@@@std@@QAE@PAU?$_List_node@U?$pair@$$CBGVCVector@@@std@@PAX@1@PBV?$_List_val@U?$_List_simple_types@U?$pair@$$CBGVCVector@@@std@@@std@@@1@@Z 100a36a0 f i CPlugin.obj
 0002:0002c700       ??0?$_List_unchecked_iterator@V?$_List_val@U?$_List_simple_types@U?$pair@$$CBIVCPlayerData@@@std@@@std@@@std@@@std@@QAE@PAU?$_List_node@U?$pair@$$CBIVCPlayerData@@@std@@PAX@1@PBV?$_List_val@U?$_List_simple_types@U?$pair@$$CBIVCPlayerData@@@std@@@std@@@1@@Z 100a3700 f i CPlugin.obj
 0002:0002c760       ??0?$_List_val@U?$_List_simple_types@U?$pair@$$CBGK@std@@@std@@@std@@QAE@XZ 100a3760 f i CPlugin.obj
 0002:0002c7e0       ??0?$_String_val@U?$_Simple_types@D@std@@@std@@QAE@XZ 100a37e0 f i CPlugin.obj
 0002:0002c870       ??0?$_Tree@V?$_Tset_traits@DU?$less@D@std@@V?$allocator@D@2@$0A@@std@@@std@@QAE@ABU?$less@D@1@@Z 100a3870 f i CPlugin.obj
 0002:0002c8f0       ??0?$_Tree@V?$_Tset_traits@V?$basic_string@DU?$char_traits@D@std@@V?$allocator@D@2@@std@@U?$less@V?$basic_string@DU?$char_traits@D@std@@V?$allocator@D@2@@std@@@2@V?$allocator@V?$basic_string@DU?$char_traits@D@std@@V?$allocator@D@2@@std@@@2@$0A@@std@@@std@@QAE@ABU?$less@V?$basic_string@DU?$char_traits@D@std@@V?$allocator@D@2@@std@@@1@@Z 100a38f0 f i CPlugin.obj
 0002:0002c970       ??0?$_Tree_const_iterator@V?$_Tree_val@U?$_Tree_simple_types@D@std@@@std@@@std@@QAE@$$QAV01@@Z 100a3970 f i CPlugin.obj
 0002:0002c9d0       ??0?$_Tree_const_iterator@V?$_Tree_val@U?$_Tree_simple_types@D@std@@@std@@@std@@QAE@PAU?$_Tree_node@DPAX@1@PBV?$_Tree_val@U?$_Tree_simple_types@D@std@@@1@@Z 100a39d0 f i CPlugin.obj
 0002:0002ca30       ??0?$_Tree_const_iterator@V?$_Tree_val@U?$_Tree_simple_types@G@std@@@std@@@std@@QAE@$$QAV01@@Z 100a3a30 f i CPlugin.obj
 0002:0002ca90       ??0?$_Tree_const_iterator@V?$_Tree_val@U?$_Tree_simple_types@G@std@@@std@@@std@@QAE@PAU?$_Tree_node@GPAX@1@PBV?$_Tree_val@U?$_Tree_simple_types@G@std@@@1@@Z 100a3a90 f i CPlugin.obj
 0002:0002caf0       ??0?$_Tree_temp_node_alloc@V?$allocator@U?$_Tree_node@DPAX@std@@@std@@@std@@QAE@AAV?$allocator@U?$_Tree_node@DPAX@std@@@1@@Z 100a3af0 f i CPlugin.obj
 0002:0002cbb0       ??0?$_Tree_temp_node_alloc@V?$allocator@U?$_Tree_node@GPAX@std@@@std@@@std@@QAE@AAV?$allocator@U?$_Tree_node@GPAX@std@@@1@@Z 100a3bb0 f i CPlugin.obj
 0002:0002cc70       ??0?$_Tree_unchecked_const_iterator@V?$_Tree_val@U?$_Tree_simple_types@D@std@@@std@@U_Iterator_base0@2@@std@@QAE@PAU?$_Tree_node@DPAX@1@PBV?$_Tree_val@U?$_Tree_simple_types@D@std@@@1@@Z 100a3c70 f i CPlugin.obj
 0002:0002cce0       ??0?$_Tree_unchecked_const_iterator@V?$_Tree_val@U?$_Tree_simple_types@D@std@@@std@@U_Iterator_base12@2@@std@@QAE@$$QAV01@@Z 100a3ce0 f i CPlugin.obj
 0002:0002cd50       ??0?$_Tree_unchecked_const_iterator@V?$_Tree_val@U?$_Tree_simple_types@D@std@@@std@@U_Iterator_base12@2@@std@@QAE@PAU?$_Tree_node@DPAX@1@PBV?$_Tree_val@U?$_Tree_simple_types@D@std@@@1@@Z 100a3d50 f i CPlugin.obj
 0002:0002cdd0       ??0?$_Tree_unchecked_const_iterator@V?$_Tree_val@U?$_Tree_simple_types@G@std@@@std@@U_Iterator_base0@2@@std@@QAE@PAU?$_Tree_node@GPAX@1@PBV?$_Tree_val@U?$_Tree_simple_types@G@std@@@1@@Z 100a3dd0 f i CPlugin.obj
 0002:0002ce40       ??0?$_Tree_unchecked_const_iterator@V?$_Tree_val@U?$_Tree_simple_types@G@std@@@std@@U_Iterator_base12@2@@std@@QAE@$$QAV01@@Z 100a3e40 f i CPlugin.obj
 0002:0002ceb0       ??0?$_Tree_unchecked_const_iterator@V?$_Tree_val@U?$_Tree_simple_types@G@std@@@std@@U_Iterator_base12@2@@std@@QAE@PAU?$_Tree_node@GPAX@1@PBV?$_Tree_val@U?$_Tree_simple_types@G@std@@@1@@Z 100a3eb0 f i CPlugin.obj
 0002:0002cf30       ??0?$_Tree_val@U?$_Tree_simple_types@D@std@@@std@@QAE@XZ 100a3f30 f i CPlugin.obj
 0002:0002cfb0       ??0?$_Tree_val@U?$_Tree_simple_types@V?$basic_string@DU?$char_traits@D@std@@V?$allocator@D@2@@std@@@std@@@std@@QAE@XZ 100a3fb0 f i CPlugin.obj
 0002:0002d030       ??0?$_Uhash_compare@GU?$hash@G@std@@U?$equal_to@G@2@@std@@QAE@XZ 100a4030 f i CPlugin.obj
 0002:0002d0c0       ??0?$_Umap_traits@GKV?$_Uhash_compare@GU?$hash@G@std@@U?$equal_to@G@2@@std@@V?$allocator@U?$pair@$$CBGK@std@@@2@$0A@@std@@QAE@ABV?$_Uhash_compare@GU?$hash@G@std@@U?$equal_to@G@2@@1@@Z 100a40c0 f i CPlugin.obj
 0002:0002d120       ??0?$_Uninitialized_backout@PAV?$_List_unchecked_iterator@V?$_List_val@U?$_List_simple_types@U?$pair@$$CBGK@std@@@std@@@std@@@std@@@std@@QAE@PAV?$_List_unchecked_iterator@V?$_List_val@U?$_List_simple_types@U?$pair@$$CBGK@std@@@std@@@std@@@1@@Z 100a4120 f i CPlugin.obj
 0002:0002d190       ??0?$_Uninitialized_backout@PAV?$_List_unchecked_iterator@V?$_List_val@U?$_List_simple_types@U?$pair@$$CBGVCVector@@@std@@@std@@@std@@@std@@@std@@QAE@PAV?$_List_unchecked_iterator@V?$_List_val@U?$_List_simple_types@U?$pair@$$CBGVCVector@@@std@@@std@@@std@@@1@@Z 100a4190 f i CPlugin.obj
 0002:0002d200       ??0?$_Uninitialized_backout@PAV?$_List_unchecked_iterator@V?$_List_val@U?$_List_simple_types@U?$pair@$$CBIVCPlayerData@@@std@@@std@@@std@@@std@@@std@@QAE@PAV?$_List_unchecked_iterator@V?$_List_val@U?$_List_simple_types@U?$pair@$$CBIVCPlayerData@@@std@@@std@@@std@@@1@@Z 100a4200 f i CPlugin.obj
 0002:0002d270       ??0?$_Uninitialized_backout_al@V?$allocator@V?$basic_string@DU?$char_traits@D@std@@V?$allocator@D@2@@std@@@std@@@std@@QAE@PAV?$basic_string@DU?$char_traits@D@std@@V?$allocator@D@2@@1@AAV?$allocator@V?$basic_string@DU?$char_traits@D@std@@V?$allocator@D@2@@std@@@1@@Z 100a4270 f i CPlugin.obj
 0002:0002d2f0       ??0?$_Vector_const_iterator@V?$_Vector_val@U?$_Simple_types@V?$basic_string@DU?$char_traits@D@std@@V?$allocator@D@2@@std@@@std@@@std@@@std@@QAE@ABV01@@Z 100a42f0 f i CPlugin.obj
 0002:0002d360       ??0?$_Vector_const_iterator@V?$_Vector_val@U?$_Simple_types@V?$basic_string@DU?$char_traits@D@std@@V?$allocator@D@2@@std@@@std@@@std@@@std@@QAE@PAV?$basic_string@DU?$char_traits@D@std@@V?$allocator@D@2@@1@PBU_Container_base12@1@@Z 100a4360 f i CPlugin.obj
 0002:0002d3e0       ??0?$_Vector_iterator@V?$_Vector_val@U?$_Simple_types@V?$basic_string@DU?$char_traits@D@std@@V?$allocator@D@2@@std@@@std@@@std@@@std@@QAE@ABV01@@Z 100a43e0 f i CPlugin.obj
 0002:0002d440       ??0?$_Vector_iterator@V?$_Vector_val@U?$_Simple_types@V?$basic_string@DU?$char_traits@D@std@@V?$allocator@D@2@@std@@@std@@@std@@@std@@QAE@PAV?$basic_string@DU?$char_traits@D@std@@V?$allocator@D@2@@1@PBU_Container_base12@1@@Z 100a4440 f i CPlugin.obj
 0002:0002d4a0       ??0?$_Vector_val@U?$_Simple_types@V?$_List_unchecked_iterator@V?$_List_val@U?$_List_simple_types@U?$pair@$$CBGK@std@@@std@@@std@@@std@@@std@@@std@@QAE@XZ 100a44a0 f i CPlugin.obj
 0002:0002d520       ??0?$_Vector_val@U?$_Simple_types@V?$basic_string@DU?$char_traits@D@std@@V?$allocator@D@2@@std@@@std@@@std@@QAE@XZ 100a4520 f i CPlugin.obj
 0002:0002d5a0       ??0?$allocator@D@std@@QAE@XZ 100a45a0 f i CPlugin.obj
 0002:0002d600       ??0?$allocator@U?$_Tree_node@DPAX@std@@@std@@QAE@XZ 100a4600 f i CPlugin.obj
 0002:0002d660       ??0?$allocator@U?$_Tree_node@V?$basic_string@DU?$char_traits@D@std@@V?$allocator@D@2@@std@@PAX@std@@@std@@QAE@XZ 100a4660 f i CPlugin.obj
 0002:0002d6c0       ??0?$allocator@U?$pair@$$CBGK@std@@@std@@QAE@XZ 100a46c0 f i CPlugin.obj
 0002:0002d720       ??0?$allocator@USysExec_t@CPlugin@@@std@@QAE@XZ 100a4720 f i CPlugin.obj
 0002:0002d780       ??0?$allocator@V?$basic_string@DU?$char_traits@D@std@@V?$allocator@D@2@@std@@@std@@QAE@XZ 100a4780 f i CPlugin.obj
 0002:0002d7e0       ??0?$basic_string@DU?$char_traits@D@std@@V?$allocator@D@2@@std@@QAE@$$QAV01@@Z 100a47e0 f i CPlugin.obj
 0002:0002d8d0       ??0?$basic_string@DU?$char_traits@D@std@@V?$allocator@D@2@@std@@QAE@ABV01@@Z 100a48d0 f i CPlugin.obj
 0002:0002da50       ??0?$basic_string@DU?$char_traits@D@std@@V?$allocator@D@2@@std@@QAE@QBD@Z 100a4a50 f i CPlugin.obj
 0002:0002dbc0       ??0?$deque@USysExec_t@CPlugin@@V?$allocator@USysExec_t@CPlugin@@@std@@@std@@QAE@XZ 100a4bc0 f i CPlugin.obj
 0002:0002dc60       ??0?$initializer_list@D@std@@QAE@PBD0@Z 100a4c60 f i CPlugin.obj
 0002:0002dcd0       ??0?$list@U?$pair@$$CBGK@std@@V?$allocator@U?$pair@$$CBGK@std@@@2@@std@@QAE@ABV?$allocator@U?$pair@$$CBGK@std@@@1@@Z 100a4cd0 f i CPlugin.obj
 0002:0002dd50       ??0?$queue@USysExec_t@CPlugin@@V?$deque@USysExec_t@CPlugin@@V?$allocator@USysExec_t@CPlugin@@@std@@@std@@@std@@QAE@XZ 100a4d50 f i CPlugin.obj
 0002:0002ddb0       ??0?$set@DU?$less@D@std@@V?$allocator@D@2@@std@@QAE@XZ 100a4db0 f i CPlugin.obj
 0002:0002de20       ??0?$set@V?$basic_string@DU?$char_traits@D@std@@V?$allocator@D@2@@std@@U?$less@V?$basic_string@DU?$char_traits@D@std@@V?$allocator@D@2@@std@@@2@V?$allocator@V?$basic_string@DU?$char_traits@D@std@@V?$allocator@D@2@@std@@@2@@std@@QAE@XZ 100a4e20 f i CPlugin.obj
 0002:0002de90       ??0?$time_point@Usteady_clock@chrono@std@@V?$duration@_JU?$ratio@$00$0DLJKMKAA@@std@@@23@@chrono@std@@QAE@ABV?$duration@_JU?$ratio@$00$0DLJKMKAA@@std@@@12@@Z 100a4e90 f i CPlugin.obj
 0002:0002df00       ??0?$tuple@$$V@std@@QAE@ABV01@@Z 100a4f00 f i CPlugin.obj
 0002:0002df60       ??0?$tuple@ABG@std@@QAE@$$QAV01@@Z 100a4f60 f i CPlugin.obj
 0002:0002dfd0       ??0?$unique_lock@Vmutex@std@@@std@@QAE@AAVmutex@1@Utry_to_lock_t@1@@Z 100a4fd0 f i CPlugin.obj
 0002:0002e050       ??0?$unordered_map@GKU?$hash@G@std@@U?$equal_to@G@2@V?$allocator@U?$pair@$$CBGK@std@@@2@@std@@QAE@XZ 100a5050 f i CPlugin.obj
 0002:0002e0d0       ??0?$vector@V?$basic_string@DU?$char_traits@D@std@@V?$allocator@D@2@@std@@V?$allocator@V?$basic_string@DU?$char_traits@D@std@@V?$allocator@D@2@@std@@@2@@std@@QAE@XZ 100a50d0 f i CPlugin.obj
 0002:0002e1a0       ??0CPlayerData@@QAE@I@Z    100a51a0 f i CPlugin.obj
 0002:0002e210       ??0CPlugin@@QAE@W4SAMPVersion@@@Z 100a5210 f   CPlugin.obj
 0002:0002e660       ??0CVector@@QAE@XZ         100a5660 f i CPlugin.obj
 0002:0002e6e0       ??0SysExec_t@CPlugin@@QAE@ABU01@@Z 100a56e0 f i CPlugin.obj
 0002:0002e770       ??0_Basic_container_proxy_ptr12@std@@IAE@XZ 100a5770 f i CPlugin.obj
 0002:0002e7d0       ??0_Bxty@?$_String_val@U?$_Simple_types@D@std@@@std@@QAE@XZ 100a57d0 f i CPlugin.obj
 0002:0002e830       ??0_Clear_guard@?$_Hash@V?$_Umap_traits@GKV?$_Uhash_compare@GU?$hash@G@std@@U?$equal_to@G@2@@std@@V?$allocator@U?$pair@$$CBGK@std@@@2@$0A@@std@@@std@@QAE@QAV12@@Z 100a5830 f i CPlugin.obj
 0002:0002e890       ??0_Clear_guard@?$_Hash@V?$_Umap_traits@GVCVector@@V?$_Uhash_compare@GU?$hash@G@std@@U?$equal_to@G@2@@std@@V?$allocator@U?$pair@$$CBGVCVector@@@std@@@3@$0A@@std@@@std@@QAE@QAV12@@Z 100a5890 f i CPlugin.obj
 0002:0002e8f0       ??0_Clear_guard@?$_Hash@V?$_Umap_traits@IVCPlayerData@@V?$_Uhash_compare@IU?$hash@I@std@@U?$equal_to@I@2@@std@@V?$allocator@U?$pair@$$CBIVCPlayerData@@@std@@@3@$0A@@std@@@std@@QAE@QAV12@@Z 100a58f0 f i CPlugin.obj
 0002:0002e950       ??0_Container_base12@std@@QAE@XZ 100a5950 f i CPlugin.obj
 0002:0002e9b0       ??0_Container_proxy@std@@QAE@PAU_Container_base12@1@@Z 100a59b0 f i CPlugin.obj
 0002:0002ea20       ??0_Mutex_base@std@@QAE@H@Z 100a5a20 f i CPlugin.obj
 0002:0002eaa0       ??0_Range_eraser@?$_Hash@V?$_Umap_traits@GKV?$_Uhash_compare@GU?$hash@G@std@@U?$equal_to@G@2@@std@@V?$allocator@U?$pair@$$CBGK@std@@@2@$0A@@std@@@std@@QAE@AAV?$list@U?$pair@$$CBGK@std@@V?$allocator@U?$pair@$$CBGK@std@@@2@@2@QAU?$_List_node@U?$pair@$$CBGK@std@@PAX@2@@Z 100a5aa0 f i CPlugin.obj
 0002:0002eb20       ??0_Range_eraser@?$_Hash@V?$_Umap_traits@GVCVector@@V?$_Uhash_compare@GU?$hash@G@std@@U?$equal_to@G@2@@std@@V?$allocator@U?$pair@$$CBGVCVector@@@std@@@3@$0A@@std@@@std@@QAE@AAV?$list@U?$pair@$$CBGVCVector@@@std@@V?$allocator@U?$pair@$$CBGVCVector@@@std@@@2@@2@QAU?$_List_node@U?$pair@$$CBGVCVector@@@std@@PAX@2@@Z 100a5b20 f i CPlugin.obj
 0002:0002eba0       ??0_Range_eraser@?$_Hash@V?$_Umap_traits@IVCPlayerData@@V?$_Uhash_compare@IU?$hash@I@std@@U?$equal_to@I@2@@std@@V?$allocator@U?$pair@$$CBIVCPlayerData@@@std@@@3@$0A@@std@@@std@@QAE@AAV?$list@U?$pair@$$CBIVCPlayerData@@@std@@V?$allocator@U?$pair@$$CBIVCPlayerData@@@std@@@2@@2@QAU?$_List_node@U?$pair@$$CBIVCPlayerData@@@std@@PAX@2@@Z 100a5ba0 f i CPlugin.obj
 0002:0002ec20       ??0bad_alloc@std@@AAE@QBD@Z 100a5c20 f i CPlugin.obj
 0002:0002ec90       ??0bad_alloc@std@@QAE@ABV01@@Z 100a5c90 f i CPlugin.obj
 0002:0002ed00       ??0bad_array_new_length@std@@QAE@ABV01@@Z 100a5d00 f i CPlugin.obj
 0002:0002ed70       ??0bad_array_new_length@std@@QAE@XZ 100a5d70 f i CPlugin.obj
 0002:0002ede0       ??0exception@std@@QAE@QBDH@Z 100a5de0 f i CPlugin.obj
 0002:0002ee60       ??0id@thread@std@@AAE@I@Z  100a5e60 f i CPlugin.obj
 0002:0002eec0       ??0mutex@std@@QAE@XZ       100a5ec0 f i CPlugin.obj
 0002:0002ef20       ??0reference@?$bitset@$0DOI@@std@@AAE@AAV12@I@Z 100a5f20 f i CPlugin.obj
 0002:0002ef90       ??1?$CSingleton@VCPlugin@@@@UAE@XZ 100a5f90 f i CPlugin.obj
 0002:0002eff0       ??1?$_Alloc_construct_ptr@V?$allocator@U?$_List_node@U?$pair@$$CBGK@std@@PAX@std@@@std@@@std@@QAE@XZ 100a5ff0 f i CPlugin.obj
 0002:0002f0a0       ??1?$_Alloc_construct_ptr@V?$allocator@U?$_List_node@U?$pair@$$CBGVCVector@@@std@@PAX@std@@@std@@@std@@QAE@XZ 100a60a0 f i CPlugin.obj
 0002:0002f150       ??1?$_Alloc_construct_ptr@V?$allocator@U?$_List_node@U?$pair@$$CBIVCPlayerData@@@std@@PAX@std@@@std@@@std@@QAE@XZ 100a6150 f i CPlugin.obj
 0002:0002f200       ??1?$_Alloc_construct_ptr@V?$allocator@U?$_Tree_node@DPAX@std@@@std@@@std@@QAE@XZ 100a6200 f i CPlugin.obj
 0002:0002f2b0       ??1?$_Alloc_construct_ptr@V?$allocator@U?$_Tree_node@GPAX@std@@@std@@@std@@QAE@XZ 100a62b0 f i CPlugin.obj
 0002:0002f360       ??1?$_Compressed_pair@V?$allocator@D@std@@V?$_String_val@U?$_Simple_types@D@std@@@2@$00@std@@QAE@XZ 100a6360 f i CPlugin.obj
 0002:0002f3b0       ??1?$_Container_proxy_ptr12@V?$allocator@U_Container_proxy@std@@@std@@@std@@QAE@XZ 100a63b0 f i CPlugin.obj
 0002:0002f430       ??1?$_Hash@V?$_Umap_traits@GKV?$_Uhash_compare@GU?$hash@G@std@@U?$equal_to@G@2@@std@@V?$allocator@U?$pair@$$CBGK@std@@@2@$0A@@std@@@std@@QAE@XZ 100a6430 f i CPlugin.obj
 0002:0002f490       ??1?$_Hash_vec@V?$allocator@V?$_List_unchecked_iterator@V?$_List_val@U?$_List_simple_types@U?$pair@$$CBGK@std@@@std@@@std@@@std@@@std@@@std@@QAE@XZ 100a6490 f i CPlugin.obj
 0002:0002f570       ??1?$_List_const_iterator@V?$_List_val@U?$_List_simple_types@U?$pair@$$CBGK@std@@@std@@@std@@@std@@QAE@XZ 100a6570 f i CPlugin.obj
 0002:0002f5c0       ??1?$_List_const_iterator@V?$_List_val@U?$_List_simple_types@U?$pair@$$CBGVCVector@@@std@@@std@@@std@@@std@@QAE@XZ 100a65c0 f i CPlugin.obj
 0002:0002f610       ??1?$_List_const_iterator@V?$_List_val@U?$_List_simple_types@U?$pair@$$CBIVCPlayerData@@@std@@@std@@@std@@@std@@QAE@XZ 100a6610 f i CPlugin.obj
 0002:0002f660       ??1?$_List_iterator@V?$_List_val@U?$_List_simple_types@U?$pair@$$CBGK@std@@@std@@@std@@@std@@QAE@XZ 100a6660 f i CPlugin.obj
 0002:0002f6b0       ??1?$_List_iterator@V?$_List_val@U?$_List_simple_types@U?$pair@$$CBGVCVector@@@std@@@std@@@std@@@std@@QAE@XZ 100a66b0 f i CPlugin.obj
 0002:0002f700       ??1?$_List_iterator@V?$_List_val@U?$_List_simple_types@U?$pair@$$CBIVCPlayerData@@@std@@@std@@@std@@@std@@QAE@XZ 100a6700 f i CPlugin.obj
 0002:0002f750       ??1?$_List_node_emplace_op2@V?$allocator@U?$_List_node@U?$pair@$$CBGK@std@@PAX@std@@@std@@@std@@QAE@XZ 100a6750 f i CPlugin.obj
 0002:0002f820       ??1?$_List_node_emplace_op2@V?$allocator@U?$_List_node@U?$pair@$$CBGVCVector@@@std@@PAX@std@@@std@@@std@@QAE@XZ 100a6820 f i CPlugin.obj
 0002:0002f8f0       ??1?$_List_node_emplace_op2@V?$allocator@U?$_List_node@U?$pair@$$CBIVCPlayerData@@@std@@PAX@std@@@std@@@std@@QAE@XZ 100a68f0 f i CPlugin.obj
 0002:0002f9c0       ??1?$_List_unchecked_const_iterator@V?$_List_val@U?$_List_simple_types@U?$pair@$$CBGK@std@@@std@@@std@@U_Iterator_base12@2@@std@@QAE@XZ 100a69c0 f i CPlugin.obj
 0002:0002fa10       ??1?$_List_unchecked_const_iterator@V?$_List_val@U?$_List_simple_types@U?$pair@$$CBGVCVector@@@std@@@std@@@std@@U_Iterator_base12@2@@std@@QAE@XZ 100a6a10 f i CPlugin.obj
 0002:0002fa60       ??1?$_List_unchecked_const_iterator@V?$_List_val@U?$_List_simple_types@U?$pair@$$CBIVCPlayerData@@@std@@@std@@@std@@U_Iterator_base12@2@@std@@QAE@XZ 100a6a60 f i CPlugin.obj
 0002:0002fab0       ??1?$_String_val@U?$_Simple_types@D@std@@@std@@QAE@XZ 100a6ab0 f i CPlugin.obj
 0002:0002fb00       ??1?$_Tree@V?$_Tset_traits@DU?$less@D@std@@V?$allocator@D@2@$0A@@std@@@std@@QAE@XZ 100a6b00 f i CPlugin.obj
 0002:0002fbe0       ??1?$_Tree@V?$_Tset_traits@V?$basic_string@DU?$char_traits@D@std@@V?$allocator@D@2@@std@@U?$less@V?$basic_string@DU?$char_traits@D@std@@V?$allocator@D@2@@std@@@2@V?$allocator@V?$basic_string@DU?$char_traits@D@std@@V?$allocator@D@2@@std@@@2@$0A@@std@@@std@@QAE@XZ 100a6be0 f i CPlugin.obj
 0002:0002fcc0       ??1?$_Tree_const_iterator@V?$_Tree_val@U?$_Tree_simple_types@D@std@@@std@@@std@@QAE@XZ 100a6cc0 f i CPlugin.obj
 0002:0002fd10       ??1?$_Tree_const_iterator@V?$_Tree_val@U?$_Tree_simple_types@G@std@@@std@@@std@@QAE@XZ 100a6d10 f i CPlugin.obj
 0002:0002fd60       ??1?$_Tree_temp_node@V?$allocator@U?$_Tree_node@DPAX@std@@@std@@@std@@QAE@XZ 100a6d60 f i CPlugin.obj
 0002:0002fe70       ??1?$_Tree_temp_node@V?$allocator@U?$_Tree_node@GPAX@std@@@std@@@std@@QAE@XZ 100a6e70 f i CPlugin.obj
 0002:0002ff80       ??1?$_Tree_temp_node_alloc@V?$allocator@U?$_Tree_node@DPAX@std@@@std@@@std@@QAE@XZ 100a6f80 f i CPlugin.obj
 0002:0002ffd0       ??1?$_Tree_temp_node_alloc@V?$allocator@U?$_Tree_node@GPAX@std@@@std@@@std@@QAE@XZ 100a6fd0 f i CPlugin.obj
 0002:00030020       ??1?$_Tree_unchecked_const_iterator@V?$_Tree_val@U?$_Tree_simple_types@D@std@@@std@@U_Iterator_base12@2@@std@@QAE@XZ 100a7020 f i CPlugin.obj
 0002:00030070       ??1?$_Tree_unchecked_const_iterator@V?$_Tree_val@U?$_Tree_simple_types@G@std@@@std@@U_Iterator_base12@2@@std@@QAE@XZ 100a7070 f i CPlugin.obj
 0002:000300c0       ??1?$_Uninitialized_backout@PAV?$_List_unchecked_iterator@V?$_List_val@U?$_List_simple_types@U?$pair@$$CBGK@std@@@std@@@std@@@std@@@std@@QAE@XZ 100a70c0 f i CPlugin.obj
 0002:00030130       ??1?$_Uninitialized_backout@PAV?$_List_unchecked_iterator@V?$_List_val@U?$_List_simple_types@U?$pair@$$CBGVCVector@@@std@@@std@@@std@@@std@@@std@@QAE@XZ 100a7130 f i CPlugin.obj
 0002:000301a0       ??1?$_Uninitialized_backout@PAV?$_List_unchecked_iterator@V?$_List_val@U?$_List_simple_types@U?$pair@$$CBIVCPlayerData@@@std@@@std@@@std@@@std@@@std@@QAE@XZ 100a71a0 f i CPlugin.obj
 0002:00030210       ??1?$_Uninitialized_backout_al@V?$allocator@V?$basic_string@DU?$char_traits@D@std@@V?$allocator@D@2@@std@@@std@@@std@@QAE@XZ 100a7210 f i CPlugin.obj
 0002:00030280       ??1?$_Vector_const_iterator@V?$_Vector_val@U?$_Simple_types@V?$basic_string@DU?$char_traits@D@std@@V?$allocator@D@2@@std@@@std@@@std@@@std@@QAE@XZ 100a7280 f i CPlugin.obj
 0002:000302d0       ??1?$_Vector_iterator@V?$_Vector_val@U?$_Simple_types@V?$basic_string@DU?$char_traits@D@std@@V?$allocator@D@2@@std@@@std@@@std@@@std@@QAE@XZ 100a72d0 f i CPlugin.obj
 0002:00030320       ??1?$basic_string@DU?$char_traits@D@std@@V?$allocator@D@2@@std@@QAE@XZ 100a7320 f i CPlugin.obj
 0002:00030400       ??1?$deque@USysExec_t@CPlugin@@V?$allocator@USysExec_t@CPlugin@@@std@@@std@@QAE@XZ 100a7400 f i CPlugin.obj
 0002:000304f0       ??1?$list@U?$pair@$$CBGK@std@@V?$allocator@U?$pair@$$CBGK@std@@@2@@std@@QAE@XZ 100a74f0 f i CPlugin.obj
 0002:000305b0       ??1?$pair@$$CBIVCPlayerData@@@std@@QAE@XZ 100a75b0 f i CPlugin.obj
 0002:00030600       ??1?$pair@V?$_List_iterator@V?$_List_val@U?$_List_simple_types@U?$pair@$$CBGK@std@@@std@@@std@@@std@@_N@std@@QAE@XZ 100a7600 f i CPlugin.obj
 0002:00030650       ??1?$pair@V?$_List_iterator@V?$_List_val@U?$_List_simple_types@U?$pair@$$CBIVCPlayerData@@@std@@@std@@@std@@@std@@_N@std@@QAE@XZ 100a7650 f i CPlugin.obj
 0002:000306a0       ??1?$pair@V?$_Tree_const_iterator@V?$_Tree_val@U?$_Tree_simple_types@D@std@@@std@@@std@@_N@std@@QAE@XZ 100a76a0 f i CPlugin.obj
 0002:000306f0       ??1?$pair@V?$_Tree_const_iterator@V?$_Tree_val@U?$_Tree_simple_types@G@std@@@std@@@std@@_N@std@@QAE@XZ 100a76f0 f i CPlugin.obj
 0002:00030740       ??1?$queue@USysExec_t@CPlugin@@V?$deque@USysExec_t@CPlugin@@V?$allocator@USysExec_t@CPlugin@@@std@@@std@@@std@@QAE@XZ 100a7740 f i CPlugin.obj
 0002:00030790       ??1?$set@DU?$less@D@std@@V?$allocator@D@2@@std@@QAE@XZ 100a7790 f i CPlugin.obj
 0002:000307e0       ??1?$set@V?$basic_string@DU?$char_traits@D@std@@V?$allocator@D@2@@std@@U?$less@V?$basic_string@DU?$char_traits@D@std@@V?$allocator@D@2@@std@@@2@V?$allocator@V?$basic_string@DU?$char_traits@D@std@@V?$allocator@D@2@@std@@@2@@std@@QAE@XZ 100a77e0 f i CPlugin.obj
 0002:00030830       ??1?$unique_lock@Vmutex@std@@@std@@QAE@XZ 100a7830 f i CPlugin.obj
 0002:000308e0       ??1?$unique_ptr@VCConfig@@U?$default_delete@VCConfig@@@std@@@std@@QAE@XZ 100a78e0 f i CPlugin.obj
 0002:00030960       ??1?$unique_ptr@VCPlugin@@U?$default_delete@VCPlugin@@@std@@@std@@QAE@XZ 100a7960 f i CPlugin.obj
 0002:000309e0       ??1?$unique_ptr@VCServer@@U?$default_delete@VCServer@@@std@@@std@@QAE@XZ 100a79e0 f i CPlugin.obj
 0002:00030a60       ??1?$unordered_map@GKU?$hash@G@std@@U?$equal_to@G@2@V?$allocator@U?$pair@$$CBGK@std@@@2@@std@@QAE@XZ 100a7a60 f i CPlugin.obj
 0002:00030ab0       ??1?$vector@V?$basic_string@DU?$char_traits@D@std@@V?$allocator@D@2@@std@@V?$allocator@V?$basic_string@DU?$char_traits@D@std@@V?$allocator@D@2@@std@@@2@@std@@QAE@XZ 100a7ab0 f i CPlugin.obj
 0002:00030b90       ??1CPlugin@@UAE@XZ         100a7b90 f   CPlugin.obj
 0002:00030c50       ??1SysExec_t@CPlugin@@QAE@XZ 100a7c50 f i CPlugin.obj
 0002:00030ca0       ??1_Bxty@?$_String_val@U?$_Simple_types@D@std@@@std@@QAE@XZ 100a7ca0 f i CPlugin.obj
 0002:00030cf0       ??1_Clear_guard@?$_Hash@V?$_Umap_traits@GKV?$_Uhash_compare@GU?$hash@G@std@@U?$equal_to@G@2@@std@@V?$allocator@U?$pair@$$CBGK@std@@@2@$0A@@std@@@std@@QAE@XZ 100a7cf0 f i CPlugin.obj
 0002:00030d60       ??1_Clear_guard@?$_Hash@V?$_Umap_traits@GVCVector@@V?$_Uhash_compare@GU?$hash@G@std@@U?$equal_to@G@2@@std@@V?$allocator@U?$pair@$$CBGVCVector@@@std@@@3@$0A@@std@@@std@@QAE@XZ 100a7d60 f i CPlugin.obj
 0002:00030dd0       ??1_Clear_guard@?$_Hash@V?$_Umap_traits@IVCPlayerData@@V?$_Uhash_compare@IU?$hash@I@std@@U?$equal_to@I@2@@std@@V?$allocator@U?$pair@$$CBIVCPlayerData@@@std@@@3@$0A@@std@@@std@@QAE@XZ 100a7dd0 f i CPlugin.obj
 0002:00030e40       ??1_Mutex_base@std@@QAE@XZ 100a7e40 f i CPlugin.obj
 0002:00030eb0       ??1_Range_eraser@?$_Hash@V?$_Umap_traits@GKV?$_Uhash_compare@GU?$hash@G@std@@U?$equal_to@G@2@@std@@V?$allocator@U?$pair@$$CBGK@std@@@2@$0A@@std@@@std@@QAE@XZ 100a7eb0 f i CPlugin.obj
 0002:00030f20       ??1_Range_eraser@?$_Hash@V?$_Umap_traits@GVCVector@@V?$_Uhash_compare@GU?$hash@G@std@@U?$equal_to@G@2@@std@@V?$allocator@U?$pair@$$CBGVCVector@@@std@@@3@$0A@@std@@@std@@QAE@XZ 100a7f20 f i CPlugin.obj
 0002:00030f90       ??1_Range_eraser@?$_Hash@V?$_Umap_traits@IVCPlayerData@@V?$_Uhash_compare@IU?$hash@I@std@@U?$equal_to@I@2@@std@@V?$allocator@U?$pair@$$CBIVCPlayerData@@@std@@@3@$0A@@std@@@std@@QAE@XZ 100a7f90 f i CPlugin.obj
 0002:00031000       ??1bad_alloc@std@@UAE@XZ   100a8000 f i CPlugin.obj
 0002:00031050       ??1bad_array_new_length@std@@UAE@XZ 100a8050 f i CPlugin.obj
 0002:000310a0       ??1mutex@std@@QAE@XZ       100a80a0 f i CPlugin.obj
 0002:000310f0       ??1reference@?$bitset@$0DOI@@std@@QAE@XZ 100a80f0 f i CPlugin.obj
 0002:00031140       ??2@YAPAXIPAX@Z            100a8140 f i CPlugin.obj
 0002:00031190       ??8?$_List_const_iterator@V?$_List_val@U?$_List_simple_types@U?$pair@$$CBGK@std@@@std@@@std@@@std@@QBE_NABV01@@Z 100a8190 f i CPlugin.obj
 0002:000312b0       ??8?$_List_const_iterator@V?$_List_val@U?$_List_simple_types@U?$pair@$$CBGVCVector@@@std@@@std@@@std@@@std@@QBE_NABV01@@Z 100a82b0 f i CPlugin.obj
 0002:000313d0       ??8?$_List_const_iterator@V?$_List_val@U?$_List_simple_types@U?$pair@$$CBIVCPlayerData@@@std@@@std@@@std@@@std@@QBE_NABV01@@Z 100a83d0 f i CPlugin.obj
 0002:000314f0       ??8?$_List_unchecked_const_iterator@V?$_List_val@U?$_List_simple_types@U?$pair@$$CBGK@std@@@std@@@std@@U_Iterator_base0@2@@std@@QBE_NABV01@@Z 100a84f0 f i CPlugin.obj
 0002:00031580       ??8?$_List_unchecked_const_iterator@V?$_List_val@U?$_List_simple_types@U?$pair@$$CBGV?$shared_ptr@VCPlayerObjectAttachAddon@@@std@@@std@@@std@@@std@@U_Iterator_base0@2@@std@@QBE_NABV01@@Z 100a8580 f i CPlugin.obj
 0002:00031610       ??8?$_List_unchecked_const_iterator@V?$_List_val@U?$_List_simple_types@U?$pair@$$CBGVCVector@@@std@@@std@@@std@@U_Iterator_base0@2@@std@@QBE_NABV01@@Z 100a8610 f i CPlugin.obj
 0002:000316a0       ??8?$_List_unchecked_const_iterator@V?$_List_val@U?$_List_simple_types@U?$pair@$$CBIVCPlayerData@@@std@@@std@@@std@@U_Iterator_base0@2@@std@@QBE_NABV01@@Z 100a86a0 f i CPlugin.obj
 0002:00031730       ??8?$_Tree_const_iterator@V?$_Tree_val@U?$_Tree_simple_types@D@std@@@std@@@std@@QBE_NABV01@@Z 100a8730 f i CPlugin.obj
 0002:00031850       ??8?$_Tree_const_iterator@V?$_Tree_val@U?$_Tree_simple_types@G@std@@@std@@@std@@QBE_NABV01@@Z 100a8850 f i CPlugin.obj
 0002:00031970       ??8?$_Tree_unchecked_const_iterator@V?$_Tree_val@U?$_Tree_simple_types@D@std@@@std@@U_Iterator_base0@2@@std@@QBE_NABV01@@Z 100a8970 f i CPlugin.obj
 0002:00031a00       ??8?$_Tree_unchecked_const_iterator@V?$_Tree_val@U?$_Tree_simple_types@G@std@@@std@@U_Iterator_base0@2@@std@@QBE_NABV01@@Z 100a8a00 f i CPlugin.obj
 0002:00031a90       ??8?$_Vector_const_iterator@V?$_Vector_val@U?$_Simple_types@V?$basic_string@DU?$char_traits@D@std@@V?$allocator@D@2@@std@@@std@@@std@@@std@@QBE_NABV01@@Z 100a8a90 f i CPlugin.obj
 0002:00031b30       ??8std@@YA_NVid@thread@0@0@Z 100a8b30 f i CPlugin.obj
 0002:00031bb0       ??9?$_List_const_iterator@V?$_List_val@U?$_List_simple_types@U?$pair@$$CBGK@std@@@std@@@std@@@std@@QBE_NABV01@@Z 100a8bb0 f i CPlugin.obj
 0002:00031c40       ??9?$_List_const_iterator@V?$_List_val@U?$_List_simple_types@U?$pair@$$CBGVCVector@@@std@@@std@@@std@@@std@@QBE_NABV01@@Z 100a8c40 f i CPlugin.obj
 0002:00031cd0       ??9?$_List_unchecked_const_iterator@V?$_List_val@U?$_List_simple_types@U?$pair@$$CBGK@std@@@std@@@std@@U_Iterator_base0@2@@std@@QBE_NABV01@@Z 100a8cd0 f i CPlugin.obj
 0002:00031d60       ??9?$_List_unchecked_const_iterator@V?$_List_val@U?$_List_simple_types@U?$pair@$$CBGV?$shared_ptr@VCPlayerObjectAttachAddon@@@std@@@std@@@std@@@std@@U_Iterator_base0@2@@std@@QBE_NABV01@@Z 100a8d60 f i CPlugin.obj
 0002:00031df0       ??9?$_List_unchecked_const_iterator@V?$_List_val@U?$_List_simple_types@U?$pair@$$CBGVCVector@@@std@@@std@@@std@@U_Iterator_base0@2@@std@@QBE_NABV01@@Z 100a8df0 f i CPlugin.obj
 0002:00031e80       ??9?$_List_unchecked_const_iterator@V?$_List_val@U?$_List_simple_types@U?$pair@$$CBIVCPlayerData@@@std@@@std@@@std@@U_Iterator_base0@2@@std@@QBE_NABV01@@Z 100a8e80 f i CPlugin.obj
 0002:00031f10       ??9?$_Tree_const_iterator@V?$_Tree_val@U?$_Tree_simple_types@D@std@@@std@@@std@@QBE_NABV01@@Z 100a8f10 f i CPlugin.obj
 0002:00031fa0       ??9?$_Tree_const_iterator@V?$_Tree_val@U?$_Tree_simple_types@G@std@@@std@@@std@@QBE_NABV01@@Z 100a8fa0 f i CPlugin.obj
 0002:00032030       ??9?$_Tree_unchecked_const_iterator@V?$_Tree_val@U?$_Tree_simple_types@D@std@@@std@@U_Iterator_base0@2@@std@@QBE_NABV01@@Z 100a9030 f i CPlugin.obj
 0002:000320c0       ??9?$_Tree_unchecked_const_iterator@V?$_Tree_val@U?$_Tree_simple_types@G@std@@@std@@U_Iterator_base0@2@@std@@QBE_NABV01@@Z 100a90c0 f i CPlugin.obj
 0002:00032150       ??9?$_Vector_const_iterator@V?$_Vector_val@U?$_Simple_types@V?$basic_string@DU?$char_traits@D@std@@V?$allocator@D@2@@std@@@std@@@std@@@std@@QBE_NABV01@@Z 100a9150 f i CPlugin.obj
 0002:000321e0       ??A?$bitset@$0DOI@@std@@QAE?AVreference@01@I@Z 100a91e0 f i CPlugin.obj
 0002:00032280       ??A?$unordered_map@GVCVector@@U?$hash@G@std@@U?$equal_to@G@3@V?$allocator@U?$pair@$$CBGVCVector@@@std@@@3@@std@@QAEAAVCVector@@ABG@Z 100a9280 f i CPlugin.obj
 0002:000322f0       ??B?$ADDR@E@@QBEKXZ        100a92f0 f i CPlugin.obj
 0002:00032350       ??B?$unique_ptr@VCConfig@@U?$default_delete@VCConfig@@@std@@@std@@QBE_NXZ 100a9350 f i CPlugin.obj
 0002:000323d0       ??B?$unique_ptr@VCPlugin@@U?$default_delete@VCPlugin@@@std@@@std@@QBE_NXZ 100a93d0 f i CPlugin.obj
 0002:00032450       ??B?$unique_ptr@VCServer@@U?$default_delete@VCServer@@@std@@@std@@QBE_NXZ 100a9450 f i CPlugin.obj
 0002:000324d0       ??Breference@?$bitset@$0DOI@@std@@QBE_NXZ 100a94d0 f i CPlugin.obj
 0002:00032570       ??C?$_List_iterator@V?$_List_val@U?$_List_simple_types@U?$pair@$$CBGK@std@@@std@@@std@@@std@@QBEPAU?$pair@$$CBGK@1@XZ 100a9570 f i CPlugin.obj
 0002:000325e0       ??C?$_List_iterator@V?$_List_val@U?$_List_simple_types@U?$pair@$$CBIVCPlayerData@@@std@@@std@@@std@@@std@@QBEPAU?$pair@$$CBIVCPlayerData@@@1@XZ 100a95e0 f i CPlugin.obj
 0002:00032650       ??D?$ADDR@$$BY0A@UConsoleCommand_s@@@@QAEAAY0A@UConsoleCommand_s@@XZ 100a9650 f i CPlugin.obj
 0002:000326e0       ??D?$ADDR@E@@QAEAAEXZ      100a96e0 f i CPlugin.obj
 0002:00032770       ??D?$_Deque_unchecked_const_iterator@V?$_Deque_val@U?$_Deque_simple_types@USysExec_t@CPlugin@@@std@@@std@@@std@@QBEABUSysExec_t@CPlugin@@XZ 100a9770 f i CPlugin.obj
 0002:00032810       ??D?$_Deque_unchecked_iterator@V?$_Deque_val@U?$_Deque_simple_types@USysExec_t@CPlugin@@@std@@@std@@@std@@QBEAAUSysExec_t@CPlugin@@XZ 100a9810 f i CPlugin.obj
 0002:00032870       ??D?$_List_const_iterator@V?$_List_val@U?$_List_simple_types@U?$pair@$$CBGK@std@@@std@@@std@@@std@@QBEABU?$pair@$$CBGK@1@XZ 100a9870 f i CPlugin.obj
 0002:000329f0       ??D?$_List_const_iterator@V?$_List_val@U?$_List_simple_types@U?$pair@$$CBIVCPlayerData@@@std@@@std@@@std@@@std@@QBEABU?$pair@$$CBIVCPlayerData@@@1@XZ 100a99f0 f i CPlugin.obj
 0002:00032b70       ??D?$_List_iterator@V?$_List_val@U?$_List_simple_types@U?$pair@$$CBGK@std@@@std@@@std@@@std@@QBEAAU?$pair@$$CBGK@1@XZ 100a9b70 f i CPlugin.obj
 0002:00032bd0       ??D?$_List_iterator@V?$_List_val@U?$_List_simple_types@U?$pair@$$CBIVCPlayerData@@@std@@@std@@@std@@@std@@QBEAAU?$pair@$$CBIVCPlayerData@@@1@XZ 100a9bd0 f i CPlugin.obj
 0002:00032c30       ??D?$_List_unchecked_const_iterator@V?$_List_val@U?$_List_simple_types@U?$pair@$$CBGK@std@@@std@@@std@@U_Iterator_base0@2@@std@@QBEABU?$pair@$$CBGK@1@XZ 100a9c30 f i CPlugin.obj
 0002:00032c90       ??D?$_List_unchecked_const_iterator@V?$_List_val@U?$_List_simple_types@U?$pair@$$CBGV?$shared_ptr@VCPlayerObjectAttachAddon@@@std@@@std@@@std@@@std@@U_Iterator_base0@2@@std@@QBEABU?$pair@$$CBGV?$shared_ptr@VCPlayerObjectAttachAddon@@@std@@@1@XZ 100a9c90 f i CPlugin.obj
 0002:00032cf0       ??D?$_List_unchecked_const_iterator@V?$_List_val@U?$_List_simple_types@U?$pair@$$CBGVCVector@@@std@@@std@@@std@@U_Iterator_base0@2@@std@@QBEABU?$pair@$$CBGVCVector@@@1@XZ 100a9cf0 f i CPlugin.obj
 0002:00032d50       ??D?$_List_unchecked_const_iterator@V?$_List_val@U?$_List_simple_types@U?$pair@$$CBIVCPlayerData@@@std@@@std@@@std@@U_Iterator_base0@2@@std@@QBEABU?$pair@$$CBIVCPlayerData@@@1@XZ 100a9d50 f i CPlugin.obj
 0002:00032db0       ??D?$_List_unchecked_iterator@V?$_List_val@U?$_List_simple_types@U?$pair@$$CBGK@std@@@std@@@std@@@std@@QBEAAU?$pair@$$CBGK@1@XZ 100a9db0 f i CPlugin.obj
 0002:00032e10       ??D?$_List_unchecked_iterator@V?$_List_val@U?$_List_simple_types@U?$pair@$$CBGV?$shared_ptr@VCPlayerObjectAttachAddon@@@std@@@std@@@std@@@std@@@std@@QBEAAU?$pair@$$CBGV?$shared_ptr@VCPlayerObjectAttachAddon@@@std@@@1@XZ 100a9e10 f i CPlugin.obj
 0002:00032e70       ??D?$_List_unchecked_iterator@V?$_List_val@U?$_List_simple_types@U?$pair@$$CBGVCVector@@@std@@@std@@@std@@@std@@QBEAAU?$pair@$$CBGVCVector@@@1@XZ 100a9e70 f i CPlugin.obj
 0002:00032ed0       ??D?$_List_unchecked_iterator@V?$_List_val@U?$_List_simple_types@U?$pair@$$CBIVCPlayerData@@@std@@@std@@@std@@@std@@QBEAAU?$pair@$$CBIVCPlayerData@@@1@XZ 100a9ed0 f i CPlugin.obj
 0002:00032f30       ??E?$_List_unchecked_const_iterator@V?$_List_val@U?$_List_simple_types@U?$pair@$$CBGK@std@@@std@@@std@@U_Iterator_base0@2@@std@@QAEAAV01@XZ 100a9f30 f i CPlugin.obj
 0002:00032f90       ??E?$_List_unchecked_const_iterator@V?$_List_val@U?$_List_simple_types@U?$pair@$$CBGV?$shared_ptr@VCPlayerObjectAttachAddon@@@std@@@std@@@std@@@std@@U_Iterator_base0@2@@std@@QAEAAV01@XZ 100a9f90 f i CPlugin.obj
 0002:00032ff0       ??E?$_List_unchecked_const_iterator@V?$_List_val@U?$_List_simple_types@U?$pair@$$CBGVCVector@@@std@@@std@@@std@@U_Iterator_base0@2@@std@@QAEAAV01@XZ 100a9ff0 f i CPlugin.obj
 0002:00033050       ??E?$_List_unchecked_const_iterator@V?$_List_val@U?$_List_simple_types@U?$pair@$$CBIVCPlayerData@@@std@@@std@@@std@@U_Iterator_base0@2@@std@@QAEAAV01@XZ 100aa050 f i CPlugin.obj
 0002:000330b0       ??E?$_List_unchecked_iterator@V?$_List_val@U?$_List_simple_types@U?$pair@$$CBGK@std@@@std@@@std@@@std@@QAEAAV01@XZ 100aa0b0 f i CPlugin.obj
 0002:00033110       ??E?$_List_unchecked_iterator@V?$_List_val@U?$_List_simple_types@U?$pair@$$CBGV?$shared_ptr@VCPlayerObjectAttachAddon@@@std@@@std@@@std@@@std@@@std@@QAEAAV01@XZ 100aa110 f i CPlugin.obj
 0002:00033170       ??E?$_List_unchecked_iterator@V?$_List_val@U?$_List_simple_types@U?$pair@$$CBGVCVector@@@std@@@std@@@std@@@std@@QAEAAV01@XZ 100aa170 f i CPlugin.obj
 0002:000331d0       ??E?$_List_unchecked_iterator@V?$_List_val@U?$_List_simple_types@U?$pair@$$CBIVCPlayerData@@@std@@@std@@@std@@@std@@QAEAAV01@XZ 100aa1d0 f i CPlugin.obj
 0002:00033230       ??E?$_Tree_unchecked_const_iterator@V?$_Tree_val@U?$_Tree_simple_types@D@std@@@std@@U_Iterator_base0@2@@std@@QAE?AV01@H@Z 100aa230 f i CPlugin.obj
 0002:000332e0       ??E?$_Tree_unchecked_const_iterator@V?$_Tree_val@U?$_Tree_simple_types@D@std@@@std@@U_Iterator_base0@2@@std@@QAEAAV01@XZ 100aa2e0 f i CPlugin.obj
 0002:000333b0       ??E?$_Tree_unchecked_const_iterator@V?$_Tree_val@U?$_Tree_simple_types@G@std@@@std@@U_Iterator_base0@2@@std@@QAE?AV01@H@Z 100aa3b0 f i CPlugin.obj
 0002:00033460       ??E?$_Tree_unchecked_const_iterator@V?$_Tree_val@U?$_Tree_simple_types@G@std@@@std@@U_Iterator_base0@2@@std@@QAEAAV01@XZ 100aa460 f i CPlugin.obj
 0002:00033530       ??F?$_List_unchecked_const_iterator@V?$_List_val@U?$_List_simple_types@U?$pair@$$CBGK@std@@@std@@@std@@U_Iterator_base0@2@@std@@QAEAAV01@XZ 100aa530 f i CPlugin.obj
 0002:000335a0       ??F?$_List_unchecked_const_iterator@V?$_List_val@U?$_List_simple_types@U?$pair@$$CBGVCVector@@@std@@@std@@@std@@U_Iterator_base0@2@@std@@QAEAAV01@XZ 100aa5a0 f i CPlugin.obj
 0002:00033610       ??F?$_List_unchecked_const_iterator@V?$_List_val@U?$_List_simple_types@U?$pair@$$CBIVCPlayerData@@@std@@@std@@@std@@U_Iterator_base0@2@@std@@QAEAAV01@XZ 100aa610 f i CPlugin.obj
 0002:00033680       ??F?$_Tree_unchecked_const_iterator@V?$_Tree_val@U?$_Tree_simple_types@D@std@@@std@@U_Iterator_base0@2@@std@@QAEAAV01@XZ 100aa680 f i CPlugin.obj
 0002:00033780       ??G?$_Vector_const_iterator@V?$_Vector_val@U?$_Simple_types@V?$basic_string@DU?$char_traits@D@std@@V?$allocator@D@2@@std@@@std@@@std@@@std@@QBEHABV01@@Z 100aa780 f i CPlugin.obj
 0002:00033800       ??IRPCID@@QBEPAEXZ         100aa800 f i CPlugin.obj
 0002:00033870       ??R<lambda_9366063389c5f42a00a5088cf24e69de>@@QBE@QADIQBD@Z 100aa870 f i CPlugin.obj
 0002:00033990       ??R<lambda_ab246b20b9526e2ef7792587e4298a77>@@QBE@QADQBDI1I@Z 100aa990 f i CPlugin.obj
 0002:00033a40       ??R?$_Conditionally_enabled_hash@G$00@std@@QBEIABG@Z 100aaa40 f i CPlugin.obj
 0002:00033aa0       ??R?$_Conditionally_enabled_hash@I$00@std@@QBEIABI@Z 100aaaa0 f i CPlugin.obj
 0002:00033b00       ??R?$default_delete@VCConfig@@@std@@QBEXPAVCConfig@@@Z 100aab00 f i CPlugin.obj
 0002:00033bb0       ??R?$default_delete@VCPlugin@@@std@@QBEXPAVCPlugin@@@Z 100aabb0 f i CPlugin.obj
 0002:00033c60       ??R?$default_delete@VCServer@@@std@@QBEXPAVCServer@@@Z 100aac60 f i CPlugin.obj
 0002:00033d10       ??R?$equal_to@G@std@@QBE_NABG0@Z 100aad10 f i CPlugin.obj
 0002:00033da0       ??R?$equal_to@I@std@@QBE_NABI0@Z 100aada0 f i CPlugin.obj
 0002:00033e30       ??R?$less@D@std@@QBE_NABD0@Z 100aae30 f i CPlugin.obj
 0002:00033ec0       ??R?$less@G@std@@QBE_NABG0@Z 100aaec0 f i CPlugin.obj
 0002:00033f50       ??_G?$CSingleton@VCPlugin@@@@UAEPAXI@Z 100aaf50 f i CPlugin.obj
 0002:00033f50       ??_E?$CSingleton@VCPlugin@@@@UAEPAXI@Z 100aaf50 f i CPlugin.obj
 0002:00033fc0       ??_G?$basic_string@DU?$char_traits@D@std@@V?$allocator@D@2@@std@@QAEPAXI@Z 100aafc0 f i CPlugin.obj
 0002:00034030       ??_G?$pair@$$CBIVCPlayerData@@@std@@QAEPAXI@Z 100ab030 f i CPlugin.obj
 0002:000340a0       ??_ECPlugin@@UAEPAXI@Z     100ab0a0 f i CPlugin.obj
 0002:000340a0       ??_GCPlugin@@UAEPAXI@Z     100ab0a0 f i CPlugin.obj
 0002:00034110       ??_GSysExec_t@CPlugin@@QAEPAXI@Z 100ab110 f i CPlugin.obj
 0002:00034180       ??_Ebad_alloc@std@@UAEPAXI@Z 100ab180 f i CPlugin.obj
 0002:00034180       ??_Gbad_alloc@std@@UAEPAXI@Z 100ab180 f i CPlugin.obj
 0002:000341f0       ??_Ebad_array_new_length@std@@UAEPAXI@Z 100ab1f0 f i CPlugin.obj
 0002:000341f0       ??_Gbad_array_new_length@std@@UAEPAXI@Z 100ab1f0 f i CPlugin.obj
 0002:00034260       ?AddConsolePlayer@CPlugin@@QAEXGK@Z 100ab260 f   CPlugin.obj
 0002:000343d0       ?AddPlayer@CPlugin@@QAEXH@Z 100ab3d0 f   CPlugin.obj
 0002:00034440       ?AllowNickNameCharacter@CPlugin@@QAEXD_N@Z 100ab440 f   CPlugin.obj
 0002:000344e0       ?BuildSyncData@CPlugin@@QAEPAVBitStream@RakNet@@PAV23@G@Z 100ab4e0 f   CPlugin.obj
 0002:00035450       ?ChangeRCONCommandName@CPlugin@@QAE_NABV?$basic_string@DU?$char_traits@D@std@@V?$allocator@D@2@@std@@0@Z 100ac450 f   CPlugin.obj
 0002:00035720       ?Extra@?$CExtendedPool@PAUCPlayer@@$0DOI@VCPlayerData@@@@QAEAAVCPlayerData@@I@Z 100ac720 f i CPlugin.obj
 0002:000358f0       ?FindNPCProcessID@CPlugin@@QAEHG@Z 100ac8f0 f   CPlugin.obj
 0002:00035970       ?Get@?$CSingleton@VCPlugin@@@@SAPAVCPlugin@@XZ 100ac970 f i CPlugin.obj
 0002:00035a10       ?Get@?$CSingleton@VCServer@@@@SAPAVCServer@@XZ 100aca10 f i CPlugin.obj
 0002:00035ab0       ?GetExclusiveBroadcast@CPlugin@@QAE_NXZ 100acab0 f   CPlugin.obj
 0002:00035b10       ?GetMaxPlayers@CPlugin@@QAEGXZ 100acb10 f   CPlugin.obj
 0002:00035c00       ?GetNPCCommandLine@CPlugin@@QAEPADG@Z 100acc00 f   CPlugin.obj
 0002:00035c80       ?GetNPCCount@CPlugin@@QAEGXZ 100acc80 f   CPlugin.obj
 0002:00035d50       ?GetPlayerCount@CPlugin@@QAEGXZ 100acd50 f   CPlugin.obj
 0002:00035e70       ?GetRCONCommandName@CPlugin@@QAE_NABV?$basic_string@DU?$char_traits@D@std@@V?$allocator@D@2@@std@@AAV23@@Z 100ace70 f   CPlugin.obj
 0002:000360e0       ?GetReadOffset@BitStream@RakNet@@QBEHXZ 100ad0e0 f i CPlugin.obj
 0002:00036140       ?HiddenInQuery@CPlayerData@@QAE_NXZ 100ad140 f i CPlugin.obj
 0002:000361e0       ?IsConsolePlayer@CPlugin@@QAE_NGAAK@Z 100ad1e0 f   CPlugin.obj
 0002:00036330       ?IsExtendedNetStatsEnabled@CPlugin@@QAE_NXZ 100ad330 f   CPlugin.obj
 0002:000363e0       ?IsMainThread@CPlugin@@QBE_NXZ 100ad3e0 f   CPlugin.obj
 0002:00036460       ?IsNPCOnQueryEnabled@CPlugin@@QAE_NXZ 100ad460 f i CPlugin.obj
 0002:000364c0       ?IsNPCOnScoreboardEnabled@CPlugin@@QAE_NXZ 100ad4c0 f i CPlugin.obj
 0002:00036520       ?IsNickNameCharacterAllowed@CPlugin@@QAE_ND@Z 100ad520 f   CPlugin.obj
 0002:00036650       ?IsValidNick@CPlugin@@QAE_NPAD@Z 100ad650 f   CPlugin.obj
 0002:000366e0       ?LoadTickCount@@YAXXZ      100ad6e0 f i CPlugin.obj
 0002:00036730       ?OnPlayerStreamIn@CPlugin@@QAE_NGG@Z 100ad730 f   CPlugin.obj
 0002:00036d10       ?OnPlayerStreamOut@CPlugin@@QAE_NGG@Z 100add10 f   CPlugin.obj
 0002:00037010       ?Process@CPlugin@@QAEXXZ   100ae010 f   CPlugin.obj
 0002:00037130       ?ProcessConsoleMessages@CPlugin@@QAEXPBD@Z 100ae130 f   CPlugin.obj
 0002:00037420       ?ProcessSysExec@CPlugin@@AAEXXZ 100ae420 f   CPlugin.obj
 0002:00037710       ?RebuildRPCData@CPlugin@@QAE_NEPAVBitStream@RakNet@@G@Z 100ae710 f   CPlugin.obj
 0002:00038430       ?RemoveConsolePlayer@CPlugin@@QAEXG@Z 100af430 f   CPlugin.obj
 0002:00038580       ?RemoveExtra@?$CExtendedPool@PAUCPlayer@@$0DOI@VCPlayerData@@@@QAE_NI@Z 100af580 f i CPlugin.obj
 0002:00038610       ?RemovePlayer@CPlugin@@QAE_NH@Z 100af610 f   CPlugin.obj
 0002:00038680       ?SetExclusiveBroadcast@CPlugin@@QAEX_N@Z 100af680 f   CPlugin.obj
 0002:00038750       ?SetExtendedNetStatsEnabled@CPlugin@@QAEX_N@Z 100af750 f   CPlugin.obj
 0002:00038830       ?SetReadOffset@BitStream@RakNet@@QAEXH@Z 100af830 f i CPlugin.obj
 0002:00038890       ?_Adjust_manually_vector_aligned@std@@YAXAAPAXAAI@Z 100af890 f i CPlugin.obj
 0002:00038a60       ?_Adopt@_Iterator_base0@std@@QAEXPBX@Z 100afa60 f i CPlugin.obj
 0002:00038ab0       ?_Alloc_sentinel_and_proxy@?$_Tree@V?$_Tset_traits@DU?$less@D@std@@V?$allocator@D@2@$0A@@std@@@std@@IAEXXZ 100afab0 f i CPlugin.obj
 0002:00038c00       ?_Alloc_sentinel_and_proxy@?$_Tree@V?$_Tset_traits@V?$basic_string@DU?$char_traits@D@std@@V?$allocator@D@2@@std@@U?$less@V?$basic_string@DU?$char_traits@D@std@@V?$allocator@D@2@@std@@@2@V?$allocator@V?$basic_string@DU?$char_traits@D@std@@V?$allocator@D@2@@std@@@2@$0A@@std@@@std@@IAEXXZ 100afc00 f i CPlugin.obj
 0002:00038d50       ?_Alloc_sentinel_and_proxy@?$list@U?$pair@$$CBGK@std@@V?$allocator@U?$pair@$$CBGK@std@@@2@@std@@AAEXXZ 100afd50 f i CPlugin.obj
 0002:00038ef0       ?_Allocate@?$_Alloc_construct_ptr@V?$allocator@U?$_List_node@U?$pair@$$CBGK@std@@PAX@std@@@std@@@std@@QAEXXZ 100afef0 f i CPlugin.obj
 0002:00038f60       ?_Allocate@?$_Alloc_construct_ptr@V?$allocator@U?$_List_node@U?$pair@$$CBGVCVector@@@std@@PAX@std@@@std@@@std@@QAEXXZ 100aff60 f i CPlugin.obj
 0002:00038fd0       ?_Allocate@?$_Alloc_construct_ptr@V?$allocator@U?$_List_node@U?$pair@$$CBIVCPlayerData@@@std@@PAX@std@@@std@@@std@@QAEXXZ 100affd0 f i CPlugin.obj
 0002:00039040       ?_Allocate@?$_Alloc_construct_ptr@V?$allocator@U?$_Tree_node@DPAX@std@@@std@@@std@@QAEXXZ 100b0040 f i CPlugin.obj
 0002:000390b0       ?_Allocate@?$_Alloc_construct_ptr@V?$allocator@U?$_Tree_node@GPAX@std@@@std@@@std@@QAEXXZ 100b00b0 f i CPlugin.obj
 0002:00039120       ?_Allocate@_Default_allocate_traits@std@@SAPAXI@Z 100b0120 f i CPlugin.obj
 0002:00039180       ?_Assign_grow@?$_Hash_vec@V?$allocator@V?$_List_unchecked_iterator@V?$_List_val@U?$_List_simple_types@U?$pair@$$CBGK@std@@@std@@@std@@@std@@@std@@@std@@QAEXIV?$_List_unchecked_iterator@V?$_List_val@U?$_List_simple_types@U?$pair@$$CBGK@std@@@std@@@std@@@2@@Z 100b0180 f i CPlugin.obj
 0002:000392b0       ?_Assign_grow@?$_Hash_vec@V?$allocator@V?$_List_unchecked_iterator@V?$_List_val@U?$_List_simple_types@U?$pair@$$CBGVCVector@@@std@@@std@@@std@@@std@@@std@@@std@@QAEXIV?$_List_unchecked_iterator@V?$_List_val@U?$_List_simple_types@U?$pair@$$CBGVCVector@@@std@@@std@@@std@@@2@@Z 100b02b0 f i CPlugin.obj
 0002:000393e0       ?_Assign_grow@?$_Hash_vec@V?$allocator@V?$_List_unchecked_iterator@V?$_List_val@U?$_List_simple_types@U?$pair@$$CBIVCPlayerData@@@std@@@std@@@std@@@std@@@std@@@std@@QAEXIV?$_List_unchecked_iterator@V?$_List_val@U?$_List_simple_types@U?$pair@$$CBIVCPlayerData@@@std@@@std@@@std@@@2@@Z 100b03e0 f i CPlugin.obj
 0002:00039510       ?_Bump_erased@_Range_eraser@?$_Hash@V?$_Umap_traits@GKV?$_Uhash_compare@GU?$hash@G@std@@U?$equal_to@G@2@@std@@V?$allocator@U?$pair@$$CBGK@std@@@2@$0A@@std@@@std@@QAEXXZ 100b0510 f i CPlugin.obj
 0002:00039570       ?_Bump_erased@_Range_eraser@?$_Hash@V?$_Umap_traits@GVCVector@@V?$_Uhash_compare@GU?$hash@G@std@@U?$equal_to@G@2@@std@@V?$allocator@U?$pair@$$CBGVCVector@@@std@@@3@$0A@@std@@@std@@QAEXXZ 100b0570 f i CPlugin.obj
 0002:000395d0       ?_Bump_erased@_Range_eraser@?$_Hash@V?$_Umap_traits@IVCPlayerData@@V?$_Uhash_compare@IU?$hash@I@std@@U?$equal_to@I@2@@std@@V?$allocator@U?$pair@$$CBIVCPlayerData@@@std@@@3@$0A@@std@@@std@@QAEXXZ 100b05d0 f i CPlugin.obj
 0002:00039630       ?_Calculate_growth@?$basic_string@DU?$char_traits@D@std@@V?$allocator@D@2@@std@@ABEII@Z 100b0630 f i CPlugin.obj
 0002:000396b0       ?_Calculate_growth@?$basic_string@DU?$char_traits@D@std@@V?$allocator@D@2@@std@@CAIIII@Z 100b06b0 f i CPlugin.obj
 0002:000397a0       ?_Calculate_growth@?$vector@V?$basic_string@DU?$char_traits@D@std@@V?$allocator@D@2@@std@@V?$allocator@V?$basic_string@DU?$char_traits@D@std@@V?$allocator@D@2@@std@@@2@@std@@ABEII@Z 100b07a0 f i CPlugin.obj
 0002:00039850       ?_Ceiling_of_log_2@std@@YAKI@Z 100b0850 f i CPlugin.obj
 0002:000398b0       ?_Change_array@?$vector@V?$basic_string@DU?$char_traits@D@std@@V?$allocator@D@2@@std@@V?$allocator@V?$basic_string@DU?$char_traits@D@std@@V?$allocator@D@2@@std@@@2@@std@@AAEXQAV?$basic_string@DU?$char_traits@D@std@@V?$allocator@D@2@@2@II@Z 100b08b0 f i CPlugin.obj
 0002:000399b0       ?_Check_grow_by_1@?$_Tree@V?$_Tset_traits@DU?$less@D@std@@V?$allocator@D@2@$0A@@std@@@std@@IAEXXZ 100b09b0 f i CPlugin.obj
 0002:00039a20       ?_Check_grow_by_1@?$_Tree@V?$_Tset_traits@GU?$less@G@std@@V?$allocator@G@2@$0A@@std@@@std@@IAEXXZ 100b0a20 f i CPlugin.obj
 0002:00039a90       ?_Check_max_size@?$_Hash@V?$_Umap_traits@GKV?$_Uhash_compare@GU?$hash@G@std@@U?$equal_to@G@2@@std@@V?$allocator@U?$pair@$$CBGK@std@@@2@$0A@@std@@@std@@IBEXXZ 100b0a90 f i CPlugin.obj
 0002:00039b10       ?_Check_max_size@?$_Hash@V?$_Umap_traits@GVCVector@@V?$_Uhash_compare@GU?$hash@G@std@@U?$equal_to@G@2@@std@@V?$allocator@U?$pair@$$CBGVCVector@@@std@@@3@$0A@@std@@@std@@IBEXXZ 100b0b10 f i CPlugin.obj
 0002:00039b90       ?_Check_max_size@?$_Hash@V?$_Umap_traits@IVCPlayerData@@V?$_Uhash_compare@IU?$hash@I@std@@U?$equal_to@I@2@@std@@V?$allocator@U?$pair@$$CBIVCPlayerData@@@std@@@3@$0A@@std@@@std@@IBEXXZ 100b0b90 f i CPlugin.obj
 0002:00039c10       ?_Check_rehash_required_1@?$_Hash@V?$_Umap_traits@GKV?$_Uhash_compare@GU?$hash@G@std@@U?$equal_to@G@2@@std@@V?$allocator@U?$pair@$$CBGK@std@@@2@$0A@@std@@@std@@IBE_NXZ 100b0c10 f i CPlugin.obj
 0002:00039d70       ?_Check_rehash_required_1@?$_Hash@V?$_Umap_traits@GVCVector@@V?$_Uhash_compare@GU?$hash@G@std@@U?$equal_to@G@2@@std@@V?$allocator@U?$pair@$$CBGVCVector@@@std@@@3@$0A@@std@@@std@@IBE_NXZ 100b0d70 f i CPlugin.obj
 0002:00039ed0       ?_Check_rehash_required_1@?$_Hash@V?$_Umap_traits@IVCPlayerData@@V?$_Uhash_compare@IU?$hash@I@std@@U?$equal_to@I@2@@std@@V?$allocator@U?$pair@$$CBIVCPlayerData@@@std@@@3@$0A@@std@@@std@@IBE_NXZ 100b0ed0 f i CPlugin.obj
 0002:0003a030       ?_Compat@?$_Vector_const_iterator@V?$_Vector_val@U?$_Simple_types@V?$basic_string@DU?$char_traits@D@std@@V?$allocator@D@2@@std@@@std@@@std@@@std@@QBEXABV12@@Z 100b1030 f i CPlugin.obj
 0002:0003a120       ?_Construct_lv_contents@?$basic_string@DU?$char_traits@D@std@@V?$allocator@D@2@@std@@AAEXABV12@@Z 100b1120 f i CPlugin.obj
 0002:0003a300       ?_Desired_grow_bucket_count@?$_Hash@V?$_Umap_traits@GKV?$_Uhash_compare@GU?$hash@G@std@@U?$equal_to@G@2@@std@@V?$allocator@U?$pair@$$CBGK@std@@@2@$0A@@std@@@std@@IBEII@Z 100b1300 f i CPlugin.obj
 0002:0003a3d0       ?_Desired_grow_bucket_count@?$_Hash@V?$_Umap_traits@GVCVector@@V?$_Uhash_compare@GU?$hash@G@std@@U?$equal_to@G@2@@std@@V?$allocator@U?$pair@$$CBGVCVector@@@std@@@3@$0A@@std@@@std@@IBEII@Z 100b13d0 f i CPlugin.obj
 0002:0003a4a0       ?_Desired_grow_bucket_count@?$_Hash@V?$_Umap_traits@IVCPlayerData@@V?$_Uhash_compare@IU?$hash@I@std@@U?$equal_to@I@2@@std@@V?$allocator@U?$pair@$$CBIVCPlayerData@@@std@@@3@$0A@@std@@@std@@IBEII@Z 100b14a0 f i CPlugin.obj
 0002:0003a570       ?_Destroy@?$vector@V?$basic_string@DU?$char_traits@D@std@@V?$allocator@D@2@@std@@V?$allocator@V?$basic_string@DU?$char_traits@D@std@@V?$allocator@D@2@@std@@@2@@std@@AAEXPAV?$basic_string@DU?$char_traits@D@std@@V?$allocator@D@2@@2@0@Z 100b1570 f i CPlugin.obj
 0002:0003a5e0       ?_Do_hash@?$hash@G@std@@SAIABG@Z 100b15e0 f i CPlugin.obj
 0002:0003a640       ?_Do_hash@?$hash@I@std@@SAIABI@Z 100b1640 f i CPlugin.obj
 0002:0003a6a0       ?_Equal@?$basic_string@DU?$char_traits@D@std@@V?$allocator@D@2@@std@@QBE_NABV12@@Z 100b16a0 f i CPlugin.obj
 0002:0003a730       ?_Erase_bucket@?$_Hash@V?$_Umap_traits@GKV?$_Uhash_compare@GU?$hash@G@std@@U?$equal_to@G@2@@std@@V?$allocator@U?$pair@$$CBGK@std@@@2@$0A@@std@@@std@@IAEXPAU?$_List_node@U?$pair@$$CBGK@std@@PAX@2@I@Z 100b1730 f i CPlugin.obj
 0002:0003a810       ?_Erase_bucket@?$_Hash@V?$_Umap_traits@IVCPlayerData@@V?$_Uhash_compare@IU?$hash@I@std@@U?$equal_to@I@2@@std@@V?$allocator@U?$pair@$$CBIVCPlayerData@@@std@@@3@$0A@@std@@@std@@IAEXPAU?$_List_node@U?$pair@$$CBIVCPlayerData@@@std@@PAX@2@I@Z 100b1810 f i CPlugin.obj
 0002:0003a8f0       ?_Erase_unchecked@?$_Tree@V?$_Tset_traits@DU?$less@D@std@@V?$allocator@D@2@$0A@@std@@@std@@AAEPAU?$_Tree_node@DPAX@2@V?$_Tree_unchecked_const_iterator@V?$_Tree_val@U?$_Tree_simple_types@D@std@@@std@@U_Iterator_base0@2@@2@0@Z 100b18f0 f i CPlugin.obj
 0002:0003aa00       ?_Erase_unchecked@?$_Tree@V?$_Tset_traits@DU?$less@D@std@@V?$allocator@D@2@$0A@@std@@@std@@AAEPAU?$_Tree_node@DPAX@2@V?$_Tree_unchecked_const_iterator@V?$_Tree_val@U?$_Tree_simple_types@D@std@@@std@@U_Iterator_base0@2@@2@@Z 100b1a00 f i CPlugin.obj
 0002:0003aaf0       ?_Erase_unchecked@?$_Tree@V?$_Tset_traits@GU?$less@G@std@@V?$allocator@G@2@$0A@@std@@@std@@AAEPAU?$_Tree_node@GPAX@2@V?$_Tree_unchecked_const_iterator@V?$_Tree_val@U?$_Tree_simple_types@G@std@@@std@@U_Iterator_base0@2@@2@0@Z 100b1af0 f i CPlugin.obj
 0002:0003ac00       ?_Erase_unchecked@?$_Tree@V?$_Tset_traits@GU?$less@G@std@@V?$allocator@G@2@$0A@@std@@@std@@AAEPAU?$_Tree_node@GPAX@2@V?$_Tree_unchecked_const_iterator@V?$_Tree_val@U?$_Tree_simple_types@G@std@@@std@@U_Iterator_base0@2@@2@@Z 100b1c00 f i CPlugin.obj
 0002:0003acf0       ?_Extract@?$_In_place_key_extract_map@GGK@std@@SAABGABGABK@Z 100b1cf0 f i CPlugin.obj
 0002:0003ad40       ?_Extract@?$_In_place_key_extract_map@III@std@@SAABIABI0@Z 100b1d40 f i CPlugin.obj
 0002:0003ad90       ?_Extract@?$_In_place_key_extract_set@DD@std@@SAABDABD@Z 100b1d90 f i CPlugin.obj
 0002:0003ade0       ?_Extract@?$_In_place_key_extract_set@GG@std@@SAABGABG@Z 100b1de0 f i CPlugin.obj
 0002:0003ae30       ?_Extract@?$_Tree_val@U?$_Tree_simple_types@D@std@@@std@@QAEPAU?$_Tree_node@DPAX@2@V?$_Tree_unchecked_const_iterator@V?$_Tree_val@U?$_Tree_simple_types@D@std@@@std@@U_Iterator_base0@2@@2@@Z 100b1e30 f i CPlugin.obj
 0002:0003b3c0       ?_Extract@?$_Tree_val@U?$_Tree_simple_types@G@std@@@std@@QAEPAU?$_Tree_node@GPAX@2@V?$_Tree_unchecked_const_iterator@V?$_Tree_val@U?$_Tree_simple_types@G@std@@@std@@U_Iterator_base0@2@@2@@Z 100b23c0 f i CPlugin.obj
 0002:0003b950       ?_Floor_of_log_2@std@@YAKI@Z 100b2950 f i CPlugin.obj
 0002:0003b9f0       ?_Fnv1a_append_bytes@std@@YAIIQBEI@Z 100b29f0 f i CPlugin.obj
 0002:0003ba80       ?_Forced_rehash@?$_Hash@V?$_Umap_traits@GKV?$_Uhash_compare@GU?$hash@G@std@@U?$equal_to@G@2@@std@@V?$allocator@U?$pair@$$CBGK@std@@@2@$0A@@std@@@std@@IAEXI@Z 100b2a80 f i CPlugin.obj
 0002:0003bec0       ?_Forced_rehash@?$_Hash@V?$_Umap_traits@GVCVector@@V?$_Uhash_compare@GU?$hash@G@std@@U?$equal_to@G@2@@std@@V?$allocator@U?$pair@$$CBGVCVector@@@std@@@3@$0A@@std@@@std@@IAEXI@Z 100b2ec0 f i CPlugin.obj
 0002:0003c300       ?_Forced_rehash@?$_Hash@V?$_Umap_traits@IVCPlayerData@@V?$_Uhash_compare@IU?$hash@I@std@@U?$equal_to@I@2@@std@@V?$allocator@U?$pair@$$CBIVCPlayerData@@@std@@@3@$0A@@std@@@std@@IAEXI@Z 100b3300 f i CPlugin.obj
 0002:0003c740       ?_Get_data@?$deque@USysExec_t@CPlugin@@V?$allocator@USysExec_t@CPlugin@@@std@@@std@@AAEAAV?$_Deque_val@U?$_Deque_simple_types@USysExec_t@CPlugin@@@std@@@2@XZ 100b3740 f i CPlugin.obj
 0002:0003c7a0       ?_Get_data@?$deque@USysExec_t@CPlugin@@V?$allocator@USysExec_t@CPlugin@@@std@@@std@@ABEABV?$_Deque_val@U?$_Deque_simple_types@USysExec_t@CPlugin@@@std@@@2@XZ 100b37a0 f i CPlugin.obj
 0002:0003c800       ?_Get_first@?$_Compressed_pair@U?$default_delete@VCConfig@@@std@@PAVCConfig@@$00@std@@QAEAAU?$default_delete@VCConfig@@@2@XZ 100b3800 f i CPlugin.obj
 0002:0003c860       ?_Get_first@?$_Compressed_pair@U?$default_delete@VCPlugin@@@std@@PAVCPlugin@@$00@std@@QAEAAU?$default_delete@VCPlugin@@@2@XZ 100b3860 f i CPlugin.obj
 0002:0003c8c0       ?_Get_first@?$_Compressed_pair@U?$default_delete@VCServer@@@std@@PAVCServer@@$00@std@@QAEAAU?$default_delete@VCServer@@@2@XZ 100b38c0 f i CPlugin.obj
 0002:0003c920       ?_Get_first@?$_Compressed_pair@U?$equal_to@G@std@@M$00@std@@QBEABU?$equal_to@G@2@XZ 100b3920 f i CPlugin.obj
 0002:0003c980       ?_Get_first@?$_Compressed_pair@U?$equal_to@I@std@@M$00@std@@QBEABU?$equal_to@I@2@XZ 100b3980 f i CPlugin.obj
 0002:0003c9e0       ?_Get_first@?$_Compressed_pair@U?$hash@G@std@@V?$_Compressed_pair@U?$equal_to@G@std@@M$00@2@$00@std@@QBEABU?$hash@G@2@XZ 100b39e0 f i CPlugin.obj
 0002:0003ca40       ?_Get_first@?$_Compressed_pair@U?$hash@I@std@@V?$_Compressed_pair@U?$equal_to@I@std@@M$00@2@$00@std@@QBEABU?$hash@I@2@XZ 100b3a40 f i CPlugin.obj
 0002:0003caa0       ?_Get_first@?$_Compressed_pair@U?$less@D@std@@V?$_Compressed_pair@V?$allocator@U?$_Tree_node@DPAX@std@@@std@@V?$_Tree_val@U?$_Tree_simple_types@D@std@@@2@$00@2@$00@std@@QBEABU?$less@D@2@XZ 100b3aa0 f i CPlugin.obj
 0002:0003cb00       ?_Get_first@?$_Compressed_pair@U?$less@G@std@@V?$_Compressed_pair@V?$allocator@U?$_Tree_node@GPAX@std@@@std@@V?$_Tree_val@U?$_Tree_simple_types@G@std@@@2@$00@2@$00@std@@QBEABU?$less@G@2@XZ 100b3b00 f i CPlugin.obj
 0002:0003cb60       ?_Get_first@?$_Compressed_pair@V?$allocator@D@std@@V?$_String_val@U?$_Simple_types@D@std@@@2@$00@std@@QAEAAV?$allocator@D@2@XZ 100b3b60 f i CPlugin.obj
 0002:0003cbc0       ?_Get_first@?$_Compressed_pair@V?$allocator@D@std@@V?$_String_val@U?$_Simple_types@D@std@@@2@$00@std@@QBEABV?$allocator@D@2@XZ 100b3bc0 f i CPlugin.obj
 0002:0003cc20       ?_Get_first@?$_Compressed_pair@V?$allocator@U?$_List_node@U?$pair@$$CBGK@std@@PAX@std@@@std@@V?$_List_val@U?$_List_simple_types@U?$pair@$$CBGK@std@@@std@@@2@$00@std@@QAEAAV?$allocator@U?$_List_node@U?$pair@$$CBGK@std@@PAX@std@@@2@XZ 100b3c20 f i CPlugin.obj
 0002:0003cc80       ?_Get_first@?$_Compressed_pair@V?$allocator@U?$_List_node@U?$pair@$$CBGK@std@@PAX@std@@@std@@V?$_List_val@U?$_List_simple_types@U?$pair@$$CBGK@std@@@std@@@2@$00@std@@QBEABV?$allocator@U?$_List_node@U?$pair@$$CBGK@std@@PAX@std@@@2@XZ 100b3c80 f i CPlugin.obj
 0002:0003cce0       ?_Get_first@?$_Compressed_pair@V?$allocator@U?$_List_node@U?$pair@$$CBGVCVector@@@std@@PAX@std@@@std@@V?$_List_val@U?$_List_simple_types@U?$pair@$$CBGVCVector@@@std@@@std@@@2@$00@std@@QAEAAV?$allocator@U?$_List_node@U?$pair@$$CBGVCVector@@@std@@PAX@std@@@2@XZ 100b3ce0 f i CPlugin.obj
 0002:0003cd40       ?_Get_first@?$_Compressed_pair@V?$allocator@U?$_List_node@U?$pair@$$CBGVCVector@@@std@@PAX@std@@@std@@V?$_List_val@U?$_List_simple_types@U?$pair@$$CBGVCVector@@@std@@@std@@@2@$00@std@@QBEABV?$allocator@U?$_List_node@U?$pair@$$CBGVCVector@@@std@@PAX@std@@@2@XZ 100b3d40 f i CPlugin.obj
 0002:0003cda0       ?_Get_first@?$_Compressed_pair@V?$allocator@U?$_List_node@U?$pair@$$CBIVCPlayerData@@@std@@PAX@std@@@std@@V?$_List_val@U?$_List_simple_types@U?$pair@$$CBIVCPlayerData@@@std@@@std@@@2@$00@std@@QAEAAV?$allocator@U?$_List_node@U?$pair@$$CBIVCPlayerData@@@std@@PAX@std@@@2@XZ 100b3da0 f i CPlugin.obj
 0002:0003ce00       ?_Get_first@?$_Compressed_pair@V?$allocator@U?$_List_node@U?$pair@$$CBIVCPlayerData@@@std@@PAX@std@@@std@@V?$_List_val@U?$_List_simple_types@U?$pair@$$CBIVCPlayerData@@@std@@@std@@@2@$00@std@@QBEABV?$allocator@U?$_List_node@U?$pair@$$CBIVCPlayerData@@@std@@PAX@std@@@2@XZ 100b3e00 f i CPlugin.obj
 0002:0003ce60       ?_Get_first@?$_Compressed_pair@V?$allocator@U?$_Tree_node@DPAX@std@@@std@@V?$_Tree_val@U?$_Tree_simple_types@D@std@@@2@$00@std@@QAEAAV?$allocator@U?$_Tree_node@DPAX@std@@@2@XZ 100b3e60 f i CPlugin.obj
 0002:0003cec0       ?_Get_first@?$_Compressed_pair@V?$allocator@U?$_Tree_node@DPAX@std@@@std@@V?$_Tree_val@U?$_Tree_simple_types@D@std@@@2@$00@std@@QBEABV?$allocator@U?$_Tree_node@DPAX@std@@@2@XZ 100b3ec0 f i CPlugin.obj
 0002:0003cf20       ?_Get_first@?$_Compressed_pair@V?$allocator@U?$_Tree_node@GPAX@std@@@std@@V?$_Tree_val@U?$_Tree_simple_types@G@std@@@2@$00@std@@QAEAAV?$allocator@U?$_Tree_node@GPAX@std@@@2@XZ 100b3f20 f i CPlugin.obj
 0002:0003cf80       ?_Get_first@?$_Compressed_pair@V?$allocator@U?$_Tree_node@GPAX@std@@@std@@V?$_Tree_val@U?$_Tree_simple_types@G@std@@@2@$00@std@@QBEABV?$allocator@U?$_Tree_node@GPAX@std@@@2@XZ 100b3f80 f i CPlugin.obj
 0002:0003cfe0       ?_Get_first@?$_Compressed_pair@V?$allocator@U?$_Tree_node@V?$basic_string@DU?$char_traits@D@std@@V?$allocator@D@2@@std@@PAX@std@@@std@@V?$_Tree_val@U?$_Tree_simple_types@V?$basic_string@DU?$char_traits@D@std@@V?$allocator@D@2@@std@@@std@@@2@$00@std@@QAEAAV?$allocator@U?$_Tree_node@V?$basic_string@DU?$char_traits@D@std@@V?$allocator@D@2@@std@@PAX@std@@@2@XZ 100b3fe0 f i CPlugin.obj
 0002:0003d040       ?_Get_first@?$_Compressed_pair@V?$allocator@USysExec_t@CPlugin@@@std@@V?$_Deque_val@U?$_Deque_simple_types@USysExec_t@CPlugin@@@std@@@2@$00@std@@QAEAAV?$allocator@USysExec_t@CPlugin@@@2@XZ 100b4040 f i CPlugin.obj
 0002:0003d0a0       ?_Get_first@?$_Compressed_pair@V?$allocator@V?$_List_unchecked_iterator@V?$_List_val@U?$_List_simple_types@U?$pair@$$CBGK@std@@@std@@@std@@@std@@@std@@V?$_Vector_val@U?$_Simple_types@V?$_List_unchecked_iterator@V?$_List_val@U?$_List_simple_types@U?$pair@$$CBGK@std@@@std@@@std@@@std@@@std@@@2@$00@std@@QAEAAV?$allocator@V?$_List_unchecked_iterator@V?$_List_val@U?$_List_simple_types@U?$pair@$$CBGK@std@@@std@@@std@@@std@@@2@XZ 100b40a0 f i CPlugin.obj
 0002:0003d100       ?_Get_first@?$_Compressed_pair@V?$allocator@V?$_List_unchecked_iterator@V?$_List_val@U?$_List_simple_types@U?$pair@$$CBGK@std@@@std@@@std@@@std@@@std@@V?$_Vector_val@U?$_Simple_types@V?$_List_unchecked_iterator@V?$_List_val@U?$_List_simple_types@U?$pair@$$CBGK@std@@@std@@@std@@@std@@@std@@@2@$00@std@@QBEABV?$allocator@V?$_List_unchecked_iterator@V?$_List_val@U?$_List_simple_types@U?$pair@$$CBGK@std@@@std@@@std@@@std@@@2@XZ 100b4100 f i CPlugin.obj
 0002:0003d160       ?_Get_first@?$_Compressed_pair@V?$allocator@V?$_List_unchecked_iterator@V?$_List_val@U?$_List_simple_types@U?$pair@$$CBGVCVector@@@std@@@std@@@std@@@std@@@std@@V?$_Vector_val@U?$_Simple_types@V?$_List_unchecked_iterator@V?$_List_val@U?$_List_simple_types@U?$pair@$$CBGVCVector@@@std@@@std@@@std@@@std@@@std@@@2@$00@std@@QAEAAV?$allocator@V?$_List_unchecked_iterator@V?$_List_val@U?$_List_simple_types@U?$pair@$$CBGVCVector@@@std@@@std@@@std@@@std@@@2@XZ 100b4160 f i CPlugin.obj
 0002:0003d1c0       ?_Get_first@?$_Compressed_pair@V?$allocator@V?$_List_unchecked_iterator@V?$_List_val@U?$_List_simple_types@U?$pair@$$CBGVCVector@@@std@@@std@@@std@@@std@@@std@@V?$_Vector_val@U?$_Simple_types@V?$_List_unchecked_iterator@V?$_List_val@U?$_List_simple_types@U?$pair@$$CBGVCVector@@@std@@@std@@@std@@@std@@@std@@@2@$00@std@@QBEABV?$allocator@V?$_List_unchecked_iterator@V?$_List_val@U?$_List_simple_types@U?$pair@$$CBGVCVector@@@std@@@std@@@std@@@std@@@2@XZ 100b41c0 f i CPlugin.obj
 0002:0003d220       ?_Get_first@?$_Compressed_pair@V?$allocator@V?$_List_unchecked_iterator@V?$_List_val@U?$_List_simple_types@U?$pair@$$CBIVCPlayerData@@@std@@@std@@@std@@@std@@@std@@V?$_Vector_val@U?$_Simple_types@V?$_List_unchecked_iterator@V?$_List_val@U?$_List_simple_types@U?$pair@$$CBIVCPlayerData@@@std@@@std@@@std@@@std@@@std@@@2@$00@std@@QAEAAV?$allocator@V?$_List_unchecked_iterator@V?$_List_val@U?$_List_simple_types@U?$pair@$$CBIVCPlayerData@@@std@@@std@@@std@@@std@@@2@XZ 100b4220 f i CPlugin.obj
 0002:0003d280       ?_Get_first@?$_Compressed_pair@V?$allocator@V?$_List_unchecked_iterator@V?$_List_val@U?$_List_simple_types@U?$pair@$$CBIVCPlayerData@@@std@@@std@@@std@@@std@@@std@@V?$_Vector_val@U?$_Simple_types@V?$_List_unchecked_iterator@V?$_List_val@U?$_List_simple_types@U?$pair@$$CBIVCPlayerData@@@std@@@std@@@std@@@std@@@std@@@2@$00@std@@QBEABV?$allocator@V?$_List_unchecked_iterator@V?$_List_val@U?$_List_simple_types@U?$pair@$$CBIVCPlayerData@@@std@@@std@@@std@@@std@@@2@XZ 100b4280 f i CPlugin.obj
 0002:0003d2e0       ?_Get_first@?$_Compressed_pair@V?$allocator@V?$basic_string@DU?$char_traits@D@std@@V?$allocator@D@2@@std@@@std@@V?$_Vector_val@U?$_Simple_types@V?$basic_string@DU?$char_traits@D@std@@V?$allocator@D@2@@std@@@std@@@2@$00@std@@QAEAAV?$allocator@V?$basic_string@DU?$char_traits@D@std@@V?$allocator@D@2@@std@@@2@XZ 100b42e0 f i CPlugin.obj
 0002:0003d340       ?_Get_first@?$_Compressed_pair@V?$allocator@V?$basic_string@DU?$char_traits@D@std@@V?$allocator@D@2@@std@@@std@@V?$_Vector_val@U?$_Simple_types@V?$basic_string@DU?$char_traits@D@std@@V?$allocator@D@2@@std@@@std@@@2@$00@std@@QBEABV?$allocator@V?$basic_string@DU?$char_traits@D@std@@V?$allocator@D@2@@std@@@2@XZ 100b4340 f i CPlugin.obj
 0002:0003d3a0       ?_Get_max_bucket_size@?$_Uhash_compare@GU?$hash@G@std@@U?$equal_to@G@2@@std@@QAEAAMXZ 100b43a0 f i CPlugin.obj
 0002:0003d400       ?_Get_max_bucket_size@?$_Uhash_compare@GU?$hash@G@std@@U?$equal_to@G@2@@std@@QBEABMXZ 100b4400 f i CPlugin.obj
 0002:0003d460       ?_Get_max_bucket_size@?$_Uhash_compare@IU?$hash@I@std@@U?$equal_to@I@2@@std@@QBEABMXZ 100b4460 f i CPlugin.obj
 0002:0003d4c0       ?_Get_scary@?$_Tree@V?$_Tset_traits@DU?$less@D@std@@V?$allocator@D@2@$0A@@std@@@std@@IAEPAV?$_Tree_val@U?$_Tree_simple_types@D@std@@@2@XZ 100b44c0 f i CPlugin.obj
 0002:0003d520       ?_Get_scary@?$_Tree@V?$_Tset_traits@DU?$less@D@std@@V?$allocator@D@2@$0A@@std@@@std@@IBEPBV?$_Tree_val@U?$_Tree_simple_types@D@std@@@2@XZ 100b4520 f i CPlugin.obj
 0002:0003d580       ?_Get_scary@?$_Tree@V?$_Tset_traits@GU?$less@G@std@@V?$allocator@G@2@$0A@@std@@@std@@IAEPAV?$_Tree_val@U?$_Tree_simple_types@G@std@@@2@XZ 100b4580 f i CPlugin.obj
 0002:0003d5e0       ?_Get_scary@?$_Tree@V?$_Tset_traits@GU?$less@G@std@@V?$allocator@G@2@$0A@@std@@@std@@IBEPBV?$_Tree_val@U?$_Tree_simple_types@G@std@@@2@XZ 100b45e0 f i CPlugin.obj
 0002:0003d640       ?_Get_scary@?$_Tree@V?$_Tset_traits@V?$basic_string@DU?$char_traits@D@std@@V?$allocator@D@2@@std@@U?$less@V?$basic_string@DU?$char_traits@D@std@@V?$allocator@D@2@@std@@@2@V?$allocator@V?$basic_string@DU?$char_traits@D@std@@V?$allocator@D@2@@std@@@2@$0A@@std@@@std@@IAEPAV?$_Tree_val@U?$_Tree_simple_types@V?$basic_string@DU?$char_traits@D@std@@V?$allocator@D@2@@std@@@std@@@2@XZ 100b4640 f i CPlugin.obj
 0002:0003d6a0       ?_Getal@?$_Tree@V?$_Tset_traits@DU?$less@D@std@@V?$allocator@D@2@$0A@@std@@@std@@IAEAAV?$allocator@U?$_Tree_node@DPAX@std@@@2@XZ 100b46a0 f i CPlugin.obj
 0002:0003d700       ?_Getal@?$_Tree@V?$_Tset_traits@DU?$less@D@std@@V?$allocator@D@2@$0A@@std@@@std@@IBEABV?$allocator@U?$_Tree_node@DPAX@std@@@2@XZ 100b4700 f i CPlugin.obj
 0002:0003d760       ?_Getal@?$_Tree@V?$_Tset_traits@GU?$less@G@std@@V?$allocator@G@2@$0A@@std@@@std@@IAEAAV?$allocator@U?$_Tree_node@GPAX@std@@@2@XZ 100b4760 f i CPlugin.obj
 0002:0003d7c0       ?_Getal@?$_Tree@V?$_Tset_traits@GU?$less@G@std@@V?$allocator@G@2@$0A@@std@@@std@@IBEABV?$allocator@U?$_Tree_node@GPAX@std@@@2@XZ 100b47c0 f i CPlugin.obj
 0002:0003d820       ?_Getal@?$_Tree@V?$_Tset_traits@V?$basic_string@DU?$char_traits@D@std@@V?$allocator@D@2@@std@@U?$less@V?$basic_string@DU?$char_traits@D@std@@V?$allocator@D@2@@std@@@2@V?$allocator@V?$basic_string@DU?$char_traits@D@std@@V?$allocator@D@2@@std@@@2@$0A@@std@@@std@@IAEAAV?$allocator@U?$_Tree_node@V?$basic_string@DU?$char_traits@D@std@@V?$allocator@D@2@@std@@PAX@std@@@2@XZ 100b4820 f i CPlugin.obj
 0002:0003d880       ?_Getal@?$basic_string@DU?$char_traits@D@std@@V?$allocator@D@2@@std@@AAEAAV?$allocator@D@2@XZ 100b4880 f i CPlugin.obj
 0002:0003d8e0       ?_Getal@?$basic_string@DU?$char_traits@D@std@@V?$allocator@D@2@@std@@ABEABV?$allocator@D@2@XZ 100b48e0 f i CPlugin.obj
 0002:0003d940       ?_Getal@?$deque@USysExec_t@CPlugin@@V?$allocator@USysExec_t@CPlugin@@@std@@@std@@AAEAAV?$allocator@USysExec_t@CPlugin@@@2@XZ 100b4940 f i CPlugin.obj
 0002:0003d9a0       ?_Getal@?$list@U?$pair@$$CBGK@std@@V?$allocator@U?$pair@$$CBGK@std@@@2@@std@@AAEAAV?$allocator@U?$_List_node@U?$pair@$$CBGK@std@@PAX@std@@@2@XZ 100b49a0 f i CPlugin.obj
 0002:0003da00       ?_Getal@?$list@U?$pair@$$CBGK@std@@V?$allocator@U?$pair@$$CBGK@std@@@2@@std@@ABEABV?$allocator@U?$_List_node@U?$pair@$$CBGK@std@@PAX@std@@@2@XZ 100b4a00 f i CPlugin.obj
 0002:0003da60       ?_Getal@?$list@U?$pair@$$CBGVCVector@@@std@@V?$allocator@U?$pair@$$CBGVCVector@@@std@@@2@@std@@AAEAAV?$allocator@U?$_List_node@U?$pair@$$CBGVCVector@@@std@@PAX@std@@@2@XZ 100b4a60 f i CPlugin.obj
 0002:0003dac0       ?_Getal@?$list@U?$pair@$$CBGVCVector@@@std@@V?$allocator@U?$pair@$$CBGVCVector@@@std@@@2@@std@@ABEABV?$allocator@U?$_List_node@U?$pair@$$CBGVCVector@@@std@@PAX@std@@@2@XZ 100b4ac0 f i CPlugin.obj
 0002:0003db20       ?_Getal@?$list@U?$pair@$$CBIVCPlayerData@@@std@@V?$allocator@U?$pair@$$CBIVCPlayerData@@@std@@@2@@std@@AAEAAV?$allocator@U?$_List_node@U?$pair@$$CBIVCPlayerData@@@std@@PAX@std@@@2@XZ 100b4b20 f i CPlugin.obj
 0002:0003db80       ?_Getal@?$list@U?$pair@$$CBIVCPlayerData@@@std@@V?$allocator@U?$pair@$$CBIVCPlayerData@@@std@@@2@@std@@ABEABV?$allocator@U?$_List_node@U?$pair@$$CBIVCPlayerData@@@std@@PAX@std@@@2@XZ 100b4b80 f i CPlugin.obj
 0002:0003dbe0       ?_Getal@?$vector@V?$basic_string@DU?$char_traits@D@std@@V?$allocator@D@2@@std@@V?$allocator@V?$basic_string@DU?$char_traits@D@std@@V?$allocator@D@2@@std@@@2@@std@@AAEAAV?$allocator@V?$basic_string@DU?$char_traits@D@std@@V?$allocator@D@2@@std@@@2@XZ 100b4be0 f i CPlugin.obj
 0002:0003dc40       ?_Getal@?$vector@V?$basic_string@DU?$char_traits@D@std@@V?$allocator@D@2@@std@@V?$allocator@V?$basic_string@DU?$char_traits@D@std@@V?$allocator@D@2@@std@@@2@@std@@ABEABV?$allocator@V?$basic_string@DU?$char_traits@D@std@@V?$allocator@D@2@@std@@@2@XZ 100b4c40 f i CPlugin.obj
 0002:0003dca0       ?_Getblock@?$_Deque_val@U?$_Deque_simple_types@USysExec_t@CPlugin@@@std@@@std@@QBEII@Z 100b4ca0 f i CPlugin.obj
 0002:0003dd00       ?_Getblock@?$deque@USysExec_t@CPlugin@@V?$allocator@USysExec_t@CPlugin@@@std@@@std@@ABEII@Z 100b4d00 f i CPlugin.obj
 0002:0003dd70       ?_Getcomp@?$_Tree@V?$_Tset_traits@DU?$less@D@std@@V?$allocator@D@2@$0A@@std@@@std@@IBEABU?$less@D@2@XZ 100b4d70 f i CPlugin.obj
 0002:0003ddd0       ?_Getcomp@?$_Tree@V?$_Tset_traits@GU?$less@G@std@@V?$allocator@G@2@$0A@@std@@@std@@IBEABU?$less@G@2@XZ 100b4dd0 f i CPlugin.obj
 0002:0003de30       ?_Insert_new_node_before@?$_Hash@V?$_Umap_traits@GKV?$_Uhash_compare@GU?$hash@G@std@@U?$equal_to@G@2@@std@@V?$allocator@U?$pair@$$CBGK@std@@@2@$0A@@std@@@std@@IAEPAU?$_List_node@U?$pair@$$CBGK@std@@PAX@2@IQAU32@0@Z 100b4e30 f i CPlugin.obj
 0002:0003dfd0       ?_Insert_new_node_before@?$_Hash@V?$_Umap_traits@GVCVector@@V?$_Uhash_compare@GU?$hash@G@std@@U?$equal_to@G@2@@std@@V?$allocator@U?$pair@$$CBGVCVector@@@std@@@3@$0A@@std@@@std@@IAEPAU?$_List_node@U?$pair@$$CBGVCVector@@@std@@PAX@2@IQAU32@0@Z 100b4fd0 f i CPlugin.obj
 0002:0003e170       ?_Insert_new_node_before@?$_Hash@V?$_Umap_traits@IVCPlayerData@@V?$_Uhash_compare@IU?$hash@I@std@@U?$equal_to@I@2@@std@@V?$allocator@U?$pair@$$CBIVCPlayerData@@@std@@@3@$0A@@std@@@std@@IAEPAU?$_List_node@U?$pair@$$CBIVCPlayerData@@@std@@PAX@2@IQAU32@0@Z 100b5170 f i CPlugin.obj
 0002:0003e310       ?_Insert_node@?$_Tree_val@U?$_Tree_simple_types@D@std@@@std@@QAEPAU?$_Tree_node@DPAX@2@U?$_Tree_id@PAU?$_Tree_node@DPAX@std@@@2@QAU32@@Z 100b5310 f i CPlugin.obj
 0002:0003e5e0       ?_Insert_node@?$_Tree_val@U?$_Tree_simple_types@G@std@@@std@@QAEPAU?$_Tree_node@GPAX@2@U?$_Tree_id@PAU?$_Tree_node@GPAX@std@@@2@QAU32@@Z 100b55e0 f i CPlugin.obj
 0002:0003e8b0       ?_Kfn@?$_Tset_traits@DU?$less@D@std@@V?$allocator@D@2@$0A@@std@@SAABDABD@Z 100b58b0 f i CPlugin.obj
 0002:0003e900       ?_Kfn@?$_Tset_traits@GU?$less@G@std@@V?$allocator@G@2@$0A@@std@@SAABGABG@Z 100b5900 f i CPlugin.obj
 0002:0003e950       ?_Lrotate@?$_Tree_val@U?$_Tree_simple_types@D@std@@@std@@QAEXPAU?$_Tree_node@DPAX@2@@Z 100b5950 f i CPlugin.obj
 0002:0003ea50       ?_Lrotate@?$_Tree_val@U?$_Tree_simple_types@G@std@@@std@@QAEXPAU?$_Tree_node@GPAX@2@@Z 100b5a50 f i CPlugin.obj
 0002:0003eb50       ?_Make_iter@?$list@U?$pair@$$CBGK@std@@V?$allocator@U?$pair@$$CBGK@std@@@2@@std@@QBE?AV?$_List_iterator@V?$_List_val@U?$_List_simple_types@U?$pair@$$CBGK@std@@@std@@@std@@@2@PAU?$_List_node@U?$pair@$$CBGK@std@@PAX@2@@Z 100b5b50 f i CPlugin.obj
 0002:0003ebd0       ?_Make_iter@?$list@U?$pair@$$CBGVCVector@@@std@@V?$allocator@U?$pair@$$CBGVCVector@@@std@@@2@@std@@QBE?AV?$_List_iterator@V?$_List_val@U?$_List_simple_types@U?$pair@$$CBGVCVector@@@std@@@std@@@std@@@2@PAU?$_List_node@U?$pair@$$CBGVCVector@@@std@@PAX@2@@Z 100b5bd0 f i CPlugin.obj
 0002:0003ec50       ?_Make_iter@?$list@U?$pair@$$CBIVCPlayerData@@@std@@V?$allocator@U?$pair@$$CBIVCPlayerData@@@std@@@2@@std@@QBE?AV?$_List_iterator@V?$_List_val@U?$_List_simple_types@U?$pair@$$CBIVCPlayerData@@@std@@@std@@@std@@@2@PAU?$_List_node@U?$pair@$$CBIVCPlayerData@@@std@@PAX@2@@Z 100b5c50 f i CPlugin.obj
 0002:0003ecd0       ?_Map@?$deque@USysExec_t@CPlugin@@V?$allocator@USysExec_t@CPlugin@@@std@@@std@@AAEAAPAPAUSysExec_t@CPlugin@@XZ 100b5cd0 f i CPlugin.obj
 0002:0003ed30       ?_Mapsize@?$deque@USysExec_t@CPlugin@@V?$allocator@USysExec_t@CPlugin@@@std@@@std@@AAEAAIXZ 100b5d30 f i CPlugin.obj
 0002:0003ed90       ?_Max@?$_Tree_val@U?$_Tree_simple_types@D@std@@@std@@SAPAU?$_Tree_node@DPAX@2@PAU32@@Z 100b5d90 f i CPlugin.obj
 0002:0003ee00       ?_Max@?$_Tree_val@U?$_Tree_simple_types@G@std@@@std@@SAPAU?$_Tree_node@GPAX@2@PAU32@@Z 100b5e00 f i CPlugin.obj
 0002:0003ee70       ?_Max_bucket_size@?$_Hash@V?$_Umap_traits@GKV?$_Uhash_compare@GU?$hash@G@std@@U?$equal_to@G@2@@std@@V?$allocator@U?$pair@$$CBGK@std@@@2@$0A@@std@@@std@@IAEAAMXZ 100b5e70 f i CPlugin.obj
 0002:0003eed0       ?_Max_bucket_size@?$_Hash@V?$_Umap_traits@GKV?$_Uhash_compare@GU?$hash@G@std@@U?$equal_to@G@2@@std@@V?$allocator@U?$pair@$$CBGK@std@@@2@$0A@@std@@@std@@IBEABMXZ 100b5ed0 f i CPlugin.obj
 0002:0003ef30       ?_Max_bucket_size@?$_Hash@V?$_Umap_traits@GVCVector@@V?$_Uhash_compare@GU?$hash@G@std@@U?$equal_to@G@2@@std@@V?$allocator@U?$pair@$$CBGVCVector@@@std@@@3@$0A@@std@@@std@@IBEABMXZ 100b5f30 f i CPlugin.obj
 0002:0003ef90       ?_Max_bucket_size@?$_Hash@V?$_Umap_traits@IVCPlayerData@@V?$_Uhash_compare@IU?$hash@I@std@@U?$equal_to@I@2@@std@@V?$allocator@U?$pair@$$CBIVCPlayerData@@@std@@@3@$0A@@std@@@std@@IBEABMXZ 100b5f90 f i CPlugin.obj
 0002:0003eff0       ?_Memcpy_val_from@?$basic_string@DU?$char_traits@D@std@@V?$allocator@D@2@@std@@AAEXABV12@@Z 100b5ff0 f i CPlugin.obj
 0002:0003f090       ?_Min@?$_Tree_val@U?$_Tree_simple_types@D@std@@@std@@SAPAU?$_Tree_node@DPAX@2@PAU32@@Z 100b6090 f i CPlugin.obj
 0002:0003f100       ?_Min@?$_Tree_val@U?$_Tree_simple_types@G@std@@@std@@SAPAU?$_Tree_node@GPAX@2@PAU32@@Z 100b6100 f i CPlugin.obj
 0002:0003f170       ?_Min_load_factor_buckets@?$_Hash@V?$_Umap_traits@GKV?$_Uhash_compare@GU?$hash@G@std@@U?$equal_to@G@2@@std@@V?$allocator@U?$pair@$$CBGK@std@@@2@$0A@@std@@@std@@IBEII@Z 100b6170 f i CPlugin.obj
 0002:0003f260       ?_Min_load_factor_buckets@?$_Hash@V?$_Umap_traits@GVCVector@@V?$_Uhash_compare@GU?$hash@G@std@@U?$equal_to@G@2@@std@@V?$allocator@U?$pair@$$CBGVCVector@@@std@@@3@$0A@@std@@@std@@IBEII@Z 100b6260 f i CPlugin.obj
 0002:0003f350       ?_Min_load_factor_buckets@?$_Hash@V?$_Umap_traits@IVCPlayerData@@V?$_Uhash_compare@IU?$hash@I@std@@U?$equal_to@I@2@@std@@V?$allocator@U?$pair@$$CBIVCPlayerData@@@std@@@3@$0A@@std@@@std@@IBEII@Z 100b6350 f i CPlugin.obj
 0002:0003f440       ?_Mymtx@_Mutex_base@std@@AAEPAU_Mtx_internal_imp_t@@XZ 100b6440 f i CPlugin.obj
 0002:0003f4a0       ?_Myoff@?$deque@USysExec_t@CPlugin@@V?$allocator@USysExec_t@CPlugin@@@std@@@std@@AAEAAIXZ 100b64a0 f i CPlugin.obj
 0002:0003f500       ?_Myoff@?$deque@USysExec_t@CPlugin@@V?$allocator@USysExec_t@CPlugin@@@std@@@std@@ABEABIXZ 100b6500 f i CPlugin.obj
 0002:0003f560       ?_Myptr@?$_String_val@U?$_Simple_types@D@std@@@std@@QAEPADXZ 100b6560 f i CPlugin.obj
 0002:0003f5f0       ?_Mysize@?$deque@USysExec_t@CPlugin@@V?$allocator@USysExec_t@CPlugin@@@std@@@std@@AAEAAIXZ 100b65f0 f i CPlugin.obj
 0002:0003f650       ?_Mysize@?$deque@USysExec_t@CPlugin@@V?$allocator@USysExec_t@CPlugin@@@std@@@std@@ABEABIXZ 100b6650 f i CPlugin.obj
 0002:0003f6b0       ?_Orphan_all@?$deque@USysExec_t@CPlugin@@V?$allocator@USysExec_t@CPlugin@@@std@@@std@@AAEXXZ 100b66b0 f i CPlugin.obj
 0002:0003f710       ?_Orphan_all@_Container_base12@std@@QAEXXZ 100b6710 f i CPlugin.obj
 0002:0003f770       ?_Orphan_all_locked_v3@_Container_base12@std@@AAEXXZ 100b6770 f i CPlugin.obj
 0002:0003f830       ?_Orphan_all_unlocked_v3@_Container_base12@std@@AAEXXZ 100b6830 f i CPlugin.obj
 0002:0003f8e0       ?_Orphan_non_end@?$_List_val@U?$_List_simple_types@U?$pair@$$CBGK@std@@@std@@@std@@QAEXXZ 100b68e0 f i CPlugin.obj
 0002:0003fa00       ?_Orphan_non_end@?$_List_val@U?$_List_simple_types@U?$pair@$$CBGVCVector@@@std@@@std@@@std@@QAEXXZ 100b6a00 f i CPlugin.obj
 0002:0003fb20       ?_Orphan_non_end@?$_List_val@U?$_List_simple_types@U?$pair@$$CBIVCPlayerData@@@std@@@std@@@std@@QAEXXZ 100b6b20 f i CPlugin.obj
 0002:0003fc40       ?_Orphan_off@?$deque@USysExec_t@CPlugin@@V?$allocator@USysExec_t@CPlugin@@@std@@@std@@ABEXI@Z 100b6c40 f i CPlugin.obj
 0002:0003fde0       ?_Orphan_ptr2@?$_List_val@U?$_List_simple_types@U?$pair@$$CBGK@std@@@std@@@std@@QAEXPAU?$_List_node@U?$pair@$$CBGK@std@@PAX@2@@Z 100b6de0 f i CPlugin.obj
 0002:0003ff10       ?_Orphan_ptr2@?$_List_val@U?$_List_simple_types@U?$pair@$$CBIVCPlayerData@@@std@@@std@@@std@@QAEXPAU?$_List_node@U?$pair@$$CBIVCPlayerData@@@std@@PAX@2@@Z 100b6f10 f i CPlugin.obj
 0002:00040040       ?_Orphan_ptr@?$_Tree_val@U?$_Tree_simple_types@D@std@@@std@@QAEXQAU?$_Tree_node@DPAX@2@@Z 100b7040 f i CPlugin.obj
 0002:00040170       ?_Orphan_ptr@?$_Tree_val@U?$_Tree_simple_types@G@std@@@std@@QAEXQAU?$_Tree_node@GPAX@2@@Z 100b7170 f i CPlugin.obj
 0002:000402a0       ?_Orphan_range@?$vector@V?$basic_string@DU?$char_traits@D@std@@V?$allocator@D@2@@std@@V?$allocator@V?$basic_string@DU?$char_traits@D@std@@V?$allocator@D@2@@std@@@2@@std@@ABEXPAV?$basic_string@DU?$char_traits@D@std@@V?$allocator@D@2@@2@0@Z 100b72a0 f i CPlugin.obj
 0002:00040310       ?_Orphan_range_locked@?$vector@V?$basic_string@DU?$char_traits@D@std@@V?$allocator@D@2@@std@@V?$allocator@V?$basic_string@DU?$char_traits@D@std@@V?$allocator@D@2@@std@@@2@@std@@ABEXPAV?$basic_string@DU?$char_traits@D@std@@V?$allocator@D@2@@2@0@Z 100b7310 f i CPlugin.obj
 0002:00040420       ?_Orphan_range_unlocked@?$vector@V?$basic_string@DU?$char_traits@D@std@@V?$allocator@D@2@@std@@V?$allocator@V?$basic_string@DU?$char_traits@D@std@@V?$allocator@D@2@@std@@@2@@std@@ABEXPAV?$basic_string@DU?$char_traits@D@std@@V?$allocator@D@2@@2@0@Z 100b7420 f i CPlugin.obj
 0002:000404f0       ?_Rehash_for_1@?$_Hash@V?$_Umap_traits@GKV?$_Uhash_compare@GU?$hash@G@std@@U?$equal_to@G@2@@std@@V?$allocator@U?$pair@$$CBGK@std@@@2@$0A@@std@@@std@@IAEXXZ 100b74f0 f i CPlugin.obj
 0002:00040570       ?_Rehash_for_1@?$_Hash@V?$_Umap_traits@GVCVector@@V?$_Uhash_compare@GU?$hash@G@std@@U?$equal_to@G@2@@std@@V?$allocator@U?$pair@$$CBGVCVector@@@std@@@3@$0A@@std@@@std@@IAEXXZ 100b7570 f i CPlugin.obj
 0002:000405f0       ?_Rehash_for_1@?$_Hash@V?$_Umap_traits@IVCPlayerData@@V?$_Uhash_compare@IU?$hash@I@std@@U?$equal_to@I@2@@std@@V?$allocator@U?$pair@$$CBIVCPlayerData@@@std@@@3@$0A@@std@@@std@@IAEXXZ 100b75f0 f i CPlugin.obj
 0002:00040670       ?_Release@?$_Alloc_construct_ptr@V?$allocator@U?$_List_node@U?$pair@$$CBGK@std@@PAX@std@@@std@@@std@@QAEPAU?$_List_node@U?$pair@$$CBGK@std@@PAX@2@XZ 100b7670 f i CPlugin.obj
 0002:000406f0       ?_Release@?$_Alloc_construct_ptr@V?$allocator@U?$_List_node@U?$pair@$$CBGVCVector@@@std@@PAX@std@@@std@@@std@@QAEPAU?$_List_node@U?$pair@$$CBGVCVector@@@std@@PAX@2@XZ 100b76f0 f i CPlugin.obj
 0002:00040770       ?_Release@?$_Alloc_construct_ptr@V?$allocator@U?$_List_node@U?$pair@$$CBIVCPlayerData@@@std@@PAX@std@@@std@@@std@@QAEPAU?$_List_node@U?$pair@$$CBIVCPlayerData@@@std@@PAX@2@XZ 100b7770 f i CPlugin.obj
 0002:000407f0       ?_Release@?$_Alloc_construct_ptr@V?$allocator@U?$_Tree_node@DPAX@std@@@std@@@std@@QAEPAU?$_Tree_node@DPAX@2@XZ 100b77f0 f i CPlugin.obj
 0002:00040870       ?_Release@?$_Alloc_construct_ptr@V?$allocator@U?$_Tree_node@GPAX@std@@@std@@@std@@QAEPAU?$_Tree_node@GPAX@2@XZ 100b7870 f i CPlugin.obj
 0002:000408f0       ?_Release@?$_Uninitialized_backout@PAV?$_List_unchecked_iterator@V?$_List_val@U?$_List_simple_types@U?$pair@$$CBGK@std@@@std@@@std@@@std@@@std@@QAEPAV?$_List_unchecked_iterator@V?$_List_val@U?$_List_simple_types@U?$pair@$$CBGK@std@@@std@@@std@@@2@XZ 100b78f0 f i CPlugin.obj
 0002:00040960       ?_Release@?$_Uninitialized_backout@PAV?$_List_unchecked_iterator@V?$_List_val@U?$_List_simple_types@U?$pair@$$CBGVCVector@@@std@@@std@@@std@@@std@@@std@@QAEPAV?$_List_unchecked_iterator@V?$_List_val@U?$_List_simple_types@U?$pair@$$CBGVCVector@@@std@@@std@@@std@@@2@XZ 100b7960 f i CPlugin.obj
 0002:000409d0       ?_Release@?$_Uninitialized_backout@PAV?$_List_unchecked_iterator@V?$_List_val@U?$_List_simple_types@U?$pair@$$CBIVCPlayerData@@@std@@@std@@@std@@@std@@@std@@QAEPAV?$_List_unchecked_iterator@V?$_List_val@U?$_List_simple_types@U?$pair@$$CBIVCPlayerData@@@std@@@std@@@std@@@2@XZ 100b79d0 f i CPlugin.obj
 0002:00040a40       ?_Release@?$_Uninitialized_backout_al@V?$allocator@V?$basic_string@DU?$char_traits@D@std@@V?$allocator@D@2@@std@@@std@@@std@@QAEPAV?$basic_string@DU?$char_traits@D@std@@V?$allocator@D@2@@2@XZ 100b7a40 f i CPlugin.obj
 0002:00040ab0       ?_Release@_Basic_container_proxy_ptr12@std@@QAEXXZ 100b7ab0 f i CPlugin.obj
 0002:00040b10       ?_Rrotate@?$_Tree_val@U?$_Tree_simple_types@D@std@@@std@@QAEXPAU?$_Tree_node@DPAX@2@@Z 100b7b10 f i CPlugin.obj
 0002:00040c20       ?_Rrotate@?$_Tree_val@U?$_Tree_simple_types@G@std@@@std@@QAEXPAU?$_Tree_node@GPAX@2@@Z 100b7c20 f i CPlugin.obj
 0002:00040d30       ?_Seek_to@?$_Vector_const_iterator@V?$_Vector_val@U?$_Simple_types@V?$basic_string@DU?$char_traits@D@std@@V?$allocator@D@2@@std@@@std@@@std@@@std@@QAEXPBV?$basic_string@DU?$char_traits@D@std@@V?$allocator@D@2@@2@@Z 100b7d30 f i CPlugin.obj
 0002:00040da0       ?_Subscript@?$bitset@$0DOI@@std@@QBE_NI@Z 100b7da0 f i CPlugin.obj
 0002:00040e70       ?_Swap_proxy_and_iterators@?$basic_string@DU?$char_traits@D@std@@V?$allocator@D@2@@std@@AAEXAAV12@@Z 100b7e70 f i CPlugin.obj
 0002:00040ed0       ?_Swap_proxy_and_iterators@_Container_base12@std@@QAEXAAU12@@Z 100b7ed0 f i CPlugin.obj
 0002:00040f30       ?_Swap_proxy_and_iterators_locked@_Container_base12@std@@AAEXAAU12@@Z 100b7f30 f i CPlugin.obj
 0002:00041000       ?_Swap_proxy_and_iterators_unlocked@_Container_base12@std@@AAEXAAU12@@Z 100b8000 f i CPlugin.obj
 0002:000410a0       ?_Take_contents@?$basic_string@DU?$char_traits@D@std@@V?$allocator@D@2@@std@@AAEXAAV12@@Z 100b80a0 f i CPlugin.obj
 0002:00041230       ?_Throw_bad_array_new_length@std@@YAXXZ 100b8230 f i CPlugin.obj
 0002:000412a0       ?_Throw_tree_length_error@std@@YAXXZ 100b82a0 f i CPlugin.obj
 0002:000412f0       ?_Tidy@?$_Hash_vec@V?$allocator@V?$_List_unchecked_iterator@V?$_List_val@U?$_List_simple_types@U?$pair@$$CBGK@std@@@std@@@std@@@std@@@std@@@std@@QAEXXZ 100b82f0 f i CPlugin.obj
 0002:000413e0       ?_Tidy@?$deque@USysExec_t@CPlugin@@V?$allocator@USysExec_t@CPlugin@@@std@@@std@@AAEXXZ 100b83e0 f i CPlugin.obj
 0002:000415c0       ?_Tidy@?$list@U?$pair@$$CBGK@std@@V?$allocator@U?$pair@$$CBGK@std@@@2@@std@@AAEXXZ 100b85c0 f i CPlugin.obj
 0002:00041660       ?_Tidy@?$vector@V?$basic_string@DU?$char_traits@D@std@@V?$allocator@D@2@@std@@V?$allocator@V?$basic_string@DU?$char_traits@D@std@@V?$allocator@D@2@@std@@@2@@std@@AAEXXZ 100b8660 f i CPlugin.obj
 0002:000417a0       ?_Tidy_deallocate@?$basic_string@DU?$char_traits@D@std@@V?$allocator@D@2@@std@@AAEXXZ 100b87a0 f i CPlugin.obj
 0002:000418e0       ?_Tidy_init@?$basic_string@DU?$char_traits@D@std@@V?$allocator@D@2@@std@@AAEXXZ 100b88e0 f i CPlugin.obj
 0002:00041980       ?_Umove@?$vector@V?$basic_string@DU?$char_traits@D@std@@V?$allocator@D@2@@std@@V?$allocator@V?$basic_string@DU?$char_traits@D@std@@V?$allocator@D@2@@std@@@2@@std@@AAEPAV?$basic_string@DU?$char_traits@D@std@@V?$allocator@D@2@@2@PAV32@00@Z 100b8980 f i CPlugin.obj
 0002:00041a00       ?_Umove_if_noexcept1@?$vector@V?$basic_string@DU?$char_traits@D@std@@V?$allocator@D@2@@std@@V?$allocator@V?$basic_string@DU?$char_traits@D@std@@V?$allocator@D@2@@std@@@2@@std@@AAEXPAV?$basic_string@DU?$char_traits@D@std@@V?$allocator@D@2@@2@00U?$integral_constant@_N$00@2@@Z 100b8a00 f i CPlugin.obj
 0002:00041a80       ?_Umove_if_noexcept@?$vector@V?$basic_string@DU?$char_traits@D@std@@V?$allocator@D@2@@std@@V?$allocator@V?$basic_string@DU?$char_traits@D@std@@V?$allocator@D@2@@std@@@2@@std@@AAEXPAV?$basic_string@DU?$char_traits@D@std@@V?$allocator@D@2@@2@00@Z 100b8a80 f i CPlugin.obj
 0002:00041b00       ?_Unchecked_begin@?$_Hash@V?$_Umap_traits@GKV?$_Uhash_compare@GU?$hash@G@std@@U?$equal_to@G@2@@std@@V?$allocator@U?$pair@$$CBGK@std@@@2@$0A@@std@@@std@@QAE?AV?$_List_unchecked_iterator@V?$_List_val@U?$_List_simple_types@U?$pair@$$CBGK@std@@@std@@@std@@@2@XZ 100b8b00 f i CPlugin.obj
 0002:00041b70       ?_Unchecked_begin@?$_Hash@V?$_Umap_traits@GV?$shared_ptr@VCPlayerObjectAttachAddon@@@std@@V?$_Uhash_compare@GU?$hash@G@std@@U?$equal_to@G@2@@2@V?$allocator@U?$pair@$$CBGV?$shared_ptr@VCPlayerObjectAttachAddon@@@std@@@std@@@2@$0A@@std@@@std@@QAE?AV?$_List_unchecked_iterator@V?$_List_val@U?$_List_simple_types@U?$pair@$$CBGV?$shared_ptr@VCPlayerObjectAttachAddon@@@std@@@std@@@std@@@std@@@2@XZ 100b8b70 f i CPlugin.obj
 0002:00041be0       ?_Unchecked_begin@?$_Hash@V?$_Umap_traits@GVCVector@@V?$_Uhash_compare@GU?$hash@G@std@@U?$equal_to@G@2@@std@@V?$allocator@U?$pair@$$CBGVCVector@@@std@@@3@$0A@@std@@@std@@QAE?AV?$_List_unchecked_iterator@V?$_List_val@U?$_List_simple_types@U?$pair@$$CBGVCVector@@@std@@@std@@@std@@@2@XZ 100b8be0 f i CPlugin.obj
 0002:00041c50       ?_Unchecked_begin@?$_Hash@V?$_Umap_traits@IVCPlayerData@@V?$_Uhash_compare@IU?$hash@I@std@@U?$equal_to@I@2@@std@@V?$allocator@U?$pair@$$CBIVCPlayerData@@@std@@@3@$0A@@std@@@std@@QAE?AV?$_List_unchecked_iterator@V?$_List_val@U?$_List_simple_types@U?$pair@$$CBIVCPlayerData@@@std@@@std@@@std@@@2@XZ 100b8c50 f i CPlugin.obj
 0002:00041cc0       ?_Unchecked_begin@?$_Tree@V?$_Tset_traits@DU?$less@D@std@@V?$allocator@D@2@$0A@@std@@@std@@QAE?AV?$_Tree_unchecked_const_iterator@V?$_Tree_val@U?$_Tree_simple_types@D@std@@@std@@U_Iterator_base0@2@@2@XZ 100b8cc0 f i CPlugin.obj
 0002:00041d40       ?_Unchecked_begin@?$_Tree@V?$_Tset_traits@GU?$less@G@std@@V?$allocator@G@2@$0A@@std@@@std@@QAE?AV?$_Tree_unchecked_const_iterator@V?$_Tree_val@U?$_Tree_simple_types@G@std@@@std@@U_Iterator_base0@2@@2@XZ 100b8d40 f i CPlugin.obj
 0002:00041dc0       ?_Unchecked_begin@?$deque@USysExec_t@CPlugin@@V?$allocator@USysExec_t@CPlugin@@@std@@@std@@QAE?AV?$_Deque_unchecked_iterator@V?$_Deque_val@U?$_Deque_simple_types@USysExec_t@CPlugin@@@std@@@std@@@2@XZ 100b8dc0 f i CPlugin.obj
 0002:00041e50       ?_Unchecked_begin@?$list@U?$pair@$$CBGK@std@@V?$allocator@U?$pair@$$CBGK@std@@@2@@std@@QAE?AV?$_List_unchecked_iterator@V?$_List_val@U?$_List_simple_types@U?$pair@$$CBGK@std@@@std@@@std@@@2@XZ 100b8e50 f i CPlugin.obj
 0002:00041ec0       ?_Unchecked_begin@?$list@U?$pair@$$CBGV?$shared_ptr@VCPlayerObjectAttachAddon@@@std@@@std@@V?$allocator@U?$pair@$$CBGV?$shared_ptr@VCPlayerObjectAttachAddon@@@std@@@std@@@2@@std@@QAE?AV?$_List_unchecked_iterator@V?$_List_val@U?$_List_simple_types@U?$pair@$$CBGV?$shared_ptr@VCPlayerObjectAttachAddon@@@std@@@std@@@std@@@std@@@2@XZ 100b8ec0 f i CPlugin.obj
 0002:00041f30       ?_Unchecked_begin@?$list@U?$pair@$$CBGVCVector@@@std@@V?$allocator@U?$pair@$$CBGVCVector@@@std@@@2@@std@@QAE?AV?$_List_unchecked_iterator@V?$_List_val@U?$_List_simple_types@U?$pair@$$CBGVCVector@@@std@@@std@@@std@@@2@XZ 100b8f30 f i CPlugin.obj
 0002:00041fa0       ?_Unchecked_begin@?$list@U?$pair@$$CBIVCPlayerData@@@std@@V?$allocator@U?$pair@$$CBIVCPlayerData@@@std@@@2@@std@@QAE?AV?$_List_unchecked_iterator@V?$_List_val@U?$_List_simple_types@U?$pair@$$CBIVCPlayerData@@@std@@@std@@@std@@@2@XZ 100b8fa0 f i CPlugin.obj
 0002:00042010       ?_Unchecked_begin@?$vector@V?$basic_string@DU?$char_traits@D@std@@V?$allocator@D@2@@std@@V?$allocator@V?$basic_string@DU?$char_traits@D@std@@V?$allocator@D@2@@std@@@2@@std@@QAEPAV?$basic_string@DU?$char_traits@D@std@@V?$allocator@D@2@@2@XZ 100b9010 f i CPlugin.obj
 0002:00042070       ?_Unchecked_end@?$_Hash@V?$_Umap_traits@GKV?$_Uhash_compare@GU?$hash@G@std@@U?$equal_to@G@2@@std@@V?$allocator@U?$pair@$$CBGK@std@@@2@$0A@@std@@@std@@QAE?AV?$_List_unchecked_iterator@V?$_List_val@U?$_List_simple_types@U?$pair@$$CBGK@std@@@std@@@std@@@2@XZ 100b9070 f i CPlugin.obj
 0002:000420e0       ?_Unchecked_end@?$_Hash@V?$_Umap_traits@GV?$shared_ptr@VCPlayerObjectAttachAddon@@@std@@V?$_Uhash_compare@GU?$hash@G@std@@U?$equal_to@G@2@@2@V?$allocator@U?$pair@$$CBGV?$shared_ptr@VCPlayerObjectAttachAddon@@@std@@@std@@@2@$0A@@std@@@std@@QAE?AV?$_List_unchecked_iterator@V?$_List_val@U?$_List_simple_types@U?$pair@$$CBGV?$shared_ptr@VCPlayerObjectAttachAddon@@@std@@@std@@@std@@@std@@@2@XZ 100b90e0 f i CPlugin.obj
 0002:00042150       ?_Unchecked_end@?$_Hash@V?$_Umap_traits@GVCVector@@V?$_Uhash_compare@GU?$hash@G@std@@U?$equal_to@G@2@@std@@V?$allocator@U?$pair@$$CBGVCVector@@@std@@@3@$0A@@std@@@std@@QAE?AV?$_List_unchecked_iterator@V?$_List_val@U?$_List_simple_types@U?$pair@$$CBGVCVector@@@std@@@std@@@std@@@2@XZ 100b9150 f i CPlugin.obj
 0002:000421c0       ?_Unchecked_end@?$_Hash@V?$_Umap_traits@IVCPlayerData@@V?$_Uhash_compare@IU?$hash@I@std@@U?$equal_to@I@2@@std@@V?$allocator@U?$pair@$$CBIVCPlayerData@@@std@@@3@$0A@@std@@@std@@QAE?AV?$_List_unchecked_iterator@V?$_List_val@U?$_List_simple_types@U?$pair@$$CBIVCPlayerData@@@std@@@std@@@std@@@2@XZ 100b91c0 f i CPlugin.obj
 0002:00042230       ?_Unchecked_end@?$list@U?$pair@$$CBGK@std@@V?$allocator@U?$pair@$$CBGK@std@@@2@@std@@QAE?AV?$_List_unchecked_iterator@V?$_List_val@U?$_List_simple_types@U?$pair@$$CBGK@std@@@std@@@std@@@2@XZ 100b9230 f i CPlugin.obj
 0002:000422a0       ?_Unchecked_end@?$list@U?$pair@$$CBGV?$shared_ptr@VCPlayerObjectAttachAddon@@@std@@@std@@V?$allocator@U?$pair@$$CBGV?$shared_ptr@VCPlayerObjectAttachAddon@@@std@@@std@@@2@@std@@QAE?AV?$_List_unchecked_iterator@V?$_List_val@U?$_List_simple_types@U?$pair@$$CBGV?$shared_ptr@VCPlayerObjectAttachAddon@@@std@@@std@@@std@@@std@@@2@XZ 100b92a0 f i CPlugin.obj
 0002:00042310       ?_Unchecked_end@?$list@U?$pair@$$CBGVCVector@@@std@@V?$allocator@U?$pair@$$CBGVCVector@@@std@@@2@@std@@QAE?AV?$_List_unchecked_iterator@V?$_List_val@U?$_List_simple_types@U?$pair@$$CBGVCVector@@@std@@@std@@@std@@@2@XZ 100b9310 f i CPlugin.obj
 0002:00042380       ?_Unchecked_end@?$list@U?$pair@$$CBIVCPlayerData@@@std@@V?$allocator@U?$pair@$$CBIVCPlayerData@@@std@@@2@@std@@QAE?AV?$_List_unchecked_iterator@V?$_List_val@U?$_List_simple_types@U?$pair@$$CBIVCPlayerData@@@std@@@std@@@std@@@2@XZ 100b9380 f i CPlugin.obj
 0002:000423f0       ?_Unchecked_end@?$vector@V?$basic_string@DU?$char_traits@D@std@@V?$allocator@D@2@@std@@V?$allocator@V?$basic_string@DU?$char_traits@D@std@@V?$allocator@D@2@@std@@@2@@std@@QAEPAV?$basic_string@DU?$char_traits@D@std@@V?$allocator@D@2@@2@XZ 100b93f0 f i CPlugin.obj
 0002:00042450       ?_Unchecked_erase@?$_Hash@V?$_Umap_traits@GKV?$_Uhash_compare@GU?$hash@G@std@@U?$equal_to@G@2@@std@@V?$allocator@U?$pair@$$CBGK@std@@@2@$0A@@std@@@std@@AAEPAU?$_List_node@U?$pair@$$CBGK@std@@PAX@2@PAU32@QAU32@@Z 100b9450 f i CPlugin.obj
 0002:000427a0       ?_Unchecked_erase@?$_Hash@V?$_Umap_traits@GVCVector@@V?$_Uhash_compare@GU?$hash@G@std@@U?$equal_to@G@2@@std@@V?$allocator@U?$pair@$$CBGVCVector@@@std@@@3@$0A@@std@@@std@@AAEPAU?$_List_node@U?$pair@$$CBGVCVector@@@std@@PAX@2@PAU32@QAU32@@Z 100b97a0 f i CPlugin.obj
 0002:00042af0       ?_Unchecked_erase@?$_Hash@V?$_Umap_traits@IVCPlayerData@@V?$_Uhash_compare@IU?$hash@I@std@@U?$equal_to@I@2@@std@@V?$allocator@U?$pair@$$CBIVCPlayerData@@@std@@@3@$0A@@std@@@std@@AAEPAU?$_List_node@U?$pair@$$CBIVCPlayerData@@@std@@PAX@2@PAU32@QAU32@@Z 100b9af0 f i CPlugin.obj
 0002:00042e40       ?_Unchecked_erase@?$list@U?$pair@$$CBGK@std@@V?$allocator@U?$pair@$$CBGK@std@@@2@@std@@AAEPAU?$_List_node@U?$pair@$$CBGK@std@@PAX@2@PAU32@QAU32@@Z 100b9e40 f i CPlugin.obj
 0002:00043050       ?_Unchecked_erase@?$list@U?$pair@$$CBGK@std@@V?$allocator@U?$pair@$$CBGK@std@@@2@@std@@AAEPAU?$_List_node@U?$pair@$$CBGK@std@@PAX@2@QAU32@@Z 100ba050 f i CPlugin.obj
 0002:00043110       ?_Unchecked_erase@?$list@U?$pair@$$CBGVCVector@@@std@@V?$allocator@U?$pair@$$CBGVCVector@@@std@@@2@@std@@AAEPAU?$_List_node@U?$pair@$$CBGVCVector@@@std@@PAX@2@PAU32@QAU32@@Z 100ba110 f i CPlugin.obj
 0002:00043320       ?_Unchecked_erase@?$list@U?$pair@$$CBIVCPlayerData@@@std@@V?$allocator@U?$pair@$$CBIVCPlayerData@@@std@@@2@@std@@AAEPAU?$_List_node@U?$pair@$$CBIVCPlayerData@@@std@@PAX@2@PAU32@QAU32@@Z 100ba320 f i CPlugin.obj
 0002:00043530       ?_Unchecked_erase@?$list@U?$pair@$$CBIVCPlayerData@@@std@@V?$allocator@U?$pair@$$CBIVCPlayerData@@@std@@@2@@std@@AAEPAU?$_List_node@U?$pair@$$CBIVCPlayerData@@@std@@PAX@2@QAU32@@Z 100ba530 f i CPlugin.obj
 0002:000435f0       ?_Unchecked_splice@?$_List_val@U?$_List_simple_types@U?$pair@$$CBGK@std@@@std@@@std@@SAPAU?$_List_node@U?$pair@$$CBGK@std@@PAX@2@QAU32@00@Z 100ba5f0 f i CPlugin.obj
 0002:000436a0       ?_Unchecked_splice@?$_List_val@U?$_List_simple_types@U?$pair@$$CBGVCVector@@@std@@@std@@@std@@SAPAU?$_List_node@U?$pair@$$CBGVCVector@@@std@@PAX@2@QAU32@00@Z 100ba6a0 f i CPlugin.obj
 0002:00043750       ?_Unchecked_splice@?$_List_val@U?$_List_simple_types@U?$pair@$$CBIVCPlayerData@@@std@@@std@@@std@@SAPAU?$_List_node@U?$pair@$$CBIVCPlayerData@@@std@@PAX@2@QAU32@00@Z 100ba750 f i CPlugin.obj
 0002:00043800       ?_Unwrapped@?$_Vector_iterator@V?$_Vector_val@U?$_Simple_types@V?$basic_string@DU?$char_traits@D@std@@V?$allocator@D@2@@std@@@std@@@std@@@std@@QBEPAV?$basic_string@DU?$char_traits@D@std@@V?$allocator@D@2@@2@XZ 100ba800 f i CPlugin.obj
 0002:00043860       ?_Validate@?$bitset@$0DOI@@std@@SAXI@Z 100ba860 f i CPlugin.obj
 0002:00043920       ?_Verify_range@std@@YAXABV?$_Vector_const_iterator@V?$_Vector_val@U?$_Simple_types@V?$basic_string@DU?$char_traits@D@std@@V?$allocator@D@2@@std@@@std@@@std@@@1@0@Z 100ba920 f i CPlugin.obj
 0002:00043a90       ?_Xlen_string@std@@YAXXZ   100baa90 f i CPlugin.obj
 0002:00043ae0       ?_Xlength@?$vector@V?$basic_string@DU?$char_traits@D@std@@V?$allocator@D@2@@std@@V?$allocator@V?$basic_string@DU?$char_traits@D@std@@V?$allocator@D@2@@std@@@2@@std@@CAXXZ 100baae0 f i CPlugin.obj
 0002:00043b30       ?allocate@?$allocator@D@std@@QAEPADI@Z 100bab30 f i CPlugin.obj
 0002:00043ba0       ?allocate@?$allocator@U?$_List_node@U?$pair@$$CBGK@std@@PAX@std@@@std@@QAEPAU?$_List_node@U?$pair@$$CBGK@std@@PAX@2@I@Z 100baba0 f i CPlugin.obj
 0002:00043c10       ?allocate@?$allocator@U?$_List_node@U?$pair@$$CBGVCVector@@@std@@PAX@std@@@std@@QAEPAU?$_List_node@U?$pair@$$CBGVCVector@@@std@@PAX@2@I@Z 100bac10 f i CPlugin.obj
 0002:00043c80       ?allocate@?$allocator@U?$_List_node@U?$pair@$$CBIVCPlayerData@@@std@@PAX@std@@@std@@QAEPAU?$_List_node@U?$pair@$$CBIVCPlayerData@@@std@@PAX@2@I@Z 100bac80 f i CPlugin.obj
 0002:00043cf0       ?allocate@?$allocator@U?$_Tree_node@DPAX@std@@@std@@QAEPAU?$_Tree_node@DPAX@2@I@Z 100bacf0 f i CPlugin.obj
 0002:00043d60       ?allocate@?$allocator@U?$_Tree_node@GPAX@std@@@std@@QAEPAU?$_Tree_node@GPAX@2@I@Z 100bad60 f i CPlugin.obj
 0002:00043dd0       ?allocate@?$allocator@U?$_Tree_node@V?$basic_string@DU?$char_traits@D@std@@V?$allocator@D@2@@std@@PAX@std@@@std@@QAEPAU?$_Tree_node@V?$basic_string@DU?$char_traits@D@std@@V?$allocator@D@2@@std@@PAX@2@I@Z 100badd0 f i CPlugin.obj
 0002:00043e40       ?allocate@?$allocator@U_Container_proxy@std@@@std@@QAEPAU_Container_proxy@2@I@Z 100bae40 f i CPlugin.obj
 0002:00043eb0       ?allocate@?$allocator@V?$_List_unchecked_iterator@V?$_List_val@U?$_List_simple_types@U?$pair@$$CBGK@std@@@std@@@std@@@std@@@std@@QAEPAV?$_List_unchecked_iterator@V?$_List_val@U?$_List_simple_types@U?$pair@$$CBGK@std@@@std@@@std@@@2@I@Z 100baeb0 f i CPlugin.obj
 0002:00043f20       ?allocate@?$allocator@V?$_List_unchecked_iterator@V?$_List_val@U?$_List_simple_types@U?$pair@$$CBGVCVector@@@std@@@std@@@std@@@std@@@std@@QAEPAV?$_List_unchecked_iterator@V?$_List_val@U?$_List_simple_types@U?$pair@$$CBGVCVector@@@std@@@std@@@std@@@2@I@Z 100baf20 f i CPlugin.obj
 0002:00043f90       ?allocate@?$allocator@V?$_List_unchecked_iterator@V?$_List_val@U?$_List_simple_types@U?$pair@$$CBIVCPlayerData@@@std@@@std@@@std@@@std@@@std@@QAEPAV?$_List_unchecked_iterator@V?$_List_val@U?$_List_simple_types@U?$pair@$$CBIVCPlayerData@@@std@@@std@@@std@@@2@I@Z 100baf90 f i CPlugin.obj
 0002:00044000       ?allocate@?$allocator@V?$basic_string@DU?$char_traits@D@std@@V?$allocator@D@2@@std@@@std@@QAEPAV?$basic_string@DU?$char_traits@D@std@@V?$allocator@D@2@@2@I@Z 100bb000 f i CPlugin.obj
 0002:00044070       ?append@?$basic_string@DU?$char_traits@D@std@@V?$allocator@D@2@@std@@QAEAAV12@QBD@Z 100bb070 f i CPlugin.obj
 0002:000440f0       ?append@?$basic_string@DU?$char_traits@D@std@@V?$allocator@D@2@@std@@QAEAAV12@QBDI@Z 100bb0f0 f i CPlugin.obj
 0002:00044200       ?assign@?$_Narrow_char_traits@DH@std@@SAXAADABD@Z 100bb200 f i CPlugin.obj
 0002:00044250       ?assign@?$basic_string@DU?$char_traits@D@std@@V?$allocator@D@2@@std@@QAEAAV12@QBD@Z 100bb250 f i CPlugin.obj
 0002:000442d0       ?assign@?$basic_string@DU?$char_traits@D@std@@V?$allocator@D@2@@std@@QAEAAV12@QBDI@Z 100bb2d0 f i CPlugin.obj
 0002:000443c0       ?begin@?$initializer_list@D@std@@QBEPBDXZ 100bb3c0 f i CPlugin.obj
 0002:00044420       ?begin@?$vector@V?$basic_string@DU?$char_traits@D@std@@V?$allocator@D@2@@std@@V?$allocator@V?$basic_string@DU?$char_traits@D@std@@V?$allocator@D@2@@std@@@2@@std@@QAE?AV?$_Vector_iterator@V?$_Vector_val@U?$_Simple_types@V?$basic_string@DU?$char_traits@D@std@@V?$allocator@D@2@@std@@@std@@@std@@@2@XZ 100bb420 f i CPlugin.obj
 0002:000444a0       ?bucket@?$_Hash@V?$_Umap_traits@GKV?$_Uhash_compare@GU?$hash@G@std@@U?$equal_to@G@2@@std@@V?$allocator@U?$pair@$$CBGK@std@@@2@$0A@@std@@@std@@QBEIABG@Z 100bb4a0 f i CPlugin.obj
 0002:00044510       ?bucket@?$_Hash@V?$_Umap_traits@GVCVector@@V?$_Uhash_compare@GU?$hash@G@std@@U?$equal_to@G@2@@std@@V?$allocator@U?$pair@$$CBGVCVector@@@std@@@3@$0A@@std@@@std@@QBEIABG@Z 100bb510 f i CPlugin.obj
 0002:00044580       ?bucket@?$_Hash@V?$_Umap_traits@IVCPlayerData@@V?$_Uhash_compare@IU?$hash@I@std@@U?$equal_to@I@2@@std@@V?$allocator@U?$pair@$$CBIVCPlayerData@@@std@@@3@$0A@@std@@@std@@QBEIABI@Z 100bb580 f i CPlugin.obj
 0002:000445f0       ?bucket_count@?$_Hash@V?$_Umap_traits@GKV?$_Uhash_compare@GU?$hash@G@std@@U?$equal_to@G@2@@std@@V?$allocator@U?$pair@$$CBGK@std@@@2@$0A@@std@@@std@@QBEIXZ 100bb5f0 f i CPlugin.obj
 0002:00044650       ?bucket_count@?$_Hash@V?$_Umap_traits@GVCVector@@V?$_Uhash_compare@GU?$hash@G@std@@U?$equal_to@G@2@@std@@V?$allocator@U?$pair@$$CBGVCVector@@@std@@@3@$0A@@std@@@std@@QBEIXZ 100bb650 f i CPlugin.obj
 0002:000446b0       ?bucket_count@?$_Hash@V?$_Umap_traits@IVCPlayerData@@V?$_Uhash_compare@IU?$hash@I@std@@U?$equal_to@I@2@@std@@V?$allocator@U?$pair@$$CBIVCPlayerData@@@std@@@3@$0A@@std@@@std@@QBEIXZ 100bb6b0 f i CPlugin.obj
 0002:00044710       ?c_str@?$basic_string@DU?$char_traits@D@std@@V?$allocator@D@2@@std@@QBEPBDXZ 100bb710 f i CPlugin.obj
 0002:00044770       ?capacity@?$vector@V?$basic_string@DU?$char_traits@D@std@@V?$allocator@D@2@@std@@V?$allocator@V?$basic_string@DU?$char_traits@D@std@@V?$allocator@D@2@@std@@@2@@std@@QBEIXZ 100bb770 f i CPlugin.obj
 0002:000447e0       ?clear@?$_Hash@V?$_Umap_traits@GKV?$_Uhash_compare@GU?$hash@G@std@@U?$equal_to@G@2@@std@@V?$allocator@U?$pair@$$CBGK@std@@@2@$0A@@std@@@std@@QAEXXZ 100bb7e0 f i CPlugin.obj
 0002:00044900       ?clear@?$_Hash@V?$_Umap_traits@GVCVector@@V?$_Uhash_compare@GU?$hash@G@std@@U?$equal_to@G@2@@std@@V?$allocator@U?$pair@$$CBGVCVector@@@std@@@3@$0A@@std@@@std@@QAEXXZ 100bb900 f i CPlugin.obj
 0002:00044a20       ?clear@?$_Hash@V?$_Umap_traits@IVCPlayerData@@V?$_Uhash_compare@IU?$hash@I@std@@U?$equal_to@I@2@@std@@V?$allocator@U?$pair@$$CBIVCPlayerData@@@std@@@3@$0A@@std@@@std@@QAEXXZ 100bba20 f i CPlugin.obj
 0002:00044b40       ?clear@?$_Tree@V?$_Tset_traits@DU?$less@D@std@@V?$allocator@D@2@$0A@@std@@@std@@QAEXXZ 100bbb40 f i CPlugin.obj
 0002:00044c00       ?clear@?$_Tree@V?$_Tset_traits@GU?$less@G@std@@V?$allocator@G@2@$0A@@std@@@std@@QAEXXZ 100bbc00 f i CPlugin.obj
 0002:00044cc0       ?clear@?$list@U?$pair@$$CBGK@std@@V?$allocator@U?$pair@$$CBGK@std@@@2@@std@@QAEXXZ 100bbcc0 f i CPlugin.obj
 0002:00044d70       ?clear@?$list@U?$pair@$$CBGVCVector@@@std@@V?$allocator@U?$pair@$$CBGVCVector@@@std@@@2@@std@@QAEXXZ 100bbd70 f i CPlugin.obj
 0002:00044e20       ?clear@?$list@U?$pair@$$CBIVCPlayerData@@@std@@V?$allocator@U?$pair@$$CBIVCPlayerData@@@std@@@2@@std@@QAEXXZ 100bbe20 f i CPlugin.obj
 0002:00044ed0       ?compare@?$_Narrow_char_traits@DH@std@@SAHQBD0I@Z 100bbed0 f i CPlugin.obj
 0002:00044f30       ?copy@?$_Char_traits@DH@std@@SAPADQADQBDI@Z 100bbf30 f i CPlugin.obj
 0002:00044f90       ?deallocate@?$_Default_allocator_traits@V?$allocator@U?$_List_node@U?$pair@$$CBGK@std@@PAX@std@@@std@@@std@@SAXAAV?$allocator@U?$_List_node@U?$pair@$$CBGK@std@@PAX@std@@@2@QAU?$_List_node@U?$pair@$$CBGK@std@@PAX@2@I@Z 100bbf90 f i CPlugin.obj
 0002:00044ff0       ?deallocate@?$_Default_allocator_traits@V?$allocator@U?$_List_node@U?$pair@$$CBGVCVector@@@std@@PAX@std@@@std@@@std@@SAXAAV?$allocator@U?$_List_node@U?$pair@$$CBGVCVector@@@std@@PAX@std@@@2@QAU?$_List_node@U?$pair@$$CBGVCVector@@@std@@PAX@2@I@Z 100bbff0 f i CPlugin.obj
 0002:00045050       ?deallocate@?$_Default_allocator_traits@V?$allocator@U?$_List_node@U?$pair@$$CBIVCPlayerData@@@std@@PAX@std@@@std@@@std@@SAXAAV?$allocator@U?$_List_node@U?$pair@$$CBIVCPlayerData@@@std@@PAX@std@@@2@QAU?$_List_node@U?$pair@$$CBIVCPlayerData@@@std@@PAX@2@I@Z 100bc050 f i CPlugin.obj
 0002:000450b0       ?deallocate@?$_Default_allocator_traits@V?$allocator@U?$_Tree_node@DPAX@std@@@std@@@std@@SAXAAV?$allocator@U?$_Tree_node@DPAX@std@@@2@QAU?$_Tree_node@DPAX@2@I@Z 100bc0b0 f i CPlugin.obj
 0002:00045110       ?deallocate@?$_Default_allocator_traits@V?$allocator@U?$_Tree_node@GPAX@std@@@std@@@std@@SAXAAV?$allocator@U?$_Tree_node@GPAX@std@@@2@QAU?$_Tree_node@GPAX@2@I@Z 100bc110 f i CPlugin.obj
 0002:00045170       ?deallocate@?$_Default_allocator_traits@V?$allocator@U?$_Tree_node@V?$basic_string@DU?$char_traits@D@std@@V?$allocator@D@2@@std@@PAX@std@@@std@@@std@@SAXAAV?$allocator@U?$_Tree_node@V?$basic_string@DU?$char_traits@D@std@@V?$allocator@D@2@@std@@PAX@std@@@2@QAU?$_Tree_node@V?$basic_string@DU?$char_traits@D@std@@V?$allocator@D@2@@std@@PAX@2@I@Z 100bc170 f i CPlugin.obj
 0002:000451d0       ?deallocate@?$_Default_allocator_traits@V?$allocator@U_Container_proxy@std@@@std@@@std@@SAXAAV?$allocator@U_Container_proxy@std@@@2@QAU_Container_proxy@2@I@Z 100bc1d0 f i CPlugin.obj
 0002:00045230       ?deallocate@?$allocator@D@std@@QAEXQADI@Z 100bc230 f i CPlugin.obj
 0002:000452a0       ?deallocate@?$allocator@PAUSysExec_t@CPlugin@@@std@@QAEXQAPAUSysExec_t@CPlugin@@I@Z 100bc2a0 f i CPlugin.obj
 0002:00045310       ?deallocate@?$allocator@U?$_List_node@U?$pair@$$CBGK@std@@PAX@std@@@std@@QAEXQAU?$_List_node@U?$pair@$$CBGK@std@@PAX@2@I@Z 100bc310 f i CPlugin.obj
 0002:00045380       ?deallocate@?$allocator@U?$_List_node@U?$pair@$$CBGVCVector@@@std@@PAX@std@@@std@@QAEXQAU?$_List_node@U?$pair@$$CBGVCVector@@@std@@PAX@2@I@Z 100bc380 f i CPlugin.obj
 0002:000453f0       ?deallocate@?$allocator@U?$_List_node@U?$pair@$$CBIVCPlayerData@@@std@@PAX@std@@@std@@QAEXQAU?$_List_node@U?$pair@$$CBIVCPlayerData@@@std@@PAX@2@I@Z 100bc3f0 f i CPlugin.obj
 0002:00045460       ?deallocate@?$allocator@U?$_Tree_node@DPAX@std@@@std@@QAEXQAU?$_Tree_node@DPAX@2@I@Z 100bc460 f i CPlugin.obj
 0002:000454d0       ?deallocate@?$allocator@U?$_Tree_node@GPAX@std@@@std@@QAEXQAU?$_Tree_node@GPAX@2@I@Z 100bc4d0 f i CPlugin.obj
 0002:00045540       ?deallocate@?$allocator@USysExec_t@CPlugin@@@std@@QAEXQAUSysExec_t@CPlugin@@I@Z 100bc540 f i CPlugin.obj
 0002:000455b0       ?deallocate@?$allocator@V?$_List_unchecked_iterator@V?$_List_val@U?$_List_simple_types@U?$pair@$$CBGK@std@@@std@@@std@@@std@@@std@@QAEXQAV?$_List_unchecked_iterator@V?$_List_val@U?$_List_simple_types@U?$pair@$$CBGK@std@@@std@@@std@@@2@I@Z 100bc5b0 f i CPlugin.obj
 0002:00045620       ?deallocate@?$allocator@V?$_List_unchecked_iterator@V?$_List_val@U?$_List_simple_types@U?$pair@$$CBGVCVector@@@std@@@std@@@std@@@std@@@std@@QAEXQAV?$_List_unchecked_iterator@V?$_List_val@U?$_List_simple_types@U?$pair@$$CBGVCVector@@@std@@@std@@@std@@@2@I@Z 100bc620 f i CPlugin.obj
 0002:00045690       ?deallocate@?$allocator@V?$_List_unchecked_iterator@V?$_List_val@U?$_List_simple_types@U?$pair@$$CBIVCPlayerData@@@std@@@std@@@std@@@std@@@std@@QAEXQAV?$_List_unchecked_iterator@V?$_List_val@U?$_List_simple_types@U?$pair@$$CBIVCPlayerData@@@std@@@std@@@std@@@2@I@Z 100bc690 f i CPlugin.obj
 0002:00045700       ?deallocate@?$allocator@V?$basic_string@DU?$char_traits@D@std@@V?$allocator@D@2@@std@@@std@@QAEXQAV?$basic_string@DU?$char_traits@D@std@@V?$allocator@D@2@@2@I@Z 100bc700 f i CPlugin.obj
 0002:00045770       ?empty@?$_Hash@V?$_Umap_traits@GKV?$_Uhash_compare@GU?$hash@G@std@@U?$equal_to@G@2@@std@@V?$allocator@U?$pair@$$CBGK@std@@@2@$0A@@std@@@std@@QBE_NXZ 100bc770 f i CPlugin.obj
 0002:000457d0       ?empty@?$basic_string@DU?$char_traits@D@std@@V?$allocator@D@2@@std@@QBE_NXZ 100bc7d0 f i CPlugin.obj
 0002:00045850       ?empty@?$deque@USysExec_t@CPlugin@@V?$allocator@USysExec_t@CPlugin@@@std@@@std@@QBE_NXZ 100bc850 f i CPlugin.obj
 0002:000458d0       ?empty@?$list@U?$pair@$$CBGK@std@@V?$allocator@U?$pair@$$CBGK@std@@@2@@std@@QBE_NXZ 100bc8d0 f i CPlugin.obj
 0002:00045950       ?empty@?$queue@USysExec_t@CPlugin@@V?$deque@USysExec_t@CPlugin@@V?$allocator@USysExec_t@CPlugin@@@std@@@std@@@std@@QBE_NXZ 100bc950 f i CPlugin.obj
 0002:000459b0       ?end@?$_Hash@V?$_Umap_traits@GKV?$_Uhash_compare@GU?$hash@G@std@@U?$equal_to@G@2@@std@@V?$allocator@U?$pair@$$CBGK@std@@@2@$0A@@std@@@std@@QAE?AV?$_List_iterator@V?$_List_val@U?$_List_simple_types@U?$pair@$$CBGK@std@@@std@@@std@@@2@XZ 100bc9b0 f i CPlugin.obj
 0002:00045a20       ?end@?$_Hash@V?$_Umap_traits@GVCVector@@V?$_Uhash_compare@GU?$hash@G@std@@U?$equal_to@G@2@@std@@V?$allocator@U?$pair@$$CBGVCVector@@@std@@@3@$0A@@std@@@std@@QAE?AV?$_List_iterator@V?$_List_val@U?$_List_simple_types@U?$pair@$$CBGVCVector@@@std@@@std@@@std@@@2@XZ 100bca20 f i CPlugin.obj
 0002:00045a90       ?end@?$_Hash@V?$_Umap_traits@IVCPlayerData@@V?$_Uhash_compare@IU?$hash@I@std@@U?$equal_to@I@2@@std@@V?$allocator@U?$pair@$$CBIVCPlayerData@@@std@@@3@$0A@@std@@@std@@QAE?AV?$_List_iterator@V?$_List_val@U?$_List_simple_types@U?$pair@$$CBIVCPlayerData@@@std@@@std@@@std@@@2@XZ 100bca90 f i CPlugin.obj
 0002:00045b00       ?end@?$_Tree@V?$_Tset_traits@DU?$less@D@std@@V?$allocator@D@2@$0A@@std@@@std@@QAE?AV?$_Tree_const_iterator@V?$_Tree_val@U?$_Tree_simple_types@D@std@@@std@@@2@XZ 100bcb00 f i CPlugin.obj
 0002:00045b80       ?end@?$_Tree@V?$_Tset_traits@GU?$less@G@std@@V?$allocator@G@2@$0A@@std@@@std@@QAE?AV?$_Tree_const_iterator@V?$_Tree_val@U?$_Tree_simple_types@G@std@@@std@@@2@XZ 100bcb80 f i CPlugin.obj
 0002:00045c00       ?end@?$initializer_list@D@std@@QBEPBDXZ 100bcc00 f i CPlugin.obj
 0002:00045c60       ?end@?$list@U?$pair@$$CBGK@std@@V?$allocator@U?$pair@$$CBGK@std@@@2@@std@@QAE?AV?$_List_iterator@V?$_List_val@U?$_List_simple_types@U?$pair@$$CBGK@std@@@std@@@std@@@2@XZ 100bcc60 f i CPlugin.obj
 0002:00045ce0       ?end@?$list@U?$pair@$$CBGVCVector@@@std@@V?$allocator@U?$pair@$$CBGVCVector@@@std@@@2@@std@@QAE?AV?$_List_iterator@V?$_List_val@U?$_List_simple_types@U?$pair@$$CBGVCVector@@@std@@@std@@@std@@@2@XZ 100bcce0 f i CPlugin.obj
 0002:00045d60       ?end@?$list@U?$pair@$$CBIVCPlayerData@@@std@@V?$allocator@U?$pair@$$CBIVCPlayerData@@@std@@@2@@std@@QAE?AV?$_List_iterator@V?$_List_val@U?$_List_simple_types@U?$pair@$$CBIVCPlayerData@@@std@@@std@@@std@@@2@XZ 100bcd60 f i CPlugin.obj
 0002:00045de0       ?end@?$vector@V?$basic_string@DU?$char_traits@D@std@@V?$allocator@D@2@@std@@V?$allocator@V?$basic_string@DU?$char_traits@D@std@@V?$allocator@D@2@@std@@@2@@std@@QAE?AV?$_Vector_iterator@V?$_Vector_val@U?$_Simple_types@V?$basic_string@DU?$char_traits@D@std@@V?$allocator@D@2@@std@@@std@@@std@@@2@XZ 100bcde0 f i CPlugin.obj
 0002:00045e60       ?erase@?$_Hash@V?$_Umap_traits@GKV?$_Uhash_compare@GU?$hash@G@std@@U?$equal_to@G@2@@std@@V?$allocator@U?$pair@$$CBGK@std@@@2@$0A@@std@@@std@@QAEIABG@Z 100bce60 f i CPlugin.obj
 0002:00045f70       ?erase@?$_Hash@V?$_Umap_traits@IVCPlayerData@@V?$_Uhash_compare@IU?$hash@I@std@@U?$equal_to@I@2@@std@@V?$allocator@U?$pair@$$CBIVCPlayerData@@@std@@@3@$0A@@std@@@std@@QAEIABI@Z 100bcf70 f i CPlugin.obj
 0002:00046080       ?erase@?$_Tree@V?$_Tset_traits@DU?$less@D@std@@V?$allocator@D@2@$0A@@std@@@std@@QAEIABD@Z 100bd080 f i CPlugin.obj
 0002:000461a0       ?erase@?$_Tree@V?$_Tset_traits@GU?$less@G@std@@V?$allocator@G@2@$0A@@std@@@std@@QAEIABG@Z 100bd1a0 f i CPlugin.obj
 0002:000462c0       ?fabs@@YAMM@Z              100bd2c0 f i CPlugin.obj
 0002:00046320       ?find@?$_Tree@V?$_Tset_traits@DU?$less@D@std@@V?$allocator@D@2@$0A@@std@@@std@@QAE?AV?$_Tree_const_iterator@V?$_Tree_val@U?$_Tree_simple_types@D@std@@@std@@@2@ABD@Z 100bd320 f i CPlugin.obj
 0002:000463c0       ?find@?$_Tree@V?$_Tset_traits@GU?$less@G@std@@V?$allocator@G@2@$0A@@std@@@std@@QAE?AV?$_Tree_const_iterator@V?$_Tree_val@U?$_Tree_simple_types@G@std@@@std@@@2@ABG@Z 100bd3c0 f i CPlugin.obj
 0002:00046460       ?front@?$deque@USysExec_t@CPlugin@@V?$allocator@USysExec_t@CPlugin@@@std@@@std@@QAEAAUSysExec_t@CPlugin@@XZ 100bd460 f i CPlugin.obj
 0002:00046560       ?front@?$queue@USysExec_t@CPlugin@@V?$deque@USysExec_t@CPlugin@@V?$allocator@USysExec_t@CPlugin@@@std@@@std@@@std@@QAEAAUSysExec_t@CPlugin@@XZ 100bd560 f i CPlugin.obj
 0002:000465c0       ?get@?$_Ptr_base@VCPlayerObjectAttachAddon@@@std@@IBEPAVCPlayerObjectAttachAddon@@XZ 100bd5c0 f i CPlugin.obj
 0002:00046620       ?get@?$unique_ptr@VCConfig@@U?$default_delete@VCConfig@@@std@@@std@@QBEPAVCConfig@@XZ 100bd620 f i CPlugin.obj
 0002:00046680       ?get@?$unique_ptr@VCPlugin@@U?$default_delete@VCPlugin@@@std@@@std@@QBEPAVCPlugin@@XZ 100bd680 f i CPlugin.obj
 0002:000466e0       ?get@?$unique_ptr@VCServer@@U?$default_delete@VCServer@@@std@@@std@@QBEPAVCServer@@XZ 100bd6e0 f i CPlugin.obj
 0002:00046740       ?get_deleter@?$unique_ptr@VCConfig@@U?$default_delete@VCConfig@@@std@@@std@@QAEAAU?$default_delete@VCConfig@@@2@XZ 100bd740 f i CPlugin.obj
 0002:000467a0       ?get_id@this_thread@std@@YA?AVid@thread@2@XZ 100bd7a0 f i CPlugin.obj
 0002:00046840       ?insert@?$_Tree@V?$_Tset_traits@DU?$less@D@std@@V?$allocator@D@2@$0A@@std@@@std@@QAEXV?$initializer_list@D@2@@Z 100bd840 f i CPlugin.obj
 0002:000468b0       ?length@?$_Narrow_char_traits@DH@std@@SAIQBD@Z 100bd8b0 f i CPlugin.obj
 0002:00046910       ?max@?$numeric_limits@H@std@@SAHXZ 100bd910 f i CPlugin.obj
 0002:00046960       ?max_load_factor@?$_Hash@V?$_Umap_traits@GKV?$_Uhash_compare@GU?$hash@G@std@@U?$equal_to@G@2@@std@@V?$allocator@U?$pair@$$CBGK@std@@@2@$0A@@std@@@std@@QBEMXZ 100bd960 f i CPlugin.obj
 0002:000469c0       ?max_load_factor@?$_Hash@V?$_Umap_traits@GVCVector@@V?$_Uhash_compare@GU?$hash@G@std@@U?$equal_to@G@2@@std@@V?$allocator@U?$pair@$$CBGVCVector@@@std@@@3@$0A@@std@@@std@@QBEMXZ 100bd9c0 f i CPlugin.obj
 0002:00046a20       ?max_load_factor@?$_Hash@V?$_Umap_traits@IVCPlayerData@@V?$_Uhash_compare@IU?$hash@I@std@@U?$equal_to@I@2@@std@@V?$allocator@U?$pair@$$CBIVCPlayerData@@@std@@@3@$0A@@std@@@std@@QBEMXZ 100bda20 f i CPlugin.obj
 0002:00046a80       ?max_size@?$_Default_allocator_traits@V?$allocator@D@std@@@std@@SAIABV?$allocator@D@2@@Z 100bda80 f i CPlugin.obj
 0002:00046ad0       ?max_size@?$_Default_allocator_traits@V?$allocator@U?$_List_node@U?$pair@$$CBGK@std@@PAX@std@@@std@@@std@@SAIABV?$allocator@U?$_List_node@U?$pair@$$CBGK@std@@PAX@std@@@2@@Z 100bdad0 f i CPlugin.obj
 0002:00046b20       ?max_size@?$_Default_allocator_traits@V?$allocator@U?$_List_node@U?$pair@$$CBGVCVector@@@std@@PAX@std@@@std@@@std@@SAIABV?$allocator@U?$_List_node@U?$pair@$$CBGVCVector@@@std@@PAX@std@@@2@@Z 100bdb20 f i CPlugin.obj
 0002:00046b70       ?max_size@?$_Default_allocator_traits@V?$allocator@U?$_List_node@U?$pair@$$CBIVCPlayerData@@@std@@PAX@std@@@std@@@std@@SAIABV?$allocator@U?$_List_node@U?$pair@$$CBIVCPlayerData@@@std@@PAX@std@@@2@@Z 100bdb70 f i CPlugin.obj
 0002:00046bc0       ?max_size@?$_Default_allocator_traits@V?$allocator@U?$_Tree_node@DPAX@std@@@std@@@std@@SAIABV?$allocator@U?$_Tree_node@DPAX@std@@@2@@Z 100bdbc0 f i CPlugin.obj
 0002:00046c10       ?max_size@?$_Default_allocator_traits@V?$allocator@U?$_Tree_node@GPAX@std@@@std@@@std@@SAIABV?$allocator@U?$_Tree_node@GPAX@std@@@2@@Z 100bdc10 f i CPlugin.obj
 0002:00046c60       ?max_size@?$_Default_allocator_traits@V?$allocator@V?$_List_unchecked_iterator@V?$_List_val@U?$_List_simple_types@U?$pair@$$CBGK@std@@@std@@@std@@@std@@@std@@@std@@SAIABV?$allocator@V?$_List_unchecked_iterator@V?$_List_val@U?$_List_simple_types@U?$pair@$$CBGK@std@@@std@@@std@@@std@@@2@@Z 100bdc60 f i CPlugin.obj
 0002:00046cb0       ?max_size@?$_Default_allocator_traits@V?$allocator@V?$_List_unchecked_iterator@V?$_List_val@U?$_List_simple_types@U?$pair@$$CBGVCVector@@@std@@@std@@@std@@@std@@@std@@@std@@SAIABV?$allocator@V?$_List_unchecked_iterator@V?$_List_val@U?$_List_simple_types@U?$pair@$$CBGVCVector@@@std@@@std@@@std@@@std@@@2@@Z 100bdcb0 f i CPlugin.obj
 0002:00046d00       ?max_size@?$_Default_allocator_traits@V?$allocator@V?$_List_unchecked_iterator@V?$_List_val@U?$_List_simple_types@U?$pair@$$CBIVCPlayerData@@@std@@@std@@@std@@@std@@@std@@@std@@SAIABV?$allocator@V?$_List_unchecked_iterator@V?$_List_val@U?$_List_simple_types@U?$pair@$$CBIVCPlayerData@@@std@@@std@@@std@@@std@@@2@@Z 100bdd00 f i CPlugin.obj
 0002:00046d50       ?max_size@?$_Default_allocator_traits@V?$allocator@V?$basic_string@DU?$char_traits@D@std@@V?$allocator@D@2@@std@@@std@@@std@@SAIABV?$allocator@V?$basic_string@DU?$char_traits@D@std@@V?$allocator@D@2@@std@@@2@@Z 100bdd50 f i CPlugin.obj
 0002:00046da0       ?max_size@?$_Hash_vec@V?$allocator@V?$_List_unchecked_iterator@V?$_List_val@U?$_List_simple_types@U?$pair@$$CBGK@std@@@std@@@std@@@std@@@std@@@std@@QBEIXZ 100bdda0 f i CPlugin.obj
 0002:00046e40       ?max_size@?$_Hash_vec@V?$allocator@V?$_List_unchecked_iterator@V?$_List_val@U?$_List_simple_types@U?$pair@$$CBGVCVector@@@std@@@std@@@std@@@std@@@std@@@std@@QBEIXZ 100bde40 f i CPlugin.obj
 0002:00046ee0       ?max_size@?$_Hash_vec@V?$allocator@V?$_List_unchecked_iterator@V?$_List_val@U?$_List_simple_types@U?$pair@$$CBIVCPlayerData@@@std@@@std@@@std@@@std@@@std@@@std@@QBEIXZ 100bdee0 f i CPlugin.obj
 0002:00046f80       ?max_size@?$_Tree@V?$_Tset_traits@DU?$less@D@std@@V?$allocator@D@2@$0A@@std@@@std@@QBEIXZ 100bdf80 f i CPlugin.obj
 0002:00047020       ?max_size@?$_Tree@V?$_Tset_traits@GU?$less@G@std@@V?$allocator@G@2@$0A@@std@@@std@@QBEIXZ 100be020 f i CPlugin.obj
 0002:000470c0       ?max_size@?$basic_string@DU?$char_traits@D@std@@V?$allocator@D@2@@std@@QBEIXZ 100be0c0 f i CPlugin.obj
 0002:000471d0       ?max_size@?$list@U?$pair@$$CBGK@std@@V?$allocator@U?$pair@$$CBGK@std@@@2@@std@@QBEIXZ 100be1d0 f i CPlugin.obj
 0002:00047270       ?max_size@?$list@U?$pair@$$CBGVCVector@@@std@@V?$allocator@U?$pair@$$CBGVCVector@@@std@@@2@@std@@QBEIXZ 100be270 f i CPlugin.obj
 0002:00047310       ?max_size@?$list@U?$pair@$$CBIVCPlayerData@@@std@@V?$allocator@U?$pair@$$CBIVCPlayerData@@@std@@@2@@std@@QBEIXZ 100be310 f i CPlugin.obj
 0002:000473b0       ?max_size@?$vector@V?$basic_string@DU?$char_traits@D@std@@V?$allocator@D@2@@std@@V?$allocator@V?$basic_string@DU?$char_traits@D@std@@V?$allocator@D@2@@std@@@2@@std@@QBEIXZ 100be3b0 f i CPlugin.obj
 0002:00047450       ?move@?$_Char_traits@DH@std@@SAPADQADQBDI@Z 100be450 f i CPlugin.obj
 0002:000474b0       ?now@steady_clock@chrono@std@@SA?AV?$time_point@Usteady_clock@chrono@std@@V?$duration@_JU?$ratio@$00$0DLJKMKAA@@std@@@23@@23@XZ 100be4b0 f i CPlugin.obj
 0002:000475d0       ?owns_lock@?$unique_lock@Vmutex@std@@@std@@QBE_NXZ 100be5d0 f i CPlugin.obj
 0002:00047630       ?pointer_to@?$pointer_traits@PAU?$pair@$$CBGK@std@@@std@@SAPAU?$pair@$$CBGK@2@AAU32@@Z 100be630 f i CPlugin.obj
 0002:00047690       ?pointer_to@?$pointer_traits@PAU?$pair@$$CBIVCPlayerData@@@std@@@std@@SAPAU?$pair@$$CBIVCPlayerData@@@2@AAU32@@Z 100be690 f i CPlugin.obj
 0002:000476f0       ?pop@?$queue@USysExec_t@CPlugin@@V?$deque@USysExec_t@CPlugin@@V?$allocator@USysExec_t@CPlugin@@@std@@@std@@@std@@QAEXXZ 100be6f0 f i CPlugin.obj
 0002:00047750       ?pop_back@?$deque@USysExec_t@CPlugin@@V?$allocator@USysExec_t@CPlugin@@@std@@@std@@QAEXXZ 100be750 f i CPlugin.obj
 0002:00047940       ?pop_front@?$deque@USysExec_t@CPlugin@@V?$allocator@USysExec_t@CPlugin@@@std@@@std@@QAEXXZ 100be940 f i CPlugin.obj
 0002:00047b50       ?push_back@?$vector@V?$basic_string@DU?$char_traits@D@std@@V?$allocator@D@2@@std@@V?$allocator@V?$basic_string@DU?$char_traits@D@std@@V?$allocator@D@2@@std@@@2@@std@@QAEX$$QAV?$basic_string@DU?$char_traits@D@std@@V?$allocator@D@2@@2@@Z 100beb50 f i CPlugin.obj
 0002:00047bc0       ?release@?$unique_ptr@VCConfig@@U?$default_delete@VCConfig@@@std@@@std@@QAEPAVCConfig@@XZ 100bebc0 f i CPlugin.obj
 0002:00047c40       ?reset@?$unique_ptr@VCConfig@@U?$default_delete@VCConfig@@@std@@@std@@QAEXPAVCConfig@@@Z 100bec40 f i CPlugin.obj
 0002:00047cd0       ?select_on_container_copy_construction@?$_Default_allocator_traits@V?$allocator@D@std@@@std@@SA?AV?$allocator@D@2@ABV32@@Z 100becd0 f i CPlugin.obj
 0002:00047d20       ?size@?$_Hash_vec@V?$allocator@V?$_List_unchecked_iterator@V?$_List_val@U?$_List_simple_types@U?$pair@$$CBGK@std@@@std@@@std@@@std@@@std@@@std@@QBEIXZ 100bed20 f i CPlugin.obj
 0002:00047d80       ?size@?$_Hash_vec@V?$allocator@V?$_List_unchecked_iterator@V?$_List_val@U?$_List_simple_types@U?$pair@$$CBGVCVector@@@std@@@std@@@std@@@std@@@std@@@std@@QBEIXZ 100bed80 f i CPlugin.obj
 0002:00047de0       ?size@?$_Hash_vec@V?$allocator@V?$_List_unchecked_iterator@V?$_List_val@U?$_List_simple_types@U?$pair@$$CBIVCPlayerData@@@std@@@std@@@std@@@std@@@std@@@std@@QBEIXZ 100bede0 f i CPlugin.obj
 0002:00047e40       ?size@?$basic_string@DU?$char_traits@D@std@@V?$allocator@D@2@@std@@QBEIXZ 100bee40 f i CPlugin.obj
 0002:00047ea0       ?size@?$vector@V?$basic_string@DU?$char_traits@D@std@@V?$allocator@D@2@@std@@V?$allocator@V?$basic_string@DU?$char_traits@D@std@@V?$allocator@D@2@@std@@@2@@std@@QBEIXZ 100beea0 f i CPlugin.obj
 0002:00047f10       ?sqrt@@YAMM@Z              100bef10 f i CPlugin.obj
 0002:00047f70       ?try_lock@_Mutex_base@std@@QAE_NXZ 100bef70 f i CPlugin.obj
 0002:00048010       ?unlock@_Mutex_base@std@@QAEXXZ 100bf010 f i CPlugin.obj
 0002:00048080       _ceilf                     100bf080 f i CPlugin.obj
 0002:00048100       _fabsf                     100bf100 f i CPlugin.obj
 0002:00048170       _sqrtf                     100bf170 f i CPlugin.obj
 0002:000481e0       ??$?0ABV?$allocator@U?$pair@$$CBIV?$tuple@I@std@@@std@@@std@@$$V@?$_Compressed_pair@V?$allocator@U?$_List_node@U?$pair@$$CBIV?$tuple@I@std@@@std@@PAX@std@@@std@@V?$_List_val@U?$_List_simple_types@U?$pair@$$CBIV?$tuple@I@std@@@std@@@std@@@2@$00@std@@QAE@U_One_then_variadic_args_t@1@ABV?$allocator@U?$pair@$$CBIV?$tuple@I@std@@@std@@@1@@Z 100bf1e0 f i CServer.obj
 0002:00048260       ??$?0ABV?$allocator@U?$pair@$$CBIV?$tuple@I@std@@@std@@@std@@$$V@?$_Compressed_pair@V?$allocator@V?$_List_unchecked_iterator@V?$_List_val@U?$_List_simple_types@U?$pair@$$CBIV?$tuple@I@std@@@std@@@std@@@std@@@std@@@std@@V?$_Vector_val@U?$_Simple_types@V?$_List_unchecked_iterator@V?$_List_val@U?$_List_simple_types@U?$pair@$$CBIV?$tuple@I@std@@@std@@@std@@@std@@@std@@@std@@@2@$00@std@@QAE@U_One_then_variadic_args_t@1@ABV?$allocator@U?$pair@$$CBIV?$tuple@I@std@@@std@@@1@@Z 100bf260 f i CServer.obj
 0002:000482e0       ??$?0ABV?$allocator@U?$pair@$$CBIV?$tuple@I@std@@@std@@@std@@$0A@@?$_Hash_vec@V?$allocator@V?$_List_unchecked_iterator@V?$_List_val@U?$_List_simple_types@U?$pair@$$CBIV?$tuple@I@std@@@std@@@std@@@std@@@std@@@std@@@std@@QAE@ABV?$allocator@U?$pair@$$CBIV?$tuple@I@std@@@std@@@1@@Z 100bf2e0 f i CServer.obj
 0002:000483c0       ??$?0ABV?$allocator@U?$pair@$$CBIVCObjectData@@@std@@@std@@$$V@?$_Compressed_pair@V?$allocator@U?$_List_node@U?$pair@$$CBIVCObjectData@@@std@@PAX@std@@@std@@V?$_List_val@U?$_List_simple_types@U?$pair@$$CBIVCObjectData@@@std@@@std@@@2@$00@std@@QAE@U_One_then_variadic_args_t@1@ABV?$allocator@U?$pair@$$CBIVCObjectData@@@std@@@1@@Z 100bf3c0 f i CServer.obj
 0002:00048440       ??$?0ABV?$allocator@U?$pair@$$CBIVCObjectData@@@std@@@std@@$$V@?$_Compressed_pair@V?$allocator@V?$_List_unchecked_iterator@V?$_List_val@U?$_List_simple_types@U?$pair@$$CBIVCObjectData@@@std@@@std@@@std@@@std@@@std@@V?$_Vector_val@U?$_Simple_types@V?$_List_unchecked_iterator@V?$_List_val@U?$_List_simple_types@U?$pair@$$CBIVCObjectData@@@std@@@std@@@std@@@std@@@std@@@2@$00@std@@QAE@U_One_then_variadic_args_t@1@ABV?$allocator@U?$pair@$$CBIVCObjectData@@@std@@@1@@Z 100bf440 f i CServer.obj
 0002:000484c0       ??$?0ABV?$allocator@U?$pair@$$CBIVCObjectData@@@std@@@std@@$0A@@?$_Hash_vec@V?$allocator@V?$_List_unchecked_iterator@V?$_List_val@U?$_List_simple_types@U?$pair@$$CBIVCObjectData@@@std@@@std@@@std@@@std@@@std@@@std@@QAE@ABV?$allocator@U?$pair@$$CBIVCObjectData@@@std@@@1@@Z 100bf4c0 f i CServer.obj
 0002:000485a0       ??$?0ABV?$allocator@U?$pair@$$CBIVCPlayerData@@@std@@@std@@$$V@?$_Compressed_pair@V?$allocator@U?$_List_node@U?$pair@$$CBIVCPlayerData@@@std@@PAX@std@@@std@@V?$_List_val@U?$_List_simple_types@U?$pair@$$CBIVCPlayerData@@@std@@@std@@@2@$00@std@@QAE@U_One_then_variadic_args_t@1@ABV?$allocator@U?$pair@$$CBIVCPlayerData@@@std@@@1@@Z 100bf5a0 f i CServer.obj
 0002:00048620       ??$?0ABV?$allocator@U?$pair@$$CBIVCPlayerData@@@std@@@std@@$$V@?$_Compressed_pair@V?$allocator@V?$_List_unchecked_iterator@V?$_List_val@U?$_List_simple_types@U?$pair@$$CBIVCPlayerData@@@std@@@std@@@std@@@std@@@std@@V?$_Vector_val@U?$_Simple_types@V?$_List_unchecked_iterator@V?$_List_val@U?$_List_simple_types@U?$pair@$$CBIVCPlayerData@@@std@@@std@@@std@@@std@@@std@@@2@$00@std@@QAE@U_One_then_variadic_args_t@1@ABV?$allocator@U?$pair@$$CBIVCPlayerData@@@std@@@1@@Z 100bf620 f i CServer.obj
 0002:000486a0       ??$?0ABV?$allocator@U?$pair@$$CBIVCPlayerData@@@std@@@std@@$0A@@?$_Hash_vec@V?$allocator@V?$_List_unchecked_iterator@V?$_List_val@U?$_List_simple_types@U?$pair@$$CBIVCPlayerData@@@std@@@std@@@std@@@std@@@std@@@std@@QAE@ABV?$allocator@U?$pair@$$CBIVCPlayerData@@@std@@@1@@Z 100bf6a0 f i CServer.obj
 0002:00048780       ??$?0ABV?$allocator@U?$pair@$$CBIVCVehicleData@@@std@@@std@@$$V@?$_Compressed_pair@V?$allocator@U?$_List_node@U?$pair@$$CBIVCVehicleData@@@std@@PAX@std@@@std@@V?$_List_val@U?$_List_simple_types@U?$pair@$$CBIVCVehicleData@@@std@@@std@@@2@$00@std@@QAE@U_One_then_variadic_args_t@1@ABV?$allocator@U?$pair@$$CBIVCVehicleData@@@std@@@1@@Z 100bf780 f i CServer.obj
 0002:00048800       ??$?0ABV?$allocator@U?$pair@$$CBIVCVehicleData@@@std@@@std@@$$V@?$_Compressed_pair@V?$allocator@V?$_List_unchecked_iterator@V?$_List_val@U?$_List_simple_types@U?$pair@$$CBIVCVehicleData@@@std@@@std@@@std@@@std@@@std@@V?$_Vector_val@U?$_Simple_types@V?$_List_unchecked_iterator@V?$_List_val@U?$_List_simple_types@U?$pair@$$CBIVCVehicleData@@@std@@@std@@@std@@@std@@@std@@@2@$00@std@@QAE@U_One_then_variadic_args_t@1@ABV?$allocator@U?$pair@$$CBIVCVehicleData@@@std@@@1@@Z 100bf800 f i CServer.obj
 0002:00048880       ??$?0ABV?$allocator@U?$pair@$$CBIVCVehicleData@@@std@@@std@@$0A@@?$_Hash_vec@V?$allocator@V?$_List_unchecked_iterator@V?$_List_val@U?$_List_simple_types@U?$pair@$$CBIVCVehicleData@@@std@@@std@@@std@@@std@@@std@@@std@@QAE@ABV?$allocator@U?$pair@$$CBIVCVehicleData@@@std@@@1@@Z 100bf880 f i CServer.obj
 0002:00048960       ??$?0ABV?$allocator@U?$pair@$$CBU?$pair@II@std@@V?$tuple@I@2@@std@@@std@@$$V@?$_Compressed_pair@V?$allocator@U?$_List_node@U?$pair@$$CBU?$pair@II@std@@V?$tuple@I@2@@std@@PAX@std@@@std@@V?$_List_val@U?$_List_simple_types@U?$pair@$$CBU?$pair@II@std@@V?$tuple@I@2@@std@@@std@@@2@$00@std@@QAE@U_One_then_variadic_args_t@1@ABV?$allocator@U?$pair@$$CBU?$pair@II@std@@V?$tuple@I@2@@std@@@1@@Z 100bf960 f i CServer.obj
 0002:000489e0       ??$?0ABV?$allocator@U?$pair@$$CBU?$pair@II@std@@V?$tuple@I@2@@std@@@std@@$$V@?$_Compressed_pair@V?$allocator@V?$_List_unchecked_iterator@V?$_List_val@U?$_List_simple_types@U?$pair@$$CBU?$pair@II@std@@V?$tuple@I@2@@std@@@std@@@std@@@std@@@std@@V?$_Vector_val@U?$_Simple_types@V?$_List_unchecked_iterator@V?$_List_val@U?$_List_simple_types@U?$pair@$$CBU?$pair@II@std@@V?$tuple@I@2@@std@@@std@@@std@@@std@@@std@@@2@$00@std@@QAE@U_One_then_variadic_args_t@1@ABV?$allocator@U?$pair@$$CBU?$pair@II@std@@V?$tuple@I@2@@std@@@1@@Z 100bf9e0 f i CServer.obj
 0002:00048a60       ??$?0ABV?$allocator@U?$pair@$$CBU?$pair@II@std@@V?$tuple@I@2@@std@@@std@@$0A@@?$_Hash_vec@V?$allocator@V?$_List_unchecked_iterator@V?$_List_val@U?$_List_simple_types@U?$pair@$$CBU?$pair@II@std@@V?$tuple@I@2@@std@@@std@@@std@@@std@@@std@@@std@@QAE@ABV?$allocator@U?$pair@$$CBU?$pair@II@std@@V?$tuple@I@2@@std@@@1@@Z 100bfa60 f i CServer.obj
 0002:00048b40       ??$?0M@?$_Compressed_pair@U?$equal_to@I@std@@M$00@std@@QAE@U_Zero_then_variadic_args_t@1@$$QAM@Z 100bfb40 f i CServer.obj
 0002:00048bb0       ??$?0M@?$_Compressed_pair@U?$equal_to@U?$pair@II@std@@@std@@M$00@std@@QAE@U_Zero_then_variadic_args_t@1@$$QAM@Z 100bfbb0 f i CServer.obj
 0002:00048c20       ??$?0U?$_List_node@U?$pair@$$CBIV?$tuple@I@std@@@std@@PAX@std@@@?$allocator@U_Container_proxy@std@@@std@@QAE@ABV?$allocator@U?$_List_node@U?$pair@$$CBIV?$tuple@I@std@@@std@@PAX@std@@@1@@Z 100bfc20 f i CServer.obj
 0002:00048c80       ??$?0U?$_List_node@U?$pair@$$CBIVCObjectData@@@std@@PAX@std@@@?$allocator@U_Container_proxy@std@@@std@@QAE@ABV?$allocator@U?$_List_node@U?$pair@$$CBIVCObjectData@@@std@@PAX@std@@@1@@Z 100bfc80 f i CServer.obj
 0002:00048ce0       ??$?0U?$_List_node@U?$pair@$$CBIVCPlayerData@@@std@@PAX@std@@@?$allocator@U_Container_proxy@std@@@std@@QAE@ABV?$allocator@U?$_List_node@U?$pair@$$CBIVCPlayerData@@@std@@PAX@std@@@1@@Z 100bfce0 f i CServer.obj
 0002:00048d40       ??$?0U?$_List_node@U?$pair@$$CBIVCVehicleData@@@std@@PAX@std@@@?$allocator@U_Container_proxy@std@@@std@@QAE@ABV?$allocator@U?$_List_node@U?$pair@$$CBIVCVehicleData@@@std@@PAX@std@@@1@@Z 100bfd40 f i CServer.obj
 0002:00048da0       ??$?0U?$_List_node@U?$pair@$$CBU?$pair@II@std@@V?$tuple@I@2@@std@@PAX@std@@@?$allocator@U_Container_proxy@std@@@std@@QAE@ABV?$allocator@U?$_List_node@U?$pair@$$CBU?$pair@II@std@@V?$tuple@I@2@@std@@PAX@std@@@1@@Z 100bfda0 f i CServer.obj
 0002:00048e00       ??$?0U?$pair@$$CBIV?$tuple@I@std@@@std@@@?$allocator@U?$_List_node@U?$pair@$$CBIV?$tuple@I@std@@@std@@PAX@std@@@std@@QAE@ABV?$allocator@U?$pair@$$CBIV?$tuple@I@std@@@std@@@1@@Z 100bfe00 f i CServer.obj
 0002:00048e60       ??$?0U?$pair@$$CBIV?$tuple@I@std@@@std@@@?$allocator@V?$_List_unchecked_iterator@V?$_List_val@U?$_List_simple_types@U?$pair@$$CBIV?$tuple@I@std@@@std@@@std@@@std@@@std@@@std@@QAE@ABV?$allocator@U?$pair@$$CBIV?$tuple@I@std@@@std@@@1@@Z 100bfe60 f i CServer.obj
 0002:00048ec0       ??$?0U?$pair@$$CBIVCObjectData@@@std@@@?$allocator@U?$_List_node@U?$pair@$$CBIVCObjectData@@@std@@PAX@std@@@std@@QAE@ABV?$allocator@U?$pair@$$CBIVCObjectData@@@std@@@1@@Z 100bfec0 f i CServer.obj
 0002:00048f20       ??$?0U?$pair@$$CBIVCObjectData@@@std@@@?$allocator@V?$_List_unchecked_iterator@V?$_List_val@U?$_List_simple_types@U?$pair@$$CBIVCObjectData@@@std@@@std@@@std@@@std@@@std@@QAE@ABV?$allocator@U?$pair@$$CBIVCObjectData@@@std@@@1@@Z 100bff20 f i CServer.obj
 0002:00048f80       ??$?0U?$pair@$$CBIVCPlayerData@@@std@@@?$allocator@U?$_List_node@U?$pair@$$CBIVCPlayerData@@@std@@PAX@std@@@std@@QAE@ABV?$allocator@U?$pair@$$CBIVCPlayerData@@@std@@@1@@Z 100bff80 f i CServer.obj
 0002:00048fe0       ??$?0U?$pair@$$CBIVCPlayerData@@@std@@@?$allocator@V?$_List_unchecked_iterator@V?$_List_val@U?$_List_simple_types@U?$pair@$$CBIVCPlayerData@@@std@@@std@@@std@@@std@@@std@@QAE@ABV?$allocator@U?$pair@$$CBIVCPlayerData@@@std@@@1@@Z 100bffe0 f i CServer.obj
 0002:00049040       ??$?0U?$pair@$$CBIVCVehicleData@@@std@@@?$allocator@U?$_List_node@U?$pair@$$CBIVCVehicleData@@@std@@PAX@std@@@std@@QAE@ABV?$allocator@U?$pair@$$CBIVCVehicleData@@@std@@@1@@Z 100c0040 f i CServer.obj
 0002:000490a0       ??$?0U?$pair@$$CBIVCVehicleData@@@std@@@?$allocator@V?$_List_unchecked_iterator@V?$_List_val@U?$_List_simple_types@U?$pair@$$CBIVCVehicleData@@@std@@@std@@@std@@@std@@@std@@QAE@ABV?$allocator@U?$pair@$$CBIVCVehicleData@@@std@@@1@@Z 100c00a0 f i CServer.obj
 0002:00049100       ??$?0U?$pair@$$CBU?$pair@II@std@@V?$tuple@I@2@@std@@@?$allocator@U?$_List_node@U?$pair@$$CBU?$pair@II@std@@V?$tuple@I@2@@std@@PAX@std@@@std@@QAE@ABV?$allocator@U?$pair@$$CBU?$pair@II@std@@V?$tuple@I@2@@std@@@1@@Z 100c0100 f i CServer.obj
 0002:00049160       ??$?0U?$pair@$$CBU?$pair@II@std@@V?$tuple@I@2@@std@@@?$allocator@V?$_List_unchecked_iterator@V?$_List_val@U?$_List_simple_types@U?$pair@$$CBU?$pair@II@std@@V?$tuple@I@2@@std@@@std@@@std@@@std@@@std@@QAE@ABV?$allocator@U?$pair@$$CBU?$pair@II@std@@V?$tuple@I@2@@std@@@1@@Z 100c0160 f i CServer.obj
 0002:000491c0       ??$?0U_Zero_then_variadic_args_t@std@@M@?$_Compressed_pair@U?$hash@I@std@@V?$_Compressed_pair@U?$equal_to@I@std@@M$00@2@$00@std@@QAE@U_Zero_then_variadic_args_t@1@$$QAU21@$$QAM@Z 100c01c0 f i CServer.obj
 0002:00049250       ??$?0U_Zero_then_variadic_args_t@std@@M@?$_Compressed_pair@Upair_hash@aux@@V?$_Compressed_pair@U?$equal_to@U?$pair@II@std@@@std@@M$00@std@@$00@std@@QAE@U_Zero_then_variadic_args_t@1@$$QAU21@$$QAM@Z 100c0250 f i CServer.obj
 0002:000492e0       ??$?0V?$_List_unchecked_iterator@V?$_List_val@U?$_List_simple_types@U?$pair@$$CBIV?$tuple@I@std@@@std@@@std@@@std@@@std@@@?$allocator@U_Container_proxy@std@@@std@@QAE@ABV?$allocator@V?$_List_unchecked_iterator@V?$_List_val@U?$_List_simple_types@U?$pair@$$CBIV?$tuple@I@std@@@std@@@std@@@std@@@std@@@1@@Z 100c02e0 f i CServer.obj
 0002:00049340       ??$?0V?$_List_unchecked_iterator@V?$_List_val@U?$_List_simple_types@U?$pair@$$CBIVCObjectData@@@std@@@std@@@std@@@std@@@?$allocator@U_Container_proxy@std@@@std@@QAE@ABV?$allocator@V?$_List_unchecked_iterator@V?$_List_val@U?$_List_simple_types@U?$pair@$$CBIVCObjectData@@@std@@@std@@@std@@@std@@@1@@Z 100c0340 f i CServer.obj
 0002:000493a0       ??$?0V?$_List_unchecked_iterator@V?$_List_val@U?$_List_simple_types@U?$pair@$$CBIVCPlayerData@@@std@@@std@@@std@@@std@@@?$allocator@U_Container_proxy@std@@@std@@QAE@ABV?$allocator@V?$_List_unchecked_iterator@V?$_List_val@U?$_List_simple_types@U?$pair@$$CBIVCPlayerData@@@std@@@std@@@std@@@std@@@1@@Z 100c03a0 f i CServer.obj
 0002:00049400       ??$?0V?$_List_unchecked_iterator@V?$_List_val@U?$_List_simple_types@U?$pair@$$CBIVCVehicleData@@@std@@@std@@@std@@@std@@@?$allocator@U_Container_proxy@std@@@std@@QAE@ABV?$allocator@V?$_List_unchecked_iterator@V?$_List_val@U?$_List_simple_types@U?$pair@$$CBIVCVehicleData@@@std@@@std@@@std@@@std@@@1@@Z 100c0400 f i CServer.obj
 0002:00049460       ??$?0V?$_List_unchecked_iterator@V?$_List_val@U?$_List_simple_types@U?$pair@$$CBU?$pair@II@std@@V?$tuple@I@2@@std@@@std@@@std@@@std@@@?$allocator@U_Container_proxy@std@@@std@@QAE@ABV?$allocator@V?$_List_unchecked_iterator@V?$_List_val@U?$_List_simple_types@U?$pair@$$CBU?$pair@II@std@@V?$tuple@I@2@@std@@@std@@@std@@@std@@@1@@Z 100c0460 f i CServer.obj
 0002:000494c0       ??$_Adl_verify_range@PAV?$_List_unchecked_iterator@V?$_List_val@U?$_List_simple_types@U?$pair@$$CBIV?$tuple@I@std@@@std@@@std@@@std@@@std@@PAV12@@std@@YAXABQAV?$_List_unchecked_iterator@V?$_List_val@U?$_List_simple_types@U?$pair@$$CBIV?$tuple@I@std@@@std@@@std@@@std@@@0@0@Z 100c04c0 f i CServer.obj
 0002:00049520       ??$_Adl_verify_range@PAV?$_List_unchecked_iterator@V?$_List_val@U?$_List_simple_types@U?$pair@$$CBIVCObjectData@@@std@@@std@@@std@@@std@@PAV12@@std@@YAXABQAV?$_List_unchecked_iterator@V?$_List_val@U?$_List_simple_types@U?$pair@$$CBIVCObjectData@@@std@@@std@@@std@@@0@0@Z 100c0520 f i CServer.obj
 0002:00049580       ??$_Adl_verify_range@PAV?$_List_unchecked_iterator@V?$_List_val@U?$_List_simple_types@U?$pair@$$CBIVCVehicleData@@@std@@@std@@@std@@@std@@PAV12@@std@@YAXABQAV?$_List_unchecked_iterator@V?$_List_val@U?$_List_simple_types@U?$pair@$$CBIVCVehicleData@@@std@@@std@@@std@@@0@0@Z 100c0580 f i CServer.obj
 0002:000495e0       ??$_Adl_verify_range@PAV?$_List_unchecked_iterator@V?$_List_val@U?$_List_simple_types@U?$pair@$$CBU?$pair@II@std@@V?$tuple@I@2@@std@@@std@@@std@@@std@@PAV12@@std@@YAXABQAV?$_List_unchecked_iterator@V?$_List_val@U?$_List_simple_types@U?$pair@$$CBU?$pair@II@std@@V?$tuple@I@2@@std@@@std@@@std@@@0@0@Z 100c05e0 f i CServer.obj
 0002:00049640       ??$_Construct_in_place@PAU?$_List_node@U?$pair@$$CBIV?$tuple@I@std@@@std@@PAX@std@@AAPAU12@@std@@YAXAAPAU?$_List_node@U?$pair@$$CBIV?$tuple@I@std@@@std@@PAX@0@0@Z 100c0640 f i CServer.obj
 0002:000496e0       ??$_Construct_in_place@PAU?$_List_node@U?$pair@$$CBIVCObjectData@@@std@@PAX@std@@AAPAU12@@std@@YAXAAPAU?$_List_node@U?$pair@$$CBIVCObjectData@@@std@@PAX@0@0@Z 100c06e0 f i CServer.obj
 0002:00049780       ??$_Construct_in_place@PAU?$_List_node@U?$pair@$$CBIVCPlayerData@@@std@@PAX@std@@AAPAU12@@std@@YAXAAPAU?$_List_node@U?$pair@$$CBIVCPlayerData@@@std@@PAX@0@0@Z 100c0780 f i CServer.obj
 0002:00049820       ??$_Construct_in_place@PAU?$_List_node@U?$pair@$$CBIVCVehicleData@@@std@@PAX@std@@AAPAU12@@std@@YAXAAPAU?$_List_node@U?$pair@$$CBIVCVehicleData@@@std@@PAX@0@0@Z 100c0820 f i CServer.obj
 0002:000498c0       ??$_Construct_in_place@PAU?$_List_node@U?$pair@$$CBU?$pair@II@std@@V?$tuple@I@2@@std@@PAX@std@@AAPAU12@@std@@YAXAAPAU?$_List_node@U?$pair@$$CBU?$pair@II@std@@V?$tuple@I@2@@std@@PAX@0@0@Z 100c08c0 f i CServer.obj
 0002:00049960       ??$_Construct_in_place@V?$_List_unchecked_iterator@V?$_List_val@U?$_List_simple_types@U?$pair@$$CBIV?$tuple@I@std@@@std@@@std@@@std@@@std@@ABV12@@std@@YAXAAV?$_List_unchecked_iterator@V?$_List_val@U?$_List_simple_types@U?$pair@$$CBIV?$tuple@I@std@@@std@@@std@@@std@@@0@ABV10@@Z 100c0960 f i CServer.obj
 0002:00049a00       ??$_Construct_in_place@V?$_List_unchecked_iterator@V?$_List_val@U?$_List_simple_types@U?$pair@$$CBIVCObjectData@@@std@@@std@@@std@@@std@@ABV12@@std@@YAXAAV?$_List_unchecked_iterator@V?$_List_val@U?$_List_simple_types@U?$pair@$$CBIVCObjectData@@@std@@@std@@@std@@@0@ABV10@@Z 100c0a00 f i CServer.obj
 0002:00049aa0       ??$_Construct_in_place@V?$_List_unchecked_iterator@V?$_List_val@U?$_List_simple_types@U?$pair@$$CBIVCVehicleData@@@std@@@std@@@std@@@std@@ABV12@@std@@YAXAAV?$_List_unchecked_iterator@V?$_List_val@U?$_List_simple_types@U?$pair@$$CBIVCVehicleData@@@std@@@std@@@std@@@0@ABV10@@Z 100c0aa0 f i CServer.obj
 0002:00049b40       ??$_Construct_in_place@V?$_List_unchecked_iterator@V?$_List_val@U?$_List_simple_types@U?$pair@$$CBU?$pair@II@std@@V?$tuple@I@2@@std@@@std@@@std@@@std@@ABV12@@std@@YAXAAV?$_List_unchecked_iterator@V?$_List_val@U?$_List_simple_types@U?$pair@$$CBU?$pair@II@std@@V?$tuple@I@2@@std@@@std@@@std@@@0@ABV10@@Z 100c0b40 f i CServer.obj
 0002:00049be0       ??$_Destroy_in_place@PAU?$_List_node@U?$pair@$$CBIV?$tuple@I@std@@@std@@PAX@std@@@std@@YAXAAPAU?$_List_node@U?$pair@$$CBIV?$tuple@I@std@@@std@@PAX@0@@Z 100c0be0 f i CServer.obj
 0002:00049c30       ??$_Destroy_in_place@PAU?$_List_node@U?$pair@$$CBIVCObjectData@@@std@@PAX@std@@@std@@YAXAAPAU?$_List_node@U?$pair@$$CBIVCObjectData@@@std@@PAX@0@@Z 100c0c30 f i CServer.obj
 0002:00049c80       ??$_Destroy_in_place@PAU?$_List_node@U?$pair@$$CBIVCVehicleData@@@std@@PAX@std@@@std@@YAXAAPAU?$_List_node@U?$pair@$$CBIVCVehicleData@@@std@@PAX@0@@Z 100c0c80 f i CServer.obj
 0002:00049cd0       ??$_Destroy_in_place@PAU?$_List_node@U?$pair@$$CBU?$pair@II@std@@V?$tuple@I@2@@std@@PAX@std@@@std@@YAXAAPAU?$_List_node@U?$pair@$$CBU?$pair@II@std@@V?$tuple@I@2@@std@@PAX@0@@Z 100c0cd0 f i CServer.obj
 0002:00049d20       ??$_Destroy_range@PAV?$_List_unchecked_iterator@V?$_List_val@U?$_List_simple_types@U?$pair@$$CBIV?$tuple@I@std@@@std@@@std@@@std@@@std@@PAV12@@std@@YAXPAV?$_List_unchecked_iterator@V?$_List_val@U?$_List_simple_types@U?$pair@$$CBIV?$tuple@I@std@@@std@@@std@@@std@@@0@QAV10@@Z 100c0d20 f i CServer.obj
 0002:00049d70       ??$_Destroy_range@PAV?$_List_unchecked_iterator@V?$_List_val@U?$_List_simple_types@U?$pair@$$CBIVCObjectData@@@std@@@std@@@std@@@std@@PAV12@@std@@YAXPAV?$_List_unchecked_iterator@V?$_List_val@U?$_List_simple_types@U?$pair@$$CBIVCObjectData@@@std@@@std@@@std@@@0@QAV10@@Z 100c0d70 f i CServer.obj
 0002:00049dc0       ??$_Destroy_range@PAV?$_List_unchecked_iterator@V?$_List_val@U?$_List_simple_types@U?$pair@$$CBIVCVehicleData@@@std@@@std@@@std@@@std@@PAV12@@std@@YAXPAV?$_List_unchecked_iterator@V?$_List_val@U?$_List_simple_types@U?$pair@$$CBIVCVehicleData@@@std@@@std@@@std@@@0@QAV10@@Z 100c0dc0 f i CServer.obj
 0002:00049e10       ??$_Destroy_range@PAV?$_List_unchecked_iterator@V?$_List_val@U?$_List_simple_types@U?$pair@$$CBU?$pair@II@std@@V?$tuple@I@2@@std@@@std@@@std@@@std@@PAV12@@std@@YAXPAV?$_List_unchecked_iterator@V?$_List_val@U?$_List_simple_types@U?$pair@$$CBU?$pair@II@std@@V?$tuple@I@2@@std@@@std@@@std@@@0@QAV10@@Z 100c0e10 f i CServer.obj
 0002:00049e60       ??$_Emplace_back@ABV?$_List_unchecked_iterator@V?$_List_val@U?$_List_simple_types@U?$pair@$$CBIV?$tuple@I@std@@@std@@@std@@@std@@@std@@@?$_Uninitialized_backout@PAV?$_List_unchecked_iterator@V?$_List_val@U?$_List_simple_types@U?$pair@$$CBIV?$tuple@I@std@@@std@@@std@@@std@@@std@@@std@@QAEXABV?$_List_unchecked_iterator@V?$_List_val@U?$_List_simple_types@U?$pair@$$CBIV?$tuple@I@std@@@std@@@std@@@std@@@1@@Z 100c0e60 f i CServer.obj
 0002:00049ef0       ??$_Emplace_back@ABV?$_List_unchecked_iterator@V?$_List_val@U?$_List_simple_types@U?$pair@$$CBIVCObjectData@@@std@@@std@@@std@@@std@@@?$_Uninitialized_backout@PAV?$_List_unchecked_iterator@V?$_List_val@U?$_List_simple_types@U?$pair@$$CBIVCObjectData@@@std@@@std@@@std@@@std@@@std@@QAEXABV?$_List_unchecked_iterator@V?$_List_val@U?$_List_simple_types@U?$pair@$$CBIVCObjectData@@@std@@@std@@@std@@@1@@Z 100c0ef0 f i CServer.obj
 0002:00049f80       ??$_Emplace_back@ABV?$_List_unchecked_iterator@V?$_List_val@U?$_List_simple_types@U?$pair@$$CBIVCVehicleData@@@std@@@std@@@std@@@std@@@?$_Uninitialized_backout@PAV?$_List_unchecked_iterator@V?$_List_val@U?$_List_simple_types@U?$pair@$$CBIVCVehicleData@@@std@@@std@@@std@@@std@@@std@@QAEXABV?$_List_unchecked_iterator@V?$_List_val@U?$_List_simple_types@U?$pair@$$CBIVCVehicleData@@@std@@@std@@@std@@@1@@Z 100c0f80 f i CServer.obj
 0002:0004a010       ??$_Emplace_back@ABV?$_List_unchecked_iterator@V?$_List_val@U?$_List_simple_types@U?$pair@$$CBU?$pair@II@std@@V?$tuple@I@2@@std@@@std@@@std@@@std@@@?$_Uninitialized_backout@PAV?$_List_unchecked_iterator@V?$_List_val@U?$_List_simple_types@U?$pair@$$CBU?$pair@II@std@@V?$tuple@I@2@@std@@@std@@@std@@@std@@@std@@QAEXABV?$_List_unchecked_iterator@V?$_List_val@U?$_List_simple_types@U?$pair@$$CBU?$pair@II@std@@V?$tuple@I@2@@std@@@std@@@std@@@1@@Z 100c1010 f i CServer.obj
 0002:0004a0a0       ??$_Free_non_head@V?$allocator@U?$_List_node@U?$pair@$$CBIV?$tuple@I@std@@@std@@PAX@std@@@std@@@?$_List_node@U?$pair@$$CBIV?$tuple@I@std@@@std@@PAX@std@@SAXAAV?$allocator@U?$_List_node@U?$pair@$$CBIV?$tuple@I@std@@@std@@PAX@std@@@1@PAU01@@Z 100c10a0 f i CServer.obj
 0002:0004a140       ??$_Free_non_head@V?$allocator@U?$_List_node@U?$pair@$$CBIVCObjectData@@@std@@PAX@std@@@std@@@?$_List_node@U?$pair@$$CBIVCObjectData@@@std@@PAX@std@@SAXAAV?$allocator@U?$_List_node@U?$pair@$$CBIVCObjectData@@@std@@PAX@std@@@1@PAU01@@Z 100c1140 f i CServer.obj
 0002:0004a1e0       ??$_Free_non_head@V?$allocator@U?$_List_node@U?$pair@$$CBIVCVehicleData@@@std@@PAX@std@@@std@@@?$_List_node@U?$pair@$$CBIVCVehicleData@@@std@@PAX@std@@SAXAAV?$allocator@U?$_List_node@U?$pair@$$CBIVCVehicleData@@@std@@PAX@std@@@1@PAU01@@Z 100c11e0 f i CServer.obj
 0002:0004a280       ??$_Free_non_head@V?$allocator@U?$_List_node@U?$pair@$$CBU?$pair@II@std@@V?$tuple@I@2@@std@@PAX@std@@@std@@@?$_List_node@U?$pair@$$CBU?$pair@II@std@@V?$tuple@I@2@@std@@PAX@std@@SAXAAV?$allocator@U?$_List_node@U?$pair@$$CBU?$pair@II@std@@V?$tuple@I@2@@std@@PAX@std@@@1@PAU01@@Z 100c1280 f i CServer.obj
 0002:0004a320       ??$_Freenode0@V?$allocator@U?$_List_node@U?$pair@$$CBIV?$tuple@I@std@@@std@@PAX@std@@@std@@@?$_List_node@U?$pair@$$CBIV?$tuple@I@std@@@std@@PAX@std@@SAXAAV?$allocator@U?$_List_node@U?$pair@$$CBIV?$tuple@I@std@@@std@@PAX@std@@@1@PAU01@@Z 100c1320 f i CServer.obj
 0002:0004a3e0       ??$_Freenode0@V?$allocator@U?$_List_node@U?$pair@$$CBIVCObjectData@@@std@@PAX@std@@@std@@@?$_List_node@U?$pair@$$CBIVCObjectData@@@std@@PAX@std@@SAXAAV?$allocator@U?$_List_node@U?$pair@$$CBIVCObjectData@@@std@@PAX@std@@@1@PAU01@@Z 100c13e0 f i CServer.obj
 0002:0004a4a0       ??$_Freenode0@V?$allocator@U?$_List_node@U?$pair@$$CBIVCVehicleData@@@std@@PAX@std@@@std@@@?$_List_node@U?$pair@$$CBIVCVehicleData@@@std@@PAX@std@@SAXAAV?$allocator@U?$_List_node@U?$pair@$$CBIVCVehicleData@@@std@@PAX@std@@@1@PAU01@@Z 100c14a0 f i CServer.obj
 0002:0004a560       ??$_Freenode0@V?$allocator@U?$_List_node@U?$pair@$$CBU?$pair@II@std@@V?$tuple@I@2@@std@@PAX@std@@@std@@@?$_List_node@U?$pair@$$CBU?$pair@II@std@@V?$tuple@I@2@@std@@PAX@std@@SAXAAV?$allocator@U?$_List_node@U?$pair@$$CBU?$pair@II@std@@V?$tuple@I@2@@std@@PAX@std@@@1@PAU01@@Z 100c1560 f i CServer.obj
 0002:0004a620       ??$_Freenode@V?$allocator@U?$_List_node@U?$pair@$$CBIV?$tuple@I@std@@@std@@PAX@std@@@std@@@?$_List_node@U?$pair@$$CBIV?$tuple@I@std@@@std@@PAX@std@@SAXAAV?$allocator@U?$_List_node@U?$pair@$$CBIV?$tuple@I@std@@@std@@PAX@std@@@1@PAU01@@Z 100c1620 f i CServer.obj
 0002:0004a6e0       ??$_Freenode@V?$allocator@U?$_List_node@U?$pair@$$CBIVCObjectData@@@std@@PAX@std@@@std@@@?$_List_node@U?$pair@$$CBIVCObjectData@@@std@@PAX@std@@SAXAAV?$allocator@U?$_List_node@U?$pair@$$CBIVCObjectData@@@std@@PAX@std@@@1@PAU01@@Z 100c16e0 f i CServer.obj
 0002:0004a7a0       ??$_Freenode@V?$allocator@U?$_List_node@U?$pair@$$CBIVCVehicleData@@@std@@PAX@std@@@std@@@?$_List_node@U?$pair@$$CBIVCVehicleData@@@std@@PAX@std@@SAXAAV?$allocator@U?$_List_node@U?$pair@$$CBIVCVehicleData@@@std@@PAX@std@@@1@PAU01@@Z 100c17a0 f i CServer.obj
 0002:0004a860       ??$_Freenode@V?$allocator@U?$_List_node@U?$pair@$$CBU?$pair@II@std@@V?$tuple@I@2@@std@@PAX@std@@@std@@@?$_List_node@U?$pair@$$CBU?$pair@II@std@@V?$tuple@I@2@@std@@PAX@std@@SAXAAV?$allocator@U?$_List_node@U?$pair@$$CBU?$pair@II@std@@V?$tuple@I@2@@std@@PAX@std@@@1@PAU01@@Z 100c1860 f i CServer.obj
 0002:0004a920       ??$_Get_size_of_n@$0BE@@std@@YAII@Z 100c1920 f i CServer.obj
 0002:0004a990       ??$_Get_size_of_n@$0DE@@std@@YAII@Z 100c1990 f i CServer.obj
 0002:0004aa00       ??$_Get_unwrapped@ABQAV?$_List_unchecked_iterator@V?$_List_val@U?$_List_simple_types@U?$pair@$$CBIV?$tuple@I@std@@@std@@@std@@@std@@@std@@@std@@YA?A_TABQAV?$_List_unchecked_iterator@V?$_List_val@U?$_List_simple_types@U?$pair@$$CBIV?$tuple@I@std@@@std@@@std@@@std@@@0@@Z 100c1a00 f i CServer.obj
 0002:0004aa50       ??$_Get_unwrapped@ABQAV?$_List_unchecked_iterator@V?$_List_val@U?$_List_simple_types@U?$pair@$$CBIVCObjectData@@@std@@@std@@@std@@@std@@@std@@YA?A_TABQAV?$_List_unchecked_iterator@V?$_List_val@U?$_List_simple_types@U?$pair@$$CBIVCObjectData@@@std@@@std@@@std@@@0@@Z 100c1a50 f i CServer.obj
 0002:0004aaa0       ??$_Get_unwrapped@ABQAV?$_List_unchecked_iterator@V?$_List_val@U?$_List_simple_types@U?$pair@$$CBIVCVehicleData@@@std@@@std@@@std@@@std@@@std@@YA?A_TABQAV?$_List_unchecked_iterator@V?$_List_val@U?$_List_simple_types@U?$pair@$$CBIVCVehicleData@@@std@@@std@@@std@@@0@@Z 100c1aa0 f i CServer.obj
 0002:0004aaf0       ??$_Get_unwrapped@ABQAV?$_List_unchecked_iterator@V?$_List_val@U?$_List_simple_types@U?$pair@$$CBU?$pair@II@std@@V?$tuple@I@2@@std@@@std@@@std@@@std@@@std@@YA?A_TABQAV?$_List_unchecked_iterator@V?$_List_val@U?$_List_simple_types@U?$pair@$$CBU?$pair@II@std@@V?$tuple@I@2@@std@@@std@@@std@@@0@@Z 100c1af0 f i CServer.obj
 0002:0004ab40       ??$_Verify_range@V?$_List_unchecked_iterator@V?$_List_val@U?$_List_simple_types@U?$pair@$$CBIV?$tuple@I@std@@@std@@@std@@@std@@@std@@@std@@YAXQBV?$_List_unchecked_iterator@V?$_List_val@U?$_List_simple_types@U?$pair@$$CBIV?$tuple@I@std@@@std@@@std@@@std@@@0@0@Z 100c1b40 f i CServer.obj
 0002:0004ac10       ??$_Verify_range@V?$_List_unchecked_iterator@V?$_List_val@U?$_List_simple_types@U?$pair@$$CBIVCObjectData@@@std@@@std@@@std@@@std@@@std@@YAXQBV?$_List_unchecked_iterator@V?$_List_val@U?$_List_simple_types@U?$pair@$$CBIVCObjectData@@@std@@@std@@@std@@@0@0@Z 100c1c10 f i CServer.obj
 0002:0004ace0       ??$_Verify_range@V?$_List_unchecked_iterator@V?$_List_val@U?$_List_simple_types@U?$pair@$$CBIVCVehicleData@@@std@@@std@@@std@@@std@@@std@@YAXQBV?$_List_unchecked_iterator@V?$_List_val@U?$_List_simple_types@U?$pair@$$CBIVCVehicleData@@@std@@@std@@@std@@@0@0@Z 100c1ce0 f i CServer.obj
 0002:0004adb0       ??$_Verify_range@V?$_List_unchecked_iterator@V?$_List_val@U?$_List_simple_types@U?$pair@$$CBU?$pair@II@std@@V?$tuple@I@2@@std@@@std@@@std@@@std@@@std@@YAXQBV?$_List_unchecked_iterator@V?$_List_val@U?$_List_simple_types@U?$pair@$$CBU?$pair@II@std@@V?$tuple@I@2@@std@@@std@@@std@@@0@0@Z 100c1db0 f i CServer.obj
 0002:0004ae80       ??$_Voidify_iter@PAPAU?$_List_node@U?$pair@$$CBIV?$tuple@I@std@@@std@@PAX@std@@@std@@YAPAXPAPAU?$_List_node@U?$pair@$$CBIV?$tuple@I@std@@@std@@PAX@0@@Z 100c1e80 f i CServer.obj
 0002:0004aed0       ??$_Voidify_iter@PAPAU?$_List_node@U?$pair@$$CBIVCObjectData@@@std@@PAX@std@@@std@@YAPAXPAPAU?$_List_node@U?$pair@$$CBIVCObjectData@@@std@@PAX@0@@Z 100c1ed0 f i CServer.obj
 0002:0004af20       ??$_Voidify_iter@PAPAU?$_List_node@U?$pair@$$CBIVCVehicleData@@@std@@PAX@std@@@std@@YAPAXPAPAU?$_List_node@U?$pair@$$CBIVCVehicleData@@@std@@PAX@0@@Z 100c1f20 f i CServer.obj
 0002:0004af70       ??$_Voidify_iter@PAPAU?$_List_node@U?$pair@$$CBU?$pair@II@std@@V?$tuple@I@2@@std@@PAX@std@@@std@@YAPAXPAPAU?$_List_node@U?$pair@$$CBU?$pair@II@std@@V?$tuple@I@2@@std@@PAX@0@@Z 100c1f70 f i CServer.obj
 0002:0004afc0       ??$_Voidify_iter@PAV?$_List_unchecked_iterator@V?$_List_val@U?$_List_simple_types@U?$pair@$$CBIV?$tuple@I@std@@@std@@@std@@@std@@@std@@@std@@YAPAXPAV?$_List_unchecked_iterator@V?$_List_val@U?$_List_simple_types@U?$pair@$$CBIV?$tuple@I@std@@@std@@@std@@@std@@@0@@Z 100c1fc0 f i CServer.obj
 0002:0004b010       ??$_Voidify_iter@PAV?$_List_unchecked_iterator@V?$_List_val@U?$_List_simple_types@U?$pair@$$CBIVCObjectData@@@std@@@std@@@std@@@std@@@std@@YAPAXPAV?$_List_unchecked_iterator@V?$_List_val@U?$_List_simple_types@U?$pair@$$CBIVCObjectData@@@std@@@std@@@std@@@0@@Z 100c2010 f i CServer.obj
 0002:0004b060       ??$_Voidify_iter@PAV?$_List_unchecked_iterator@V?$_List_val@U?$_List_simple_types@U?$pair@$$CBIVCVehicleData@@@std@@@std@@@std@@@std@@@std@@YAPAXPAV?$_List_unchecked_iterator@V?$_List_val@U?$_List_simple_types@U?$pair@$$CBIVCVehicleData@@@std@@@std@@@std@@@0@@Z 100c2060 f i CServer.obj
 0002:0004b0b0       ??$_Voidify_iter@PAV?$_List_unchecked_iterator@V?$_List_val@U?$_List_simple_types@U?$pair@$$CBU?$pair@II@std@@V?$tuple@I@2@@std@@@std@@@std@@@std@@@std@@YAPAXPAV?$_List_unchecked_iterator@V?$_List_val@U?$_List_simple_types@U?$pair@$$CBU?$pair@II@std@@V?$tuple@I@2@@std@@@std@@@std@@@0@@Z 100c20b0 f i CServer.obj
 0002:0004b100       ??$addressof@PAU?$_List_node@U?$pair@$$CBIV?$tuple@I@std@@@std@@PAX@std@@@std@@YAPAPAU?$_List_node@U?$pair@$$CBIV?$tuple@I@std@@@std@@PAX@0@AAPAU10@@Z 100c2100 f i CServer.obj
 0002:0004b150       ??$addressof@PAU?$_List_node@U?$pair@$$CBIVCObjectData@@@std@@PAX@std@@@std@@YAPAPAU?$_List_node@U?$pair@$$CBIVCObjectData@@@std@@PAX@0@AAPAU10@@Z 100c2150 f i CServer.obj
 0002:0004b1a0       ??$addressof@PAU?$_List_node@U?$pair@$$CBIVCVehicleData@@@std@@PAX@std@@@std@@YAPAPAU?$_List_node@U?$pair@$$CBIVCVehicleData@@@std@@PAX@0@AAPAU10@@Z 100c21a0 f i CServer.obj
 0002:0004b1f0       ??$addressof@PAU?$_List_node@U?$pair@$$CBU?$pair@II@std@@V?$tuple@I@2@@std@@PAX@std@@@std@@YAPAPAU?$_List_node@U?$pair@$$CBU?$pair@II@std@@V?$tuple@I@2@@std@@PAX@0@AAPAU10@@Z 100c21f0 f i CServer.obj
 0002:0004b240       ??$addressof@U?$pair@$$CBIV?$tuple@I@std@@@std@@@std@@YAPAU?$pair@$$CBIV?$tuple@I@std@@@0@AAU10@@Z 100c2240 f i CServer.obj
 0002:0004b290       ??$addressof@U?$pair@$$CBIVCObjectData@@@std@@@std@@YAPAU?$pair@$$CBIVCObjectData@@@0@AAU10@@Z 100c2290 f i CServer.obj
 0002:0004b2e0       ??$addressof@U?$pair@$$CBIVCVehicleData@@@std@@@std@@YAPAU?$pair@$$CBIVCVehicleData@@@0@AAU10@@Z 100c22e0 f i CServer.obj
 0002:0004b330       ??$addressof@U?$pair@$$CBU?$pair@II@std@@V?$tuple@I@2@@std@@@std@@YAPAU?$pair@$$CBU?$pair@II@std@@V?$tuple@I@2@@0@AAU10@@Z 100c2330 f i CServer.obj
 0002:0004b380       ??$addressof@V?$_List_unchecked_iterator@V?$_List_val@U?$_List_simple_types@U?$pair@$$CBIV?$tuple@I@std@@@std@@@std@@@std@@@std@@@std@@YAPAV?$_List_unchecked_iterator@V?$_List_val@U?$_List_simple_types@U?$pair@$$CBIV?$tuple@I@std@@@std@@@std@@@std@@@0@AAV10@@Z 100c2380 f i CServer.obj
 0002:0004b3d0       ??$addressof@V?$_List_unchecked_iterator@V?$_List_val@U?$_List_simple_types@U?$pair@$$CBIVCObjectData@@@std@@@std@@@std@@@std@@@std@@YAPAV?$_List_unchecked_iterator@V?$_List_val@U?$_List_simple_types@U?$pair@$$CBIVCObjectData@@@std@@@std@@@std@@@0@AAV10@@Z 100c23d0 f i CServer.obj
 0002:0004b420       ??$addressof@V?$_List_unchecked_iterator@V?$_List_val@U?$_List_simple_types@U?$pair@$$CBIVCVehicleData@@@std@@@std@@@std@@@std@@@std@@YAPAV?$_List_unchecked_iterator@V?$_List_val@U?$_List_simple_types@U?$pair@$$CBIVCVehicleData@@@std@@@std@@@std@@@0@AAV10@@Z 100c2420 f i CServer.obj
 0002:0004b470       ??$addressof@V?$_List_unchecked_iterator@V?$_List_val@U?$_List_simple_types@U?$pair@$$CBU?$pair@II@std@@V?$tuple@I@2@@std@@@std@@@std@@@std@@@std@@YAPAV?$_List_unchecked_iterator@V?$_List_val@U?$_List_simple_types@U?$pair@$$CBU?$pair@II@std@@V?$tuple@I@2@@std@@@std@@@std@@@0@AAV10@@Z 100c2470 f i CServer.obj
 0002:0004b4c0       ??$destroy@U?$pair@$$CBIV?$tuple@I@std@@@std@@@?$_Default_allocator_traits@V?$allocator@U?$_List_node@U?$pair@$$CBIV?$tuple@I@std@@@std@@PAX@std@@@std@@@std@@SAXAAV?$allocator@U?$_List_node@U?$pair@$$CBIV?$tuple@I@std@@@std@@PAX@std@@@1@QAU?$pair@$$CBIV?$tuple@I@std@@@1@@Z 100c24c0 f i CServer.obj
 0002:0004b510       ??$destroy@U?$pair@$$CBIVCObjectData@@@std@@@?$_Default_allocator_traits@V?$allocator@U?$_List_node@U?$pair@$$CBIVCObjectData@@@std@@PAX@std@@@std@@@std@@SAXAAV?$allocator@U?$_List_node@U?$pair@$$CBIVCObjectData@@@std@@PAX@std@@@1@QAU?$pair@$$CBIVCObjectData@@@1@@Z 100c2510 f i CServer.obj
 0002:0004b560       ??$destroy@U?$pair@$$CBIVCVehicleData@@@std@@@?$_Default_allocator_traits@V?$allocator@U?$_List_node@U?$pair@$$CBIVCVehicleData@@@std@@PAX@std@@@std@@@std@@SAXAAV?$allocator@U?$_List_node@U?$pair@$$CBIVCVehicleData@@@std@@PAX@std@@@1@QAU?$pair@$$CBIVCVehicleData@@@1@@Z 100c2560 f i CServer.obj
 0002:0004b5b0       ??$destroy@U?$pair@$$CBU?$pair@II@std@@V?$tuple@I@2@@std@@@?$_Default_allocator_traits@V?$allocator@U?$_List_node@U?$pair@$$CBU?$pair@II@std@@V?$tuple@I@2@@std@@PAX@std@@@std@@@std@@SAXAAV?$allocator@U?$_List_node@U?$pair@$$CBU?$pair@II@std@@V?$tuple@I@2@@std@@PAX@std@@@1@QAU?$pair@$$CBU?$pair@II@std@@V?$tuple@I@2@@1@@Z 100c25b0 f i CServer.obj
 0002:0004b600       ??$fill@PAV?$_List_unchecked_iterator@V?$_List_val@U?$_List_simple_types@U?$pair@$$CBIV?$tuple@I@std@@@std@@@std@@@std@@@std@@V12@@std@@YAXQAV?$_List_unchecked_iterator@V?$_List_val@U?$_List_simple_types@U?$pair@$$CBIV?$tuple@I@std@@@std@@@std@@@std@@@0@0ABV10@@Z 100c2600 f i CServer.obj
 0002:0004b6b0       ??$fill@PAV?$_List_unchecked_iterator@V?$_List_val@U?$_List_simple_types@U?$pair@$$CBIVCObjectData@@@std@@@std@@@std@@@std@@V12@@std@@YAXQAV?$_List_unchecked_iterator@V?$_List_val@U?$_List_simple_types@U?$pair@$$CBIVCObjectData@@@std@@@std@@@std@@@0@0ABV10@@Z 100c26b0 f i CServer.obj
 0002:0004b760       ??$fill@PAV?$_List_unchecked_iterator@V?$_List_val@U?$_List_simple_types@U?$pair@$$CBIVCVehicleData@@@std@@@std@@@std@@@std@@V12@@std@@YAXQAV?$_List_unchecked_iterator@V?$_List_val@U?$_List_simple_types@U?$pair@$$CBIVCVehicleData@@@std@@@std@@@std@@@0@0ABV10@@Z 100c2760 f i CServer.obj
 0002:0004b810       ??$fill@PAV?$_List_unchecked_iterator@V?$_List_val@U?$_List_simple_types@U?$pair@$$CBU?$pair@II@std@@V?$tuple@I@2@@std@@@std@@@std@@@std@@V12@@std@@YAXQAV?$_List_unchecked_iterator@V?$_List_val@U?$_List_simple_types@U?$pair@$$CBU?$pair@II@std@@V?$tuple@I@2@@std@@@std@@@std@@@0@0ABV10@@Z 100c2810 f i CServer.obj
 0002:0004b8c0       ??$forward@AAPAU?$_List_node@U?$pair@$$CBIV?$tuple@I@std@@@std@@PAX@std@@@std@@YAAAPAU?$_List_node@U?$pair@$$CBIV?$tuple@I@std@@@std@@PAX@0@AAPAU10@@Z 100c28c0 f i CServer.obj
 0002:0004b910       ??$forward@AAPAU?$_List_node@U?$pair@$$CBIVCObjectData@@@std@@PAX@std@@@std@@YAAAPAU?$_List_node@U?$pair@$$CBIVCObjectData@@@std@@PAX@0@AAPAU10@@Z 100c2910 f i CServer.obj
 0002:0004b960       ??$forward@AAPAU?$_List_node@U?$pair@$$CBIVCPlayerData@@@std@@PAX@std@@@std@@YAAAPAU?$_List_node@U?$pair@$$CBIVCPlayerData@@@std@@PAX@0@AAPAU10@@Z 100c2960 f i CServer.obj
 0002:0004b9b0       ??$forward@AAPAU?$_List_node@U?$pair@$$CBIVCVehicleData@@@std@@PAX@std@@@std@@YAAAPAU?$_List_node@U?$pair@$$CBIVCVehicleData@@@std@@PAX@0@AAPAU10@@Z 100c29b0 f i CServer.obj
 0002:0004ba00       ??$forward@AAPAU?$_List_node@U?$pair@$$CBU?$pair@II@std@@V?$tuple@I@2@@std@@PAX@std@@@std@@YAAAPAU?$_List_node@U?$pair@$$CBU?$pair@II@std@@V?$tuple@I@2@@std@@PAX@0@AAPAU10@@Z 100c2a00 f i CServer.obj
 0002:0004ba50       ??$forward@ABV?$_List_unchecked_iterator@V?$_List_val@U?$_List_simple_types@U?$pair@$$CBIV?$tuple@I@std@@@std@@@std@@@std@@@std@@@std@@YAABV?$_List_unchecked_iterator@V?$_List_val@U?$_List_simple_types@U?$pair@$$CBIV?$tuple@I@std@@@std@@@std@@@std@@@0@ABV10@@Z 100c2a50 f i CServer.obj
 0002:0004baa0       ??$forward@ABV?$_List_unchecked_iterator@V?$_List_val@U?$_List_simple_types@U?$pair@$$CBIVCObjectData@@@std@@@std@@@std@@@std@@@std@@YAABV?$_List_unchecked_iterator@V?$_List_val@U?$_List_simple_types@U?$pair@$$CBIVCObjectData@@@std@@@std@@@std@@@0@ABV10@@Z 100c2aa0 f i CServer.obj
 0002:0004baf0       ??$forward@ABV?$_List_unchecked_iterator@V?$_List_val@U?$_List_simple_types@U?$pair@$$CBIVCVehicleData@@@std@@@std@@@std@@@std@@@std@@YAABV?$_List_unchecked_iterator@V?$_List_val@U?$_List_simple_types@U?$pair@$$CBIVCVehicleData@@@std@@@std@@@std@@@0@ABV10@@Z 100c2af0 f i CServer.obj
 0002:0004bb40       ??$forward@ABV?$_List_unchecked_iterator@V?$_List_val@U?$_List_simple_types@U?$pair@$$CBU?$pair@II@std@@V?$tuple@I@2@@std@@@std@@@std@@@std@@@std@@YAABV?$_List_unchecked_iterator@V?$_List_val@U?$_List_simple_types@U?$pair@$$CBU?$pair@II@std@@V?$tuple@I@2@@std@@@std@@@std@@@0@ABV10@@Z 100c2b40 f i CServer.obj
 0002:0004bb90       ??$forward@ABV?$allocator@U?$pair@$$CBIV?$tuple@I@std@@@std@@@std@@@std@@YAABV?$allocator@U?$pair@$$CBIV?$tuple@I@std@@@std@@@0@ABV10@@Z 100c2b90 f i CServer.obj
 0002:0004bbe0       ??$forward@ABV?$allocator@U?$pair@$$CBIVCObjectData@@@std@@@std@@@std@@YAABV?$allocator@U?$pair@$$CBIVCObjectData@@@std@@@0@ABV10@@Z 100c2be0 f i CServer.obj
 0002:0004bc30       ??$forward@ABV?$allocator@U?$pair@$$CBIVCPlayerData@@@std@@@std@@@std@@YAABV?$allocator@U?$pair@$$CBIVCPlayerData@@@std@@@0@ABV10@@Z 100c2c30 f i CServer.obj
 0002:0004bc80       ??$forward@ABV?$allocator@U?$pair@$$CBIVCVehicleData@@@std@@@std@@@std@@YAABV?$allocator@U?$pair@$$CBIVCVehicleData@@@std@@@0@ABV10@@Z 100c2c80 f i CServer.obj
 0002:0004bcd0       ??$forward@ABV?$allocator@U?$pair@$$CBU?$pair@II@std@@V?$tuple@I@2@@std@@@std@@@std@@YAABV?$allocator@U?$pair@$$CBU?$pair@II@std@@V?$tuple@I@2@@std@@@0@ABV10@@Z 100c2cd0 f i CServer.obj
 0002:0004bd20       ??$is_null@$$BY03M@aux@@YA_NAAY03$$CBM@Z 100c2d20 f i CServer.obj
 0002:0004bd80       ??$is_null@PAUCActor@@@aux@@YA_NABQAUCActor@@@Z 100c2d80 f i CServer.obj
 0002:0004bde0       ??$is_null@PAUCMenu@@@aux@@YA_NABQAUCMenu@@@Z 100c2de0 f i CServer.obj
 0002:0004be40       ??$is_null@PAUCObject@@@aux@@YA_NABQAUCObject@@@Z 100c2e40 f i CServer.obj
 0002:0004bea0       ??$is_null@PAUCPlayer@@@aux@@YA_NABQAUCPlayer@@@Z 100c2ea0 f i CServer.obj
 0002:0004bf00       ??$is_null@PAUCTextdraw@@@aux@@YA_NABQAUCTextdraw@@@Z 100c2f00 f i CServer.obj
 0002:0004bf60       ??$is_null@PAUCVehicle@@@aux@@YA_NABQAUCVehicle@@@Z 100c2f60 f i CServer.obj
 0002:0004bfc0       ??$is_null@UC3DText@@@aux@@YA_NABUC3DText@@@Z 100c2fc0 f i CServer.obj
 0002:0004c020       ??$is_null@UtPickup@@@aux@@YA_NABUtPickup@@@Z 100c3020 f i CServer.obj
 0002:0004c080       ??$uninitialized_fill@PAV?$_List_unchecked_iterator@V?$_List_val@U?$_List_simple_types@U?$pair@$$CBIV?$tuple@I@std@@@std@@@std@@@std@@@std@@V12@@std@@YAXQAV?$_List_unchecked_iterator@V?$_List_val@U?$_List_simple_types@U?$pair@$$CBIV?$tuple@I@std@@@std@@@std@@@std@@@0@0ABV10@@Z 100c3080 f i CServer.obj
 0002:0004c1d0       ??$uninitialized_fill@PAV?$_List_unchecked_iterator@V?$_List_val@U?$_List_simple_types@U?$pair@$$CBIVCObjectData@@@std@@@std@@@std@@@std@@V12@@std@@YAXQAV?$_List_unchecked_iterator@V?$_List_val@U?$_List_simple_types@U?$pair@$$CBIVCObjectData@@@std@@@std@@@std@@@0@0ABV10@@Z 100c31d0 f i CServer.obj
 0002:0004c320       ??$uninitialized_fill@PAV?$_List_unchecked_iterator@V?$_List_val@U?$_List_simple_types@U?$pair@$$CBIVCVehicleData@@@std@@@std@@@std@@@std@@V12@@std@@YAXQAV?$_List_unchecked_iterator@V?$_List_val@U?$_List_simple_types@U?$pair@$$CBIVCVehicleData@@@std@@@std@@@std@@@0@0ABV10@@Z 100c3320 f i CServer.obj
 0002:0004c470       ??$uninitialized_fill@PAV?$_List_unchecked_iterator@V?$_List_val@U?$_List_simple_types@U?$pair@$$CBU?$pair@II@std@@V?$tuple@I@2@@std@@@std@@@std@@@std@@V12@@std@@YAXQAV?$_List_unchecked_iterator@V?$_List_val@U?$_List_simple_types@U?$pair@$$CBU?$pair@II@std@@V?$tuple@I@2@@std@@@std@@@std@@@0@0ABV10@@Z 100c3470 f i CServer.obj
 0002:0004c5c0       ??0?$CBasicPerPlayerPool@UCObjectPool@@PAUCObject@@$0DOI@$0DOI@$0DNBIKA@V?$tuple@I@std@@@@QAE@AAUCObjectPool@@ABV?$CPoolBase@PAUCPlayer@@$0DOI@@@@Z 100c35c0 f i CServer.obj
 0002:0004c640       ??0?$CBasicPool@UCActorPool@@PAUCActor@@$0DOI@$0BPEA@V?$tuple@I@std@@@@QAE@AAUCActorPool@@@Z 100c3640 f i CServer.obj
 0002:0004c6c0       ??0?$CBasicPool@UCMenuPool@@PAUCMenu@@$0IA@$0A@V?$tuple@I@std@@@@QAE@AAUCMenuPool@@@Z 100c36c0 f i CServer.obj
 0002:0004c740       ??0?$CBasicPool@UCObjectPool@@PAUCObject@@$0DOI@$0HKDBEA@VCObjectData@@@@QAE@AAUCObjectPool@@@Z 100c3740 f i CServer.obj
 0002:0004c7c0       ??0?$CBasicPool@UCPickupPool@@UtPickup@@$0BAAA@$0A@V?$tuple@I@std@@@@QAE@AAUCPickupPool@@@Z 100c37c0 f i CServer.obj
 0002:0004c840       ??0?$CBasicPool@UCPlayerPool@@PAUCPlayer@@$0DOI@$0CFJJM@VCPlayerData@@@@QAE@AAUCPlayerPool@@@Z 100c3840 f i CServer.obj
 0002:0004c8c0       ??0?$CBasicPool@UCSAMPGangZonePool@@$$BY03M$0EAA@$0A@V?$tuple@I@std@@@@QAE@AAUCSAMPGangZonePool@@@Z 100c38c0 f i CServer.obj
 0002:0004c940       ??0?$CBasicPool@UCTextDrawPool@@PAUCTextdraw@@$0IAA@$0CAAA@V?$tuple@I@std@@@@QAE@AAUCTextDrawPool@@@Z 100c3940 f i CServer.obj
 0002:0004c9c0       ??0?$CBasicPool@UCVehiclePool@@PAUCVehicle@@$0HNA@$0DPFE@VCVehicleData@@@@QAE@AAUCVehiclePool@@@Z 100c39c0 f i CServer.obj
 0002:0004ca40       ??0?$CBasicPool@VC3DTextPool@@UC3DText@@$0EAA@$0BAAA@V?$tuple@I@std@@@@QAE@AAVC3DTextPool@@@Z 100c3a40 f i CServer.obj
 0002:0004cac0       ??0?$CBoundedPool@UCActorPool@@PAUCActor@@$0DOI@$0BPEA@$0PKA@$0COOA@V?$tuple@I@std@@@@QAE@AAUCActorPool@@@Z 100c3ac0 f i CServer.obj
 0002:0004cb30       ??0?$CBoundedPool@UCPlayerPool@@PAUCPlayer@@$0DOI@$0CFJJM@$0CEJPM@$0DAJGI@VCPlayerData@@@@QAE@AAUCPlayerPool@@@Z 100c3b30 f i CServer.obj
 0002:0004cba0       ??0?$CBoundedPool@UCVehiclePool@@PAUCVehicle@@$0HNA@$0DPFE@$0CABE@$0FOJE@VCVehicleData@@@@QAE@AAUCVehiclePool@@@Z 100c3ba0 f i CServer.obj
 0002:0004cc10       ??0?$CExtendedPerPlayerPool@PAUCObject@@$0DOI@V?$tuple@I@std@@@@QAE@XZ 100c3c10 f i CServer.obj
 0002:0004ccd0       ??0?$CExtendedPool@$$BY03M$0EAA@V?$tuple@I@std@@@@QAE@XZ 100c3cd0 f i CServer.obj
 0002:0004cd90       ??0?$CExtendedPool@PAUCActor@@$0DOI@V?$tuple@I@std@@@@QAE@XZ 100c3d90 f i CServer.obj
 0002:0004ce50       ??0?$CExtendedPool@PAUCMenu@@$0IA@V?$tuple@I@std@@@@QAE@XZ 100c3e50 f i CServer.obj
 0002:0004cf10       ??0?$CExtendedPool@PAUCObject@@$0DOI@VCObjectData@@@@QAE@XZ 100c3f10 f i CServer.obj
 0002:0004cfd0       ??0?$CExtendedPool@PAUCPlayer@@$0DOI@VCPlayerData@@@@QAE@XZ 100c3fd0 f i CServer.obj
 0002:0004d090       ??0?$CExtendedPool@PAUCTextdraw@@$0IAA@V?$tuple@I@std@@@@QAE@XZ 100c4090 f i CServer.obj
 0002:0004d150       ??0?$CExtendedPool@PAUCVehicle@@$0HNA@VCVehicleData@@@@QAE@XZ 100c4150 f i CServer.obj
 0002:0004d210       ??0?$CExtendedPool@UC3DText@@$0EAA@V?$tuple@I@std@@@@QAE@XZ 100c4210 f i CServer.obj
 0002:0004d2d0       ??0?$CExtendedPool@UtPickup@@$0BAAA@V?$tuple@I@std@@@@QAE@XZ 100c42d0 f i CServer.obj
 0002:0004d390       ??0?$CPerPlayerPoolBase@PAUCObject@@$0DOI@@@QAE@XZ 100c4390 f i CServer.obj
 0002:0004d3f0       ??0?$CPoolBase@$$BY03M$0EAA@@@QAE@XZ 100c43f0 f i CServer.obj
 0002:0004d450       ??0?$CPoolBase@PAUCActor@@$0DOI@@@QAE@XZ 100c4450 f i CServer.obj
 0002:0004d4b0       ??0?$CPoolBase@PAUCMenu@@$0IA@@@QAE@XZ 100c44b0 f i CServer.obj
 0002:0004d510       ??0?$CPoolBase@PAUCObject@@$0DOI@@@QAE@XZ 100c4510 f i CServer.obj
 0002:0004d570       ??0?$CPoolBase@PAUCPlayer@@$0DOI@@@QAE@XZ 100c4570 f i CServer.obj
 0002:0004d5d0       ??0?$CPoolBase@PAUCTextdraw@@$0IAA@@@QAE@XZ 100c45d0 f i CServer.obj
 0002:0004d630       ??0?$CPoolBase@PAUCVehicle@@$0HNA@@@QAE@XZ 100c4630 f i CServer.obj
 0002:0004d690       ??0?$CPoolBase@UC3DText@@$0EAA@@@QAE@XZ 100c4690 f i CServer.obj
 0002:0004d6f0       ??0?$CPoolBase@UtPickup@@$0BAAA@@@QAE@XZ 100c46f0 f i CServer.obj
 0002:0004d750       ??0?$CSingleton@VCServer@@@@QAE@XZ 100c4750 f i CServer.obj
 0002:0004d7b0       ??0?$CSlotPerPlayerPool@UCObjectPool@@PAUCObject@@$0DOI@$0DOI@$0DNBIKA@$0A@V?$tuple@I@std@@@@QAE@AAUCObjectPool@@ABV?$CPoolBase@PAUCPlayer@@$0DOI@@@@Z 100c47b0 f i CServer.obj
 0002:0004d830       ??0?$CSlotPool@UCActorPool@@PAUCActor@@$0DOI@$0BPEA@$0PKA@V?$tuple@I@std@@@@QAE@AAUCActorPool@@@Z 100c4830 f i CServer.obj
 0002:0004d8a0       ??0?$CSlotPool@UCMenuPool@@PAUCMenu@@$0IA@$0A@$0CAA@V?$tuple@I@std@@@@QAE@AAUCMenuPool@@@Z 100c48a0 f i CServer.obj
 0002:0004d910       ??0?$CSlotPool@UCObjectPool@@PAUCObject@@$0DOI@$0HKDBEA@$0HKCBKA@VCObjectData@@@@QAE@AAUCObjectPool@@@Z 100c4910 f i CServer.obj
 0002:0004d980       ??0?$CSlotPool@UCPickupPool@@UtPickup@@$0BAAA@$0A@$0BEAAA@V?$tuple@I@std@@@@QAE@AAUCPickupPool@@@Z 100c4980 f i CServer.obj
 0002:0004d9f0       ??0?$CSlotPool@UCPlayerPool@@PAUCPlayer@@$0DOI@$0CFJJM@$0CEJPM@VCPlayerData@@@@QAE@AAUCPlayerPool@@@Z 100c49f0 f i CServer.obj
 0002:0004da60       ??0?$CSlotPool@UCSAMPGangZonePool@@$$BY03M$0EAA@$0A@$0EAAA@V?$tuple@I@std@@@@QAE@AAUCSAMPGangZonePool@@@Z 100c4a60 f i CServer.obj
 0002:0004dad0       ??0?$CSlotPool@UCTextDrawPool@@PAUCTextdraw@@$0IAA@$0CAAA@$0A@V?$tuple@I@std@@@@QAE@AAUCTextDrawPool@@@Z 100c4ad0 f i CServer.obj
 0002:0004db40       ??0?$CSlotPool@UCVehiclePool@@PAUCVehicle@@$0HNA@$0DPFE@$0CABE@VCVehicleData@@@@QAE@AAUCVehiclePool@@@Z 100c4b40 f i CServer.obj
 0002:0004dbb0       ??0?$CSlotPool@VC3DTextPool@@UC3DText@@$0EAA@$0BAAA@$0A@V?$tuple@I@std@@@@QAE@AAVC3DTextPool@@@Z 100c4bb0 f i CServer.obj
 0002:0004dc20       ??0?$_Hash@V?$_Umap_traits@IV?$tuple@I@std@@V?$_Uhash_compare@IU?$hash@I@std@@U?$equal_to@I@2@@2@V?$allocator@U?$pair@$$CBIV?$tuple@I@std@@@std@@@2@$0A@@std@@@std@@IAE@ABV?$_Uhash_compare@IU?$hash@I@std@@U?$equal_to@I@2@@1@ABV?$allocator@U?$pair@$$CBIV?$tuple@I@std@@@std@@@1@@Z 100c4c20 f i CServer.obj
 0002:0004dd50       ??0?$_Hash@V?$_Umap_traits@IVCObjectData@@V?$_Uhash_compare@IU?$hash@I@std@@U?$equal_to@I@2@@std@@V?$allocator@U?$pair@$$CBIVCObjectData@@@std@@@3@$0A@@std@@@std@@IAE@ABV?$_Uhash_compare@IU?$hash@I@std@@U?$equal_to@I@2@@1@ABV?$allocator@U?$pair@$$CBIVCObjectData@@@std@@@1@@Z 100c4d50 f i CServer.obj
 0002:0004de80       ??0?$_Hash@V?$_Umap_traits@IVCPlayerData@@V?$_Uhash_compare@IU?$hash@I@std@@U?$equal_to@I@2@@std@@V?$allocator@U?$pair@$$CBIVCPlayerData@@@std@@@3@$0A@@std@@@std@@IAE@ABV?$_Uhash_compare@IU?$hash@I@std@@U?$equal_to@I@2@@1@ABV?$allocator@U?$pair@$$CBIVCPlayerData@@@std@@@1@@Z 100c4e80 f i CServer.obj
 0002:0004dfb0       ??0?$_Hash@V?$_Umap_traits@IVCVehicleData@@V?$_Uhash_compare@IU?$hash@I@std@@U?$equal_to@I@2@@std@@V?$allocator@U?$pair@$$CBIVCVehicleData@@@std@@@3@$0A@@std@@@std@@IAE@ABV?$_Uhash_compare@IU?$hash@I@std@@U?$equal_to@I@2@@1@ABV?$allocator@U?$pair@$$CBIVCVehicleData@@@std@@@1@@Z 100c4fb0 f i CServer.obj
 0002:0004e0e0       ??0?$_Hash@V?$_Umap_traits@U?$pair@II@std@@V?$tuple@I@2@V?$_Uhash_compare@U?$pair@II@std@@Upair_hash@aux@@U?$equal_to@U?$pair@II@std@@@2@@2@V?$allocator@U?$pair@$$CBU?$pair@II@std@@V?$tuple@I@2@@std@@@2@$0A@@std@@@std@@IAE@ABV?$_Uhash_compare@U?$pair@II@std@@Upair_hash@aux@@U?$equal_to@U?$pair@II@std@@@2@@1@ABV?$allocator@U?$pair@$$CBU?$pair@II@std@@V?$tuple@I@2@@std@@@1@@Z 100c50e0 f i CServer.obj
 0002:0004e210       ??0?$_List_unchecked_const_iterator@V?$_List_val@U?$_List_simple_types@U?$pair@$$CBIV?$tuple@I@std@@@std@@@std@@@std@@U_Iterator_base0@2@@std@@QAE@PAU?$_List_node@U?$pair@$$CBIV?$tuple@I@std@@@std@@PAX@1@PBV?$_List_val@U?$_List_simple_types@U?$pair@$$CBIV?$tuple@I@std@@@std@@@std@@@1@@Z 100c5210 f i CServer.obj
 0002:0004e280       ??0?$_List_unchecked_const_iterator@V?$_List_val@U?$_List_simple_types@U?$pair@$$CBIVCObjectData@@@std@@@std@@@std@@U_Iterator_base0@2@@std@@QAE@PAU?$_List_node@U?$pair@$$CBIVCObjectData@@@std@@PAX@1@PBV?$_List_val@U?$_List_simple_types@U?$pair@$$CBIVCObjectData@@@std@@@std@@@1@@Z 100c5280 f i CServer.obj
 0002:0004e2f0       ??0?$_List_unchecked_const_iterator@V?$_List_val@U?$_List_simple_types@U?$pair@$$CBIVCVehicleData@@@std@@@std@@@std@@U_Iterator_base0@2@@std@@QAE@PAU?$_List_node@U?$pair@$$CBIVCVehicleData@@@std@@PAX@1@PBV?$_List_val@U?$_List_simple_types@U?$pair@$$CBIVCVehicleData@@@std@@@std@@@1@@Z 100c52f0 f i CServer.obj
 0002:0004e360       ??0?$_List_unchecked_const_iterator@V?$_List_val@U?$_List_simple_types@U?$pair@$$CBU?$pair@II@std@@V?$tuple@I@2@@std@@@std@@@std@@U_Iterator_base0@2@@std@@QAE@PAU?$_List_node@U?$pair@$$CBU?$pair@II@std@@V?$tuple@I@2@@std@@PAX@1@PBV?$_List_val@U?$_List_simple_types@U?$pair@$$CBU?$pair@II@std@@V?$tuple@I@2@@std@@@std@@@1@@Z 100c5360 f i CServer.obj
 0002:0004e3d0       ??0?$_List_unchecked_iterator@V?$_List_val@U?$_List_simple_types@U?$pair@$$CBIV?$tuple@I@std@@@std@@@std@@@std@@@std@@QAE@PAU?$_List_node@U?$pair@$$CBIV?$tuple@I@std@@@std@@PAX@1@PBV?$_List_val@U?$_List_simple_types@U?$pair@$$CBIV?$tuple@I@std@@@std@@@std@@@1@@Z 100c53d0 f i CServer.obj
 0002:0004e430       ??0?$_List_unchecked_iterator@V?$_List_val@U?$_List_simple_types@U?$pair@$$CBIVCObjectData@@@std@@@std@@@std@@@std@@QAE@PAU?$_List_node@U?$pair@$$CBIVCObjectData@@@std@@PAX@1@PBV?$_List_val@U?$_List_simple_types@U?$pair@$$CBIVCObjectData@@@std@@@std@@@1@@Z 100c5430 f i CServer.obj
 0002:0004e490       ??0?$_List_unchecked_iterator@V?$_List_val@U?$_List_simple_types@U?$pair@$$CBIVCVehicleData@@@std@@@std@@@std@@@std@@QAE@PAU?$_List_node@U?$pair@$$CBIVCVehicleData@@@std@@PAX@1@PBV?$_List_val@U?$_List_simple_types@U?$pair@$$CBIVCVehicleData@@@std@@@std@@@1@@Z 100c5490 f i CServer.obj
 0002:0004e4f0       ??0?$_List_unchecked_iterator@V?$_List_val@U?$_List_simple_types@U?$pair@$$CBU?$pair@II@std@@V?$tuple@I@2@@std@@@std@@@std@@@std@@QAE@PAU?$_List_node@U?$pair@$$CBU?$pair@II@std@@V?$tuple@I@2@@std@@PAX@1@PBV?$_List_val@U?$_List_simple_types@U?$pair@$$CBU?$pair@II@std@@V?$tuple@I@2@@std@@@std@@@1@@Z 100c54f0 f i CServer.obj
 0002:0004e550       ??0?$_List_val@U?$_List_simple_types@U?$pair@$$CBIV?$tuple@I@std@@@std@@@std@@@std@@QAE@XZ 100c5550 f i CServer.obj
 0002:0004e5d0       ??0?$_List_val@U?$_List_simple_types@U?$pair@$$CBIVCObjectData@@@std@@@std@@@std@@QAE@XZ 100c55d0 f i CServer.obj
 0002:0004e650       ??0?$_List_val@U?$_List_simple_types@U?$pair@$$CBIVCPlayerData@@@std@@@std@@@std@@QAE@XZ 100c5650 f i CServer.obj
 0002:0004e6d0       ??0?$_List_val@U?$_List_simple_types@U?$pair@$$CBIVCVehicleData@@@std@@@std@@@std@@QAE@XZ 100c56d0 f i CServer.obj
 0002:0004e750       ??0?$_List_val@U?$_List_simple_types@U?$pair@$$CBU?$pair@II@std@@V?$tuple@I@2@@std@@@std@@@std@@QAE@XZ 100c5750 f i CServer.obj
 0002:0004e7d0       ??0?$_Uhash_compare@IU?$hash@I@std@@U?$equal_to@I@2@@std@@QAE@XZ 100c57d0 f i CServer.obj
 0002:0004e860       ??0?$_Uhash_compare@U?$pair@II@std@@Upair_hash@aux@@U?$equal_to@U?$pair@II@std@@@2@@std@@QAE@XZ 100c5860 f i CServer.obj
 0002:0004e8f0       ??0?$_Umap_traits@IV?$tuple@I@std@@V?$_Uhash_compare@IU?$hash@I@std@@U?$equal_to@I@2@@2@V?$allocator@U?$pair@$$CBIV?$tuple@I@std@@@std@@@2@$0A@@std@@QAE@ABV?$_Uhash_compare@IU?$hash@I@std@@U?$equal_to@I@2@@1@@Z 100c58f0 f i CServer.obj
 0002:0004e950       ??0?$_Umap_traits@IVCObjectData@@V?$_Uhash_compare@IU?$hash@I@std@@U?$equal_to@I@2@@std@@V?$allocator@U?$pair@$$CBIVCObjectData@@@std@@@3@$0A@@std@@QAE@ABV?$_Uhash_compare@IU?$hash@I@std@@U?$equal_to@I@2@@1@@Z 100c5950 f i CServer.obj
 0002:0004e9b0       ??0?$_Umap_traits@IVCPlayerData@@V?$_Uhash_compare@IU?$hash@I@std@@U?$equal_to@I@2@@std@@V?$allocator@U?$pair@$$CBIVCPlayerData@@@std@@@3@$0A@@std@@QAE@ABV?$_Uhash_compare@IU?$hash@I@std@@U?$equal_to@I@2@@1@@Z 100c59b0 f i CServer.obj
 0002:0004ea10       ??0?$_Umap_traits@IVCVehicleData@@V?$_Uhash_compare@IU?$hash@I@std@@U?$equal_to@I@2@@std@@V?$allocator@U?$pair@$$CBIVCVehicleData@@@std@@@3@$0A@@std@@QAE@ABV?$_Uhash_compare@IU?$hash@I@std@@U?$equal_to@I@2@@1@@Z 100c5a10 f i CServer.obj
 0002:0004ea70       ??0?$_Umap_traits@U?$pair@II@std@@V?$tuple@I@2@V?$_Uhash_compare@U?$pair@II@std@@Upair_hash@aux@@U?$equal_to@U?$pair@II@std@@@2@@2@V?$allocator@U?$pair@$$CBU?$pair@II@std@@V?$tuple@I@2@@std@@@2@$0A@@std@@QAE@ABV?$_Uhash_compare@U?$pair@II@std@@Upair_hash@aux@@U?$equal_to@U?$pair@II@std@@@2@@1@@Z 100c5a70 f i CServer.obj
 0002:0004ead0       ??0?$_Uninitialized_backout@PAV?$_List_unchecked_iterator@V?$_List_val@U?$_List_simple_types@U?$pair@$$CBIV?$tuple@I@std@@@std@@@std@@@std@@@std@@@std@@QAE@PAV?$_List_unchecked_iterator@V?$_List_val@U?$_List_simple_types@U?$pair@$$CBIV?$tuple@I@std@@@std@@@std@@@std@@@1@@Z 100c5ad0 f i CServer.obj
 0002:0004eb40       ??0?$_Uninitialized_backout@PAV?$_List_unchecked_iterator@V?$_List_val@U?$_List_simple_types@U?$pair@$$CBIVCObjectData@@@std@@@std@@@std@@@std@@@std@@QAE@PAV?$_List_unchecked_iterator@V?$_List_val@U?$_List_simple_types@U?$pair@$$CBIVCObjectData@@@std@@@std@@@std@@@1@@Z 100c5b40 f i CServer.obj
 0002:0004ebb0       ??0?$_Uninitialized_backout@PAV?$_List_unchecked_iterator@V?$_List_val@U?$_List_simple_types@U?$pair@$$CBIVCVehicleData@@@std@@@std@@@std@@@std@@@std@@QAE@PAV?$_List_unchecked_iterator@V?$_List_val@U?$_List_simple_types@U?$pair@$$CBIVCVehicleData@@@std@@@std@@@std@@@1@@Z 100c5bb0 f i CServer.obj
 0002:0004ec20       ??0?$_Uninitialized_backout@PAV?$_List_unchecked_iterator@V?$_List_val@U?$_List_simple_types@U?$pair@$$CBU?$pair@II@std@@V?$tuple@I@2@@std@@@std@@@std@@@std@@@std@@QAE@PAV?$_List_unchecked_iterator@V?$_List_val@U?$_List_simple_types@U?$pair@$$CBU?$pair@II@std@@V?$tuple@I@2@@std@@@std@@@std@@@1@@Z 100c5c20 f i CServer.obj
 0002:0004ec90       ??0?$_Vector_val@U?$_Simple_types@V?$_List_unchecked_iterator@V?$_List_val@U?$_List_simple_types@U?$pair@$$CBIV?$tuple@I@std@@@std@@@std@@@std@@@std@@@std@@@std@@QAE@XZ 100c5c90 f i CServer.obj
 0002:0004ed10       ??0?$_Vector_val@U?$_Simple_types@V?$_List_unchecked_iterator@V?$_List_val@U?$_List_simple_types@U?$pair@$$CBIVCObjectData@@@std@@@std@@@std@@@std@@@std@@@std@@QAE@XZ 100c5d10 f i CServer.obj
 0002:0004ed90       ??0?$_Vector_val@U?$_Simple_types@V?$_List_unchecked_iterator@V?$_List_val@U?$_List_simple_types@U?$pair@$$CBIVCPlayerData@@@std@@@std@@@std@@@std@@@std@@@std@@QAE@XZ 100c5d90 f i CServer.obj
 0002:0004ee10       ??0?$_Vector_val@U?$_Simple_types@V?$_List_unchecked_iterator@V?$_List_val@U?$_List_simple_types@U?$pair@$$CBIVCVehicleData@@@std@@@std@@@std@@@std@@@std@@@std@@QAE@XZ 100c5e10 f i CServer.obj
 0002:0004ee90       ??0?$_Vector_val@U?$_Simple_types@V?$_List_unchecked_iterator@V?$_List_val@U?$_List_simple_types@U?$pair@$$CBU?$pair@II@std@@V?$tuple@I@2@@std@@@std@@@std@@@std@@@std@@@std@@QAE@XZ 100c5e90 f i CServer.obj
 0002:0004ef10       ??0?$allocator@U?$pair@$$CBIV?$tuple@I@std@@@std@@@std@@QAE@XZ 100c5f10 f i CServer.obj
 0002:0004ef70       ??0?$allocator@U?$pair@$$CBIVCObjectData@@@std@@@std@@QAE@XZ 100c5f70 f i CServer.obj
 0002:0004efd0       ??0?$allocator@U?$pair@$$CBIVCPlayerData@@@std@@@std@@QAE@XZ 100c5fd0 f i CServer.obj
 0002:0004f030       ??0?$allocator@U?$pair@$$CBIVCVehicleData@@@std@@@std@@QAE@XZ 100c6030 f i CServer.obj
 0002:0004f090       ??0?$allocator@U?$pair@$$CBU?$pair@II@std@@V?$tuple@I@2@@std@@@std@@QAE@XZ 100c6090 f i CServer.obj
 0002:0004f0f0       ??0?$list@U?$pair@$$CBIV?$tuple@I@std@@@std@@V?$allocator@U?$pair@$$CBIV?$tuple@I@std@@@std@@@2@@std@@QAE@ABV?$allocator@U?$pair@$$CBIV?$tuple@I@std@@@std@@@1@@Z 100c60f0 f i CServer.obj
 0002:0004f170       ??0?$list@U?$pair@$$CBIVCObjectData@@@std@@V?$allocator@U?$pair@$$CBIVCObjectData@@@std@@@2@@std@@QAE@ABV?$allocator@U?$pair@$$CBIVCObjectData@@@std@@@1@@Z 100c6170 f i CServer.obj
 0002:0004f1f0       ??0?$list@U?$pair@$$CBIVCPlayerData@@@std@@V?$allocator@U?$pair@$$CBIVCPlayerData@@@std@@@2@@std@@QAE@ABV?$allocator@U?$pair@$$CBIVCPlayerData@@@std@@@1@@Z 100c61f0 f i CServer.obj
 0002:0004f270       ??0?$list@U?$pair@$$CBIVCVehicleData@@@std@@V?$allocator@U?$pair@$$CBIVCVehicleData@@@std@@@2@@std@@QAE@ABV?$allocator@U?$pair@$$CBIVCVehicleData@@@std@@@1@@Z 100c6270 f i CServer.obj
 0002:0004f2f0       ??0?$list@U?$pair@$$CBU?$pair@II@std@@V?$tuple@I@2@@std@@V?$allocator@U?$pair@$$CBU?$pair@II@std@@V?$tuple@I@2@@std@@@2@@std@@QAE@ABV?$allocator@U?$pair@$$CBU?$pair@II@std@@V?$tuple@I@2@@std@@@1@@Z 100c62f0 f i CServer.obj
 0002:0004f370       ??0?$unordered_map@IV?$tuple@I@std@@U?$hash@I@2@U?$equal_to@I@2@V?$allocator@U?$pair@$$CBIV?$tuple@I@std@@@std@@@2@@std@@QAE@XZ 100c6370 f i CServer.obj
 0002:0004f3f0       ??0?$unordered_map@IVCObjectData@@U?$hash@I@std@@U?$equal_to@I@3@V?$allocator@U?$pair@$$CBIVCObjectData@@@std@@@3@@std@@QAE@XZ 100c63f0 f i CServer.obj
 0002:0004f470       ??0?$unordered_map@IVCPlayerData@@U?$hash@I@std@@U?$equal_to@I@3@V?$allocator@U?$pair@$$CBIVCPlayerData@@@std@@@3@@std@@QAE@XZ 100c6470 f i CServer.obj
 0002:0004f4f0       ??0?$unordered_map@IVCVehicleData@@U?$hash@I@std@@U?$equal_to@I@3@V?$allocator@U?$pair@$$CBIVCVehicleData@@@std@@@3@@std@@QAE@XZ 100c64f0 f i CServer.obj
 0002:0004f570       ??0?$unordered_map@U?$pair@II@std@@V?$tuple@I@2@Upair_hash@aux@@U?$equal_to@U?$pair@II@std@@@2@V?$allocator@U?$pair@$$CBU?$pair@II@std@@V?$tuple@I@2@@std@@@2@@std@@QAE@XZ 100c6570 f i CServer.obj
 0002:0004f5f0       ??0CServer@@QAE@AAUCNetGame@@@Z 100c65f0 f   CServer.obj
 0002:0004f7e0       ??0invalid_argument@std@@QAE@ABV01@@Z 100c67e0 f i CServer.obj
 0002:0004f850       ??0invalid_argument@std@@QAE@PBD@Z 100c6850 f i CServer.obj
 0002:0004f8c0       ??1?$CBasicPerPlayerPool@UCObjectPool@@PAUCObject@@$0DOI@$0DOI@$0DNBIKA@V?$tuple@I@std@@@@UAE@XZ 100c68c0 f i CServer.obj
 0002:0004f910       ??1?$CBasicPool@UCActorPool@@PAUCActor@@$0DOI@$0BPEA@V?$tuple@I@std@@@@UAE@XZ 100c6910 f i CServer.obj
 0002:0004f960       ??1?$CBasicPool@UCMenuPool@@PAUCMenu@@$0IA@$0A@V?$tuple@I@std@@@@UAE@XZ 100c6960 f i CServer.obj
 0002:0004f9b0       ??1?$CBasicPool@UCObjectPool@@PAUCObject@@$0DOI@$0HKDBEA@VCObjectData@@@@UAE@XZ 100c69b0 f i CServer.obj
 0002:0004fa00       ??1?$CBasicPool@UCPickupPool@@UtPickup@@$0BAAA@$0A@V?$tuple@I@std@@@@UAE@XZ 100c6a00 f i CServer.obj
 0002:0004fa50       ??1?$CBasicPool@UCPlayerPool@@PAUCPlayer@@$0DOI@$0CFJJM@VCPlayerData@@@@UAE@XZ 100c6a50 f i CServer.obj
 0002:0004faa0       ??1?$CBasicPool@UCSAMPGangZonePool@@$$BY03M$0EAA@$0A@V?$tuple@I@std@@@@UAE@XZ 100c6aa0 f i CServer.obj
 0002:0004faf0       ??1?$CBasicPool@UCTextDrawPool@@PAUCTextdraw@@$0IAA@$0CAAA@V?$tuple@I@std@@@@UAE@XZ 100c6af0 f i CServer.obj
 0002:0004fb40       ??1?$CBasicPool@UCVehiclePool@@PAUCVehicle@@$0HNA@$0DPFE@VCVehicleData@@@@UAE@XZ 100c6b40 f i CServer.obj
 0002:0004fb90       ??1?$CBasicPool@VC3DTextPool@@UC3DText@@$0EAA@$0BAAA@V?$tuple@I@std@@@@UAE@XZ 100c6b90 f i CServer.obj
 0002:0004fbe0       ??1?$CBoundedPool@UCActorPool@@PAUCActor@@$0DOI@$0BPEA@$0PKA@$0COOA@V?$tuple@I@std@@@@UAE@XZ 100c6be0 f i CServer.obj
 0002:0004fc30       ??1?$CBoundedPool@UCPlayerPool@@PAUCPlayer@@$0DOI@$0CFJJM@$0CEJPM@$0DAJGI@VCPlayerData@@@@UAE@XZ 100c6c30 f i CServer.obj
 0002:0004fc80       ??1?$CBoundedPool@UCVehiclePool@@PAUCVehicle@@$0HNA@$0DPFE@$0CABE@$0FOJE@VCVehicleData@@@@UAE@XZ 100c6c80 f i CServer.obj
 0002:0004fcd0       ??1?$CExtendedPerPlayerPool@PAUCObject@@$0DOI@V?$tuple@I@std@@@@UAE@XZ 100c6cd0 f i CServer.obj
 0002:0004fd30       ??1?$CExtendedPool@$$BY03M$0EAA@V?$tuple@I@std@@@@UAE@XZ 100c6d30 f i CServer.obj
 0002:0004fd90       ??1?$CExtendedPool@PAUCActor@@$0DOI@V?$tuple@I@std@@@@UAE@XZ 100c6d90 f i CServer.obj
 0002:0004fdf0       ??1?$CExtendedPool@PAUCMenu@@$0IA@V?$tuple@I@std@@@@UAE@XZ 100c6df0 f i CServer.obj
 0002:0004fe50       ??1?$CExtendedPool@PAUCObject@@$0DOI@VCObjectData@@@@UAE@XZ 100c6e50 f i CServer.obj
 0002:0004feb0       ??1?$CExtendedPool@PAUCPlayer@@$0DOI@VCPlayerData@@@@UAE@XZ 100c6eb0 f i CServer.obj
 0002:0004ff10       ??1?$CExtendedPool@PAUCTextdraw@@$0IAA@V?$tuple@I@std@@@@UAE@XZ 100c6f10 f i CServer.obj
 0002:0004ff70       ??1?$CExtendedPool@PAUCVehicle@@$0HNA@VCVehicleData@@@@UAE@XZ 100c6f70 f i CServer.obj
 0002:0004ffd0       ??1?$CExtendedPool@UC3DText@@$0EAA@V?$tuple@I@std@@@@UAE@XZ 100c6fd0 f i CServer.obj
 0002:00050030       ??1?$CExtendedPool@UtPickup@@$0BAAA@V?$tuple@I@std@@@@UAE@XZ 100c7030 f i CServer.obj
 0002:00050090       ??1?$CPerPlayerPoolBase@PAUCObject@@$0DOI@@@UAE@XZ 100c7090 f i CServer.obj
 0002:000500e0       ??1?$CPoolBase@$$BY03M$0EAA@@@UAE@XZ 100c70e0 f i CServer.obj
 0002:00050130       ??1?$CPoolBase@PAUCActor@@$0DOI@@@UAE@XZ 100c7130 f i CServer.obj
 0002:00050180       ??1?$CPoolBase@PAUCMenu@@$0IA@@@UAE@XZ 100c7180 f i CServer.obj
 0002:000501d0       ??1?$CPoolBase@PAUCObject@@$0DOI@@@UAE@XZ 100c71d0 f i CServer.obj
 0002:00050220       ??1?$CPoolBase@PAUCPlayer@@$0DOI@@@UAE@XZ 100c7220 f i CServer.obj
 0002:00050270       ??1?$CPoolBase@PAUCTextdraw@@$0IAA@@@UAE@XZ 100c7270 f i CServer.obj
 0002:000502c0       ??1?$CPoolBase@PAUCVehicle@@$0HNA@@@UAE@XZ 100c72c0 f i CServer.obj
 0002:00050310       ??1?$CPoolBase@UC3DText@@$0EAA@@@UAE@XZ 100c7310 f i CServer.obj
 0002:00050360       ??1?$CPoolBase@UtPickup@@$0BAAA@@@UAE@XZ 100c7360 f i CServer.obj
 0002:000503b0       ??1?$CSingleton@VCServer@@@@UAE@XZ 100c73b0 f i CServer.obj
 0002:00050410       ??1?$CSlotPerPlayerPool@UCObjectPool@@PAUCObject@@$0DOI@$0DOI@$0DNBIKA@$0A@V?$tuple@I@std@@@@UAE@XZ 100c7410 f i CServer.obj
 0002:00050460       ??1?$CSlotPool@UCActorPool@@PAUCActor@@$0DOI@$0BPEA@$0PKA@V?$tuple@I@std@@@@UAE@XZ 100c7460 f i CServer.obj
 0002:000504b0       ??1?$CSlotPool@UCMenuPool@@PAUCMenu@@$0IA@$0A@$0CAA@V?$tuple@I@std@@@@UAE@XZ 100c74b0 f i CServer.obj
 0002:00050500       ??1?$CSlotPool@UCObjectPool@@PAUCObject@@$0DOI@$0HKDBEA@$0HKCBKA@VCObjectData@@@@UAE@XZ 100c7500 f i CServer.obj
 0002:00050550       ??1?$CSlotPool@UCPickupPool@@UtPickup@@$0BAAA@$0A@$0BEAAA@V?$tuple@I@std@@@@UAE@XZ 100c7550 f i CServer.obj
 0002:000505a0       ??1?$CSlotPool@UCPlayerPool@@PAUCPlayer@@$0DOI@$0CFJJM@$0CEJPM@VCPlayerData@@@@UAE@XZ 100c75a0 f i CServer.obj
 0002:000505f0       ??1?$CSlotPool@UCSAMPGangZonePool@@$$BY03M$0EAA@$0A@$0EAAA@V?$tuple@I@std@@@@UAE@XZ 100c75f0 f i CServer.obj
 0002:00050640       ??1?$CSlotPool@UCTextDrawPool@@PAUCTextdraw@@$0IAA@$0CAAA@$0A@V?$tuple@I@std@@@@UAE@XZ 100c7640 f i CServer.obj
 0002:00050690       ??1?$CSlotPool@UCVehiclePool@@PAUCVehicle@@$0HNA@$0DPFE@$0CABE@VCVehicleData@@@@UAE@XZ 100c7690 f i CServer.obj
 0002:000506e0       ??1?$CSlotPool@VC3DTextPool@@UC3DText@@$0EAA@$0BAAA@$0A@V?$tuple@I@std@@@@UAE@XZ 100c76e0 f i CServer.obj
 0002:00050730       ??1?$_Hash@V?$_Umap_traits@IV?$tuple@I@std@@V?$_Uhash_compare@IU?$hash@I@std@@U?$equal_to@I@2@@2@V?$allocator@U?$pair@$$CBIV?$tuple@I@std@@@std@@@2@$0A@@std@@@std@@QAE@XZ 100c7730 f i CServer.obj
 0002:00050790       ??1?$_Hash@V?$_Umap_traits@IVCObjectData@@V?$_Uhash_compare@IU?$hash@I@std@@U?$equal_to@I@2@@std@@V?$allocator@U?$pair@$$CBIVCObjectData@@@std@@@3@$0A@@std@@@std@@QAE@XZ 100c7790 f i CServer.obj
 0002:000507f0       ??1?$_Hash@V?$_Umap_traits@IVCPlayerData@@V?$_Uhash_compare@IU?$hash@I@std@@U?$equal_to@I@2@@std@@V?$allocator@U?$pair@$$CBIVCPlayerData@@@std@@@3@$0A@@std@@@std@@QAE@XZ 100c77f0 f i CServer.obj
 0002:00050850       ??1?$_Hash@V?$_Umap_traits@IVCVehicleData@@V?$_Uhash_compare@IU?$hash@I@std@@U?$equal_to@I@2@@std@@V?$allocator@U?$pair@$$CBIVCVehicleData@@@std@@@3@$0A@@std@@@std@@QAE@XZ 100c7850 f i CServer.obj
 0002:000508b0       ??1?$_Hash@V?$_Umap_traits@U?$pair@II@std@@V?$tuple@I@2@V?$_Uhash_compare@U?$pair@II@std@@Upair_hash@aux@@U?$equal_to@U?$pair@II@std@@@2@@2@V?$allocator@U?$pair@$$CBU?$pair@II@std@@V?$tuple@I@2@@std@@@2@$0A@@std@@@std@@QAE@XZ 100c78b0 f i CServer.obj
 0002:00050910       ??1?$_Hash_vec@V?$allocator@V?$_List_unchecked_iterator@V?$_List_val@U?$_List_simple_types@U?$pair@$$CBIV?$tuple@I@std@@@std@@@std@@@std@@@std@@@std@@@std@@QAE@XZ 100c7910 f i CServer.obj
 0002:000509f0       ??1?$_Hash_vec@V?$allocator@V?$_List_unchecked_iterator@V?$_List_val@U?$_List_simple_types@U?$pair@$$CBIVCObjectData@@@std@@@std@@@std@@@std@@@std@@@std@@QAE@XZ 100c79f0 f i CServer.obj
 0002:00050ad0       ??1?$_Hash_vec@V?$allocator@V?$_List_unchecked_iterator@V?$_List_val@U?$_List_simple_types@U?$pair@$$CBIVCPlayerData@@@std@@@std@@@std@@@std@@@std@@@std@@QAE@XZ 100c7ad0 f i CServer.obj
 0002:00050bb0       ??1?$_Hash_vec@V?$allocator@V?$_List_unchecked_iterator@V?$_List_val@U?$_List_simple_types@U?$pair@$$CBIVCVehicleData@@@std@@@std@@@std@@@std@@@std@@@std@@QAE@XZ 100c7bb0 f i CServer.obj
 0002:00050c90       ??1?$_Hash_vec@V?$allocator@V?$_List_unchecked_iterator@V?$_List_val@U?$_List_simple_types@U?$pair@$$CBU?$pair@II@std@@V?$tuple@I@2@@std@@@std@@@std@@@std@@@std@@@std@@QAE@XZ 100c7c90 f i CServer.obj
 0002:00050d70       ??1?$_Uninitialized_backout@PAV?$_List_unchecked_iterator@V?$_List_val@U?$_List_simple_types@U?$pair@$$CBIV?$tuple@I@std@@@std@@@std@@@std@@@std@@@std@@QAE@XZ 100c7d70 f i CServer.obj
 0002:00050de0       ??1?$_Uninitialized_backout@PAV?$_List_unchecked_iterator@V?$_List_val@U?$_List_simple_types@U?$pair@$$CBIVCObjectData@@@std@@@std@@@std@@@std@@@std@@QAE@XZ 100c7de0 f i CServer.obj
 0002:00050e50       ??1?$_Uninitialized_backout@PAV?$_List_unchecked_iterator@V?$_List_val@U?$_List_simple_types@U?$pair@$$CBIVCVehicleData@@@std@@@std@@@std@@@std@@@std@@QAE@XZ 100c7e50 f i CServer.obj
 0002:00050ec0       ??1?$_Uninitialized_backout@PAV?$_List_unchecked_iterator@V?$_List_val@U?$_List_simple_types@U?$pair@$$CBU?$pair@II@std@@V?$tuple@I@2@@std@@@std@@@std@@@std@@@std@@QAE@XZ 100c7ec0 f i CServer.obj
 0002:00050f30       ??1?$list@U?$pair@$$CBIV?$tuple@I@std@@@std@@V?$allocator@U?$pair@$$CBIV?$tuple@I@std@@@std@@@2@@std@@QAE@XZ 100c7f30 f i CServer.obj
 0002:00050ff0       ??1?$list@U?$pair@$$CBIVCObjectData@@@std@@V?$allocator@U?$pair@$$CBIVCObjectData@@@std@@@2@@std@@QAE@XZ 100c7ff0 f i CServer.obj
 0002:000510b0       ??1?$list@U?$pair@$$CBIVCPlayerData@@@std@@V?$allocator@U?$pair@$$CBIVCPlayerData@@@std@@@2@@std@@QAE@XZ 100c80b0 f i CServer.obj
 0002:00051170       ??1?$list@U?$pair@$$CBIVCVehicleData@@@std@@V?$allocator@U?$pair@$$CBIVCVehicleData@@@std@@@2@@std@@QAE@XZ 100c8170 f i CServer.obj
 0002:00051230       ??1?$list@U?$pair@$$CBU?$pair@II@std@@V?$tuple@I@2@@std@@V?$allocator@U?$pair@$$CBU?$pair@II@std@@V?$tuple@I@2@@std@@@2@@std@@QAE@XZ 100c8230 f i CServer.obj
 0002:000512f0       ??1?$unordered_map@IV?$tuple@I@std@@U?$hash@I@2@U?$equal_to@I@2@V?$allocator@U?$pair@$$CBIV?$tuple@I@std@@@std@@@2@@std@@QAE@XZ 100c82f0 f i CServer.obj
 0002:00051340       ??1?$unordered_map@IVCObjectData@@U?$hash@I@std@@U?$equal_to@I@3@V?$allocator@U?$pair@$$CBIVCObjectData@@@std@@@3@@std@@QAE@XZ 100c8340 f i CServer.obj
 0002:00051390       ??1?$unordered_map@IVCPlayerData@@U?$hash@I@std@@U?$equal_to@I@3@V?$allocator@U?$pair@$$CBIVCPlayerData@@@std@@@3@@std@@QAE@XZ 100c8390 f i CServer.obj
 0002:000513e0       ??1?$unordered_map@IVCVehicleData@@U?$hash@I@std@@U?$equal_to@I@3@V?$allocator@U?$pair@$$CBIVCVehicleData@@@std@@@3@@std@@QAE@XZ 100c83e0 f i CServer.obj
 0002:00051430       ??1?$unordered_map@U?$pair@II@std@@V?$tuple@I@2@Upair_hash@aux@@U?$equal_to@U?$pair@II@std@@@2@V?$allocator@U?$pair@$$CBU?$pair@II@std@@V?$tuple@I@2@@std@@@2@@std@@QAE@XZ 100c8430 f i CServer.obj
 0002:00051480       ??1CServer@@UAE@XZ         100c8480 f i CServer.obj
 0002:00051570       ??1invalid_argument@std@@UAE@XZ 100c8570 f i CServer.obj
 0002:000515c0       ??A?$CBasicPerPlayerPool@UCObjectPool@@PAUCObject@@$0DOI@$0DOI@$0DNBIKA@V?$tuple@I@std@@@@UAEAAY0DOI@PAUCObject@@I@Z 100c85c0 f i CServer.obj
 0002:00051630       ??A?$CBasicPool@UCActorPool@@PAUCActor@@$0DOI@$0BPEA@V?$tuple@I@std@@@@UAEAAPAUCActor@@I@Z 100c8630 f i CServer.obj
 0002:000516a0       ??A?$CBasicPool@UCMenuPool@@PAUCMenu@@$0IA@$0A@V?$tuple@I@std@@@@UAEAAPAUCMenu@@I@Z 100c86a0 f i CServer.obj
 0002:00051700       ??A?$CBasicPool@UCObjectPool@@PAUCObject@@$0DOI@$0HKDBEA@VCObjectData@@@@UAEAAPAUCObject@@I@Z 100c8700 f i CServer.obj
 0002:00051770       ??A?$CBasicPool@UCPickupPool@@UtPickup@@$0BAAA@$0A@V?$tuple@I@std@@@@UAEAAUtPickup@@I@Z 100c8770 f i CServer.obj
 0002:000517d0       ??A?$CBasicPool@UCPlayerPool@@PAUCPlayer@@$0DOI@$0CFJJM@VCPlayerData@@@@UAEAAPAUCPlayer@@I@Z 100c87d0 f i CServer.obj
 0002:00051840       ??A?$CBasicPool@UCSAMPGangZonePool@@$$BY03M$0EAA@$0A@V?$tuple@I@std@@@@UAEAAY03MI@Z 100c8840 f i CServer.obj
 0002:000518a0       ??A?$CBasicPool@UCTextDrawPool@@PAUCTextdraw@@$0IAA@$0CAAA@V?$tuple@I@std@@@@UAEAAPAUCTextdraw@@I@Z 100c88a0 f i CServer.obj
 0002:00051910       ??A?$CBasicPool@UCVehiclePool@@PAUCVehicle@@$0HNA@$0DPFE@VCVehicleData@@@@UAEAAPAUCVehicle@@I@Z 100c8910 f i CServer.obj
 0002:00051980       ??A?$CBasicPool@VC3DTextPool@@UC3DText@@$0EAA@$0BAAA@V?$tuple@I@std@@@@UAEAAUC3DText@@I@Z 100c8980 f i CServer.obj
 0002:000519f0       ??_G?$CBasicPerPlayerPool@UCObjectPool@@PAUCObject@@$0DOI@$0DOI@$0DNBIKA@V?$tuple@I@std@@@@UAEPAXI@Z 100c89f0 f i CServer.obj
 0002:000519f0       ??_E?$CBasicPerPlayerPool@UCObjectPool@@PAUCObject@@$0DOI@$0DOI@$0DNBIKA@V?$tuple@I@std@@@@UAEPAXI@Z 100c89f0 f i CServer.obj
 0002:00051a60       ??_E?$CBasicPool@UCActorPool@@PAUCActor@@$0DOI@$0BPEA@V?$tuple@I@std@@@@UAEPAXI@Z 100c8a60 f i CServer.obj
 0002:00051a60       ??_G?$CBasicPool@UCActorPool@@PAUCActor@@$0DOI@$0BPEA@V?$tuple@I@std@@@@UAEPAXI@Z 100c8a60 f i CServer.obj
 0002:00051ad0       ??_G?$CBasicPool@UCMenuPool@@PAUCMenu@@$0IA@$0A@V?$tuple@I@std@@@@UAEPAXI@Z 100c8ad0 f i CServer.obj
 0002:00051ad0       ??_E?$CBasicPool@UCMenuPool@@PAUCMenu@@$0IA@$0A@V?$tuple@I@std@@@@UAEPAXI@Z 100c8ad0 f i CServer.obj
 0002:00051b40       ??_E?$CBasicPool@UCObjectPool@@PAUCObject@@$0DOI@$0HKDBEA@VCObjectData@@@@UAEPAXI@Z 100c8b40 f i CServer.obj
 0002:00051b40       ??_G?$CBasicPool@UCObjectPool@@PAUCObject@@$0DOI@$0HKDBEA@VCObjectData@@@@UAEPAXI@Z 100c8b40 f i CServer.obj
 0002:00051bb0       ??_G?$CBasicPool@UCPickupPool@@UtPickup@@$0BAAA@$0A@V?$tuple@I@std@@@@UAEPAXI@Z 100c8bb0 f i CServer.obj
 0002:00051bb0       ??_E?$CBasicPool@UCPickupPool@@UtPickup@@$0BAAA@$0A@V?$tuple@I@std@@@@UAEPAXI@Z 100c8bb0 f i CServer.obj
 0002:00051c20       ??_E?$CBasicPool@UCPlayerPool@@PAUCPlayer@@$0DOI@$0CFJJM@VCPlayerData@@@@UAEPAXI@Z 100c8c20 f i CServer.obj
 0002:00051c20       ??_G?$CBasicPool@UCPlayerPool@@PAUCPlayer@@$0DOI@$0CFJJM@VCPlayerData@@@@UAEPAXI@Z 100c8c20 f i CServer.obj
 0002:00051c90       ??_E?$CBasicPool@UCSAMPGangZonePool@@$$BY03M$0EAA@$0A@V?$tuple@I@std@@@@UAEPAXI@Z 100c8c90 f i CServer.obj
 0002:00051c90       ??_G?$CBasicPool@UCSAMPGangZonePool@@$$BY03M$0EAA@$0A@V?$tuple@I@std@@@@UAEPAXI@Z 100c8c90 f i CServer.obj
 0002:00051d00       ??_G?$CBasicPool@UCTextDrawPool@@PAUCTextdraw@@$0IAA@$0CAAA@V?$tuple@I@std@@@@UAEPAXI@Z 100c8d00 f i CServer.obj
 0002:00051d00       ??_E?$CBasicPool@UCTextDrawPool@@PAUCTextdraw@@$0IAA@$0CAAA@V?$tuple@I@std@@@@UAEPAXI@Z 100c8d00 f i CServer.obj
 0002:00051d70       ??_E?$CBasicPool@UCVehiclePool@@PAUCVehicle@@$0HNA@$0DPFE@VCVehicleData@@@@UAEPAXI@Z 100c8d70 f i CServer.obj
 0002:00051d70       ??_G?$CBasicPool@UCVehiclePool@@PAUCVehicle@@$0HNA@$0DPFE@VCVehicleData@@@@UAEPAXI@Z 100c8d70 f i CServer.obj
 0002:00051de0       ??_G?$CBasicPool@VC3DTextPool@@UC3DText@@$0EAA@$0BAAA@V?$tuple@I@std@@@@UAEPAXI@Z 100c8de0 f i CServer.obj
 0002:00051de0       ??_E?$CBasicPool@VC3DTextPool@@UC3DText@@$0EAA@$0BAAA@V?$tuple@I@std@@@@UAEPAXI@Z 100c8de0 f i CServer.obj
 0002:00051e50       ??_E?$CBoundedPool@UCActorPool@@PAUCActor@@$0DOI@$0BPEA@$0PKA@$0COOA@V?$tuple@I@std@@@@UAEPAXI@Z 100c8e50 f i CServer.obj
 0002:00051e50       ??_G?$CBoundedPool@UCActorPool@@PAUCActor@@$0DOI@$0BPEA@$0PKA@$0COOA@V?$tuple@I@std@@@@UAEPAXI@Z 100c8e50 f i CServer.obj
 0002:00051ec0       ??_E?$CBoundedPool@UCPlayerPool@@PAUCPlayer@@$0DOI@$0CFJJM@$0CEJPM@$0DAJGI@VCPlayerData@@@@UAEPAXI@Z 100c8ec0 f i CServer.obj
 0002:00051ec0       ??_G?$CBoundedPool@UCPlayerPool@@PAUCPlayer@@$0DOI@$0CFJJM@$0CEJPM@$0DAJGI@VCPlayerData@@@@UAEPAXI@Z 100c8ec0 f i CServer.obj
 0002:00051f30       ??_G?$CBoundedPool@UCVehiclePool@@PAUCVehicle@@$0HNA@$0DPFE@$0CABE@$0FOJE@VCVehicleData@@@@UAEPAXI@Z 100c8f30 f i CServer.obj
 0002:00051f30       ??_E?$CBoundedPool@UCVehiclePool@@PAUCVehicle@@$0HNA@$0DPFE@$0CABE@$0FOJE@VCVehicleData@@@@UAEPAXI@Z 100c8f30 f i CServer.obj
 0002:00051fa0       ??_G?$CExtendedPerPlayerPool@PAUCObject@@$0DOI@V?$tuple@I@std@@@@UAEPAXI@Z 100c8fa0 f i CServer.obj
 0002:00051fa0       ??_E?$CExtendedPerPlayerPool@PAUCObject@@$0DOI@V?$tuple@I@std@@@@UAEPAXI@Z 100c8fa0 f i CServer.obj
 0002:00052010       ??_G?$CExtendedPool@$$BY03M$0EAA@V?$tuple@I@std@@@@UAEPAXI@Z 100c9010 f i CServer.obj
 0002:00052010       ??_E?$CExtendedPool@$$BY03M$0EAA@V?$tuple@I@std@@@@UAEPAXI@Z 100c9010 f i CServer.obj
 0002:00052080       ??_E?$CExtendedPool@PAUCActor@@$0DOI@V?$tuple@I@std@@@@UAEPAXI@Z 100c9080 f i CServer.obj
 0002:00052080       ??_G?$CExtendedPool@PAUCActor@@$0DOI@V?$tuple@I@std@@@@UAEPAXI@Z 100c9080 f i CServer.obj
 0002:000520f0       ??_G?$CExtendedPool@PAUCMenu@@$0IA@V?$tuple@I@std@@@@UAEPAXI@Z 100c90f0 f i CServer.obj
 0002:000520f0       ??_E?$CExtendedPool@PAUCMenu@@$0IA@V?$tuple@I@std@@@@UAEPAXI@Z 100c90f0 f i CServer.obj
 0002:00052160       ??_G?$CExtendedPool@PAUCObject@@$0DOI@VCObjectData@@@@UAEPAXI@Z 100c9160 f i CServer.obj
 0002:00052160       ??_E?$CExtendedPool@PAUCObject@@$0DOI@VCObjectData@@@@UAEPAXI@Z 100c9160 f i CServer.obj
 0002:000521d0       ??_G?$CExtendedPool@PAUCPlayer@@$0DOI@VCPlayerData@@@@UAEPAXI@Z 100c91d0 f i CServer.obj
 0002:000521d0       ??_E?$CExtendedPool@PAUCPlayer@@$0DOI@VCPlayerData@@@@UAEPAXI@Z 100c91d0 f i CServer.obj
 0002:00052240       ??_E?$CExtendedPool@PAUCTextdraw@@$0IAA@V?$tuple@I@std@@@@UAEPAXI@Z 100c9240 f i CServer.obj
 0002:00052240       ??_G?$CExtendedPool@PAUCTextdraw@@$0IAA@V?$tuple@I@std@@@@UAEPAXI@Z 100c9240 f i CServer.obj
 0002:000522b0       ??_G?$CExtendedPool@PAUCVehicle@@$0HNA@VCVehicleData@@@@UAEPAXI@Z 100c92b0 f i CServer.obj
 0002:000522b0       ??_E?$CExtendedPool@PAUCVehicle@@$0HNA@VCVehicleData@@@@UAEPAXI@Z 100c92b0 f i CServer.obj
 0002:00052320       ??_E?$CExtendedPool@UC3DText@@$0EAA@V?$tuple@I@std@@@@UAEPAXI@Z 100c9320 f i CServer.obj
 0002:00052320       ??_G?$CExtendedPool@UC3DText@@$0EAA@V?$tuple@I@std@@@@UAEPAXI@Z 100c9320 f i CServer.obj
 0002:00052390       ??_G?$CExtendedPool@UtPickup@@$0BAAA@V?$tuple@I@std@@@@UAEPAXI@Z 100c9390 f i CServer.obj
 0002:00052390       ??_E?$CExtendedPool@UtPickup@@$0BAAA@V?$tuple@I@std@@@@UAEPAXI@Z 100c9390 f i CServer.obj
 0002:00052400       ??_G?$CPerPlayerPoolBase@PAUCObject@@$0DOI@@@UAEPAXI@Z 100c9400 f i CServer.obj
 0002:00052400       ??_E?$CPerPlayerPoolBase@PAUCObject@@$0DOI@@@UAEPAXI@Z 100c9400 f i CServer.obj
 0002:00052470       ??_G?$CPoolBase@$$BY03M$0EAA@@@UAEPAXI@Z 100c9470 f i CServer.obj
 0002:00052470       ??_E?$CPoolBase@$$BY03M$0EAA@@@UAEPAXI@Z 100c9470 f i CServer.obj
 0002:000524e0       ??_G?$CPoolBase@PAUCActor@@$0DOI@@@UAEPAXI@Z 100c94e0 f i CServer.obj
 0002:000524e0       ??_E?$CPoolBase@PAUCActor@@$0DOI@@@UAEPAXI@Z 100c94e0 f i CServer.obj
 0002:00052550       ??_G?$CPoolBase@PAUCMenu@@$0IA@@@UAEPAXI@Z 100c9550 f i CServer.obj
 0002:00052550       ??_E?$CPoolBase@PAUCMenu@@$0IA@@@UAEPAXI@Z 100c9550 f i CServer.obj
 0002:000525c0       ??_G?$CPoolBase@PAUCObject@@$0DOI@@@UAEPAXI@Z 100c95c0 f i CServer.obj
 0002:000525c0       ??_E?$CPoolBase@PAUCObject@@$0DOI@@@UAEPAXI@Z 100c95c0 f i CServer.obj
 0002:00052630       ??_G?$CPoolBase@PAUCPlayer@@$0DOI@@@UAEPAXI@Z 100c9630 f i CServer.obj
 0002:00052630       ??_E?$CPoolBase@PAUCPlayer@@$0DOI@@@UAEPAXI@Z 100c9630 f i CServer.obj
 0002:000526a0       ??_E?$CPoolBase@PAUCTextdraw@@$0IAA@@@UAEPAXI@Z 100c96a0 f i CServer.obj
 0002:000526a0       ??_G?$CPoolBase@PAUCTextdraw@@$0IAA@@@UAEPAXI@Z 100c96a0 f i CServer.obj
 0002:00052710       ??_E?$CPoolBase@PAUCVehicle@@$0HNA@@@UAEPAXI@Z 100c9710 f i CServer.obj
 0002:00052710       ??_G?$CPoolBase@PAUCVehicle@@$0HNA@@@UAEPAXI@Z 100c9710 f i CServer.obj
 0002:00052780       ??_G?$CPoolBase@UC3DText@@$0EAA@@@UAEPAXI@Z 100c9780 f i CServer.obj
 0002:00052780       ??_E?$CPoolBase@UC3DText@@$0EAA@@@UAEPAXI@Z 100c9780 f i CServer.obj
 0002:000527f0       ??_E?$CPoolBase@UtPickup@@$0BAAA@@@UAEPAXI@Z 100c97f0 f i CServer.obj
 0002:000527f0       ??_G?$CPoolBase@UtPickup@@$0BAAA@@@UAEPAXI@Z 100c97f0 f i CServer.obj
 0002:00052860       ??_G?$CSingleton@VCServer@@@@UAEPAXI@Z 100c9860 f i CServer.obj
 0002:00052860       ??_E?$CSingleton@VCServer@@@@UAEPAXI@Z 100c9860 f i CServer.obj
 0002:000528d0       ??_E?$CSlotPerPlayerPool@UCObjectPool@@PAUCObject@@$0DOI@$0DOI@$0DNBIKA@$0A@V?$tuple@I@std@@@@UAEPAXI@Z 100c98d0 f i CServer.obj
 0002:000528d0       ??_G?$CSlotPerPlayerPool@UCObjectPool@@PAUCObject@@$0DOI@$0DOI@$0DNBIKA@$0A@V?$tuple@I@std@@@@UAEPAXI@Z 100c98d0 f i CServer.obj
 0002:00052940       ??_G?$CSlotPool@UCActorPool@@PAUCActor@@$0DOI@$0BPEA@$0PKA@V?$tuple@I@std@@@@UAEPAXI@Z 100c9940 f i CServer.obj
 0002:00052940       ??_E?$CSlotPool@UCActorPool@@PAUCActor@@$0DOI@$0BPEA@$0PKA@V?$tuple@I@std@@@@UAEPAXI@Z 100c9940 f i CServer.obj
 0002:000529b0       ??_E?$CSlotPool@UCMenuPool@@PAUCMenu@@$0IA@$0A@$0CAA@V?$tuple@I@std@@@@UAEPAXI@Z 100c99b0 f i CServer.obj
 0002:000529b0       ??_G?$CSlotPool@UCMenuPool@@PAUCMenu@@$0IA@$0A@$0CAA@V?$tuple@I@std@@@@UAEPAXI@Z 100c99b0 f i CServer.obj
 0002:00052a20       ??_E?$CSlotPool@UCObjectPool@@PAUCObject@@$0DOI@$0HKDBEA@$0HKCBKA@VCObjectData@@@@UAEPAXI@Z 100c9a20 f i CServer.obj
 0002:00052a20       ??_G?$CSlotPool@UCObjectPool@@PAUCObject@@$0DOI@$0HKDBEA@$0HKCBKA@VCObjectData@@@@UAEPAXI@Z 100c9a20 f i CServer.obj
 0002:00052a90       ??_G?$CSlotPool@UCPickupPool@@UtPickup@@$0BAAA@$0A@$0BEAAA@V?$tuple@I@std@@@@UAEPAXI@Z 100c9a90 f i CServer.obj
 0002:00052a90       ??_E?$CSlotPool@UCPickupPool@@UtPickup@@$0BAAA@$0A@$0BEAAA@V?$tuple@I@std@@@@UAEPAXI@Z 100c9a90 f i CServer.obj
 0002:00052b00       ??_G?$CSlotPool@UCPlayerPool@@PAUCPlayer@@$0DOI@$0CFJJM@$0CEJPM@VCPlayerData@@@@UAEPAXI@Z 100c9b00 f i CServer.obj
 0002:00052b00       ??_E?$CSlotPool@UCPlayerPool@@PAUCPlayer@@$0DOI@$0CFJJM@$0CEJPM@VCPlayerData@@@@UAEPAXI@Z 100c9b00 f i CServer.obj
 0002:00052b70       ??_E?$CSlotPool@UCSAMPGangZonePool@@$$BY03M$0EAA@$0A@$0EAAA@V?$tuple@I@std@@@@UAEPAXI@Z 100c9b70 f i CServer.obj
 0002:00052b70       ??_G?$CSlotPool@UCSAMPGangZonePool@@$$BY03M$0EAA@$0A@$0EAAA@V?$tuple@I@std@@@@UAEPAXI@Z 100c9b70 f i CServer.obj
 0002:00052be0       ??_E?$CSlotPool@UCTextDrawPool@@PAUCTextdraw@@$0IAA@$0CAAA@$0A@V?$tuple@I@std@@@@UAEPAXI@Z 100c9be0 f i CServer.obj
 0002:00052be0       ??_G?$CSlotPool@UCTextDrawPool@@PAUCTextdraw@@$0IAA@$0CAAA@$0A@V?$tuple@I@std@@@@UAEPAXI@Z 100c9be0 f i CServer.obj
 0002:00052c50       ??_G?$CSlotPool@UCVehiclePool@@PAUCVehicle@@$0HNA@$0DPFE@$0CABE@VCVehicleData@@@@UAEPAXI@Z 100c9c50 f i CServer.obj
 0002:00052c50       ??_E?$CSlotPool@UCVehiclePool@@PAUCVehicle@@$0HNA@$0DPFE@$0CABE@VCVehicleData@@@@UAEPAXI@Z 100c9c50 f i CServer.obj
 0002:00052cc0       ??_G?$CSlotPool@VC3DTextPool@@UC3DText@@$0EAA@$0BAAA@$0A@V?$tuple@I@std@@@@UAEPAXI@Z 100c9cc0 f i CServer.obj
 0002:00052cc0       ??_E?$CSlotPool@VC3DTextPool@@UC3DText@@$0EAA@$0BAAA@$0A@V?$tuple@I@std@@@@UAEPAXI@Z 100c9cc0 f i CServer.obj
 0002:00052d30       ??_GCServer@@UAEPAXI@Z     100c9d30 f i CServer.obj
 0002:00052d30       ??_ECServer@@UAEPAXI@Z     100c9d30 f i CServer.obj
 0002:00052da0       ??_Einvalid_argument@std@@UAEPAXI@Z 100c9da0 f i CServer.obj
 0002:00052da0       ??_Ginvalid_argument@std@@UAEPAXI@Z 100c9da0 f i CServer.obj
 0002:00052e10       ?Get@?$CBasicPerPlayerPool@UCObjectPool@@PAUCObject@@$0DOI@$0DOI@$0DNBIKA@V?$tuple@I@std@@@@UAEAAPAUCObject@@II@Z 100c9e10 f i CServer.obj
 0002:00052ee0       ?Get@?$CBasicPool@UCActorPool@@PAUCActor@@$0DOI@$0BPEA@V?$tuple@I@std@@@@UAEAAPAUCActor@@I@Z 100c9ee0 f i CServer.obj
 0002:00052fa0       ?Get@?$CBasicPool@UCMenuPool@@PAUCMenu@@$0IA@$0A@V?$tuple@I@std@@@@UAEAAPAUCMenu@@I@Z 100c9fa0 f i CServer.obj
 0002:00053060       ?Get@?$CBasicPool@UCObjectPool@@PAUCObject@@$0DOI@$0HKDBEA@VCObjectData@@@@UAEAAPAUCObject@@I@Z 100ca060 f i CServer.obj
 0002:00053120       ?Get@?$CBasicPool@UCPickupPool@@UtPickup@@$0BAAA@$0A@V?$tuple@I@std@@@@UAEAAUtPickup@@I@Z 100ca120 f i CServer.obj
 0002:000531d0       ?Get@?$CBasicPool@UCPlayerPool@@PAUCPlayer@@$0DOI@$0CFJJM@VCPlayerData@@@@UAEAAPAUCPlayer@@I@Z 100ca1d0 f i CServer.obj
 0002:00053290       ?Get@?$CBasicPool@UCSAMPGangZonePool@@$$BY03M$0EAA@$0A@V?$tuple@I@std@@@@UAEAAY03MI@Z 100ca290 f i CServer.obj
 0002:00053350       ?Get@?$CBasicPool@UCTextDrawPool@@PAUCTextdraw@@$0IAA@$0CAAA@V?$tuple@I@std@@@@UAEAAPAUCTextdraw@@I@Z 100ca350 f i CServer.obj
 0002:00053410       ?Get@?$CBasicPool@UCVehiclePool@@PAUCVehicle@@$0HNA@$0DPFE@VCVehicleData@@@@UAEAAPAUCVehicle@@I@Z 100ca410 f i CServer.obj
 0002:000534d0       ?Get@?$CBasicPool@VC3DTextPool@@UC3DText@@$0EAA@$0BAAA@V?$tuple@I@std@@@@UAEAAUC3DText@@I@Z 100ca4d0 f i CServer.obj
 0002:00053590       ?IsValid@?$CBasicPerPlayerPool@UCObjectPool@@PAUCObject@@$0DOI@$0DOI@$0DNBIKA@V?$tuple@I@std@@@@UBE_NII@Z 100ca590 f i CServer.obj
 0002:00053680       ?IsValid@?$CBasicPool@UCActorPool@@PAUCActor@@$0DOI@$0BPEA@V?$tuple@I@std@@@@UBE_NI@Z 100ca680 f i CServer.obj
 0002:00053730       ?IsValid@?$CBasicPool@UCMenuPool@@PAUCMenu@@$0IA@$0A@V?$tuple@I@std@@@@UBE_NI@Z 100ca730 f i CServer.obj
 0002:000537e0       ?IsValid@?$CBasicPool@UCObjectPool@@PAUCObject@@$0DOI@$0HKDBEA@VCObjectData@@@@UBE_NI@Z 100ca7e0 f i CServer.obj
 0002:00053890       ?IsValid@?$CBasicPool@UCPickupPool@@UtPickup@@$0BAAA@$0A@V?$tuple@I@std@@@@UBE_NI@Z 100ca890 f i CServer.obj
 0002:00053940       ?IsValid@?$CBasicPool@UCPlayerPool@@PAUCPlayer@@$0DOI@$0CFJJM@VCPlayerData@@@@UBE_NI@Z 100ca940 f i CServer.obj
 0002:000539f0       ?IsValid@?$CBasicPool@UCSAMPGangZonePool@@$$BY03M$0EAA@$0A@V?$tuple@I@std@@@@UBE_NI@Z 100ca9f0 f i CServer.obj
 0002:00053aa0       ?IsValid@?$CBasicPool@UCTextDrawPool@@PAUCTextdraw@@$0IAA@$0CAAA@V?$tuple@I@std@@@@UBE_NI@Z 100caaa0 f i CServer.obj
 0002:00053b50       ?IsValid@?$CBasicPool@UCVehiclePool@@PAUCVehicle@@$0HNA@$0DPFE@VCVehicleData@@@@UBE_NI@Z 100cab50 f i CServer.obj
 0002:00053c00       ?IsValid@?$CBasicPool@VC3DTextPool@@UC3DText@@$0EAA@$0BAAA@V?$tuple@I@std@@@@UBE_NI@Z 100cac00 f i CServer.obj
 0002:00053cb0       ?IsValid@?$CSlotPerPlayerPool@UCObjectPool@@PAUCObject@@$0DOI@$0DOI@$0DNBIKA@$0A@V?$tuple@I@std@@@@UBE_NII@Z 100cacb0 f i CServer.obj
 0002:00053da0       ?IsValid@?$CSlotPool@UCActorPool@@PAUCActor@@$0DOI@$0BPEA@$0PKA@V?$tuple@I@std@@@@UBE_NI@Z 100cada0 f i CServer.obj
 0002:00053e70       ?IsValid@?$CSlotPool@UCMenuPool@@PAUCMenu@@$0IA@$0A@$0CAA@V?$tuple@I@std@@@@UBE_NI@Z 100cae70 f i CServer.obj
 0002:00053f30       ?IsValid@?$CSlotPool@UCObjectPool@@PAUCObject@@$0DOI@$0HKDBEA@$0HKCBKA@VCObjectData@@@@UBE_NI@Z 100caf30 f i CServer.obj
 0002:00054000       ?IsValid@?$CSlotPool@UCPickupPool@@UtPickup@@$0BAAA@$0A@$0BEAAA@V?$tuple@I@std@@@@UBE_NI@Z 100cb000 f i CServer.obj
 0002:000540c0       ?IsValid@?$CSlotPool@UCPlayerPool@@PAUCPlayer@@$0DOI@$0CFJJM@$0CEJPM@VCPlayerData@@@@UBE_NI@Z 100cb0c0 f i CServer.obj
 0002:00054190       ?IsValid@?$CSlotPool@UCSAMPGangZonePool@@$$BY03M$0EAA@$0A@$0EAAA@V?$tuple@I@std@@@@UBE_NI@Z 100cb190 f i CServer.obj
 0002:00054250       ?IsValid@?$CSlotPool@UCTextDrawPool@@PAUCTextdraw@@$0IAA@$0CAAA@$0A@V?$tuple@I@std@@@@UBE_NI@Z 100cb250 f i CServer.obj
 0002:00054310       ?IsValid@?$CSlotPool@UCVehiclePool@@PAUCVehicle@@$0HNA@$0DPFE@$0CABE@VCVehicleData@@@@UBE_NI@Z 100cb310 f i CServer.obj
 0002:000543e0       ?IsValid@?$CSlotPool@VC3DTextPool@@UC3DText@@$0EAA@$0BAAA@$0A@V?$tuple@I@std@@@@UBE_NI@Z 100cb3e0 f i CServer.obj
 0002:000544b0       ?TopIndex@?$CBoundedPool@UCActorPool@@PAUCActor@@$0DOI@$0BPEA@$0PKA@$0COOA@V?$tuple@I@std@@@@UBEIXZ 100cb4b0 f i CServer.obj
 0002:00054510       ?TopIndex@?$CBoundedPool@UCPlayerPool@@PAUCPlayer@@$0DOI@$0CFJJM@$0CEJPM@$0DAJGI@VCPlayerData@@@@UBEIXZ 100cb510 f i CServer.obj
 0002:00054570       ?TopIndex@?$CBoundedPool@UCVehiclePool@@PAUCVehicle@@$0HNA@$0DPFE@$0CABE@$0FOJE@VCVehicleData@@@@UBEIXZ 100cb570 f i CServer.obj
 0002:000545d0       ?TopIndex@?$CPerPlayerPoolBase@PAUCObject@@$0DOI@@@UBEII@Z 100cb5d0 f i CServer.obj
 0002:00054630       ?TopIndex@?$CPoolBase@$$BY03M$0EAA@@@UBEIXZ 100cb630 f i CServer.obj
 0002:00054690       ?TopIndex@?$CPoolBase@PAUCActor@@$0DOI@@@UBEIXZ 100cb690 f i CServer.obj
 0002:000546f0       ?TopIndex@?$CPoolBase@PAUCMenu@@$0IA@@@UBEIXZ 100cb6f0 f i CServer.obj
 0002:00054750       ?TopIndex@?$CPoolBase@PAUCObject@@$0DOI@@@UBEIXZ 100cb750 f i CServer.obj
 0002:000547b0       ?TopIndex@?$CPoolBase@PAUCPlayer@@$0DOI@@@UBEIXZ 100cb7b0 f i CServer.obj
 0002:00054810       ?TopIndex@?$CPoolBase@PAUCTextdraw@@$0IAA@@@UBEIXZ 100cb810 f i CServer.obj
 0002:00054870       ?TopIndex@?$CPoolBase@PAUCVehicle@@$0HNA@@@UBEIXZ 100cb870 f i CServer.obj
 0002:000548d0       ?TopIndex@?$CPoolBase@UC3DText@@$0EAA@@@UBEIXZ 100cb8d0 f i CServer.obj
 0002:00054930       ?TopIndex@?$CPoolBase@UtPickup@@$0BAAA@@@UBEIXZ 100cb930 f i CServer.obj
 0002:00054990       ?_Alloc_sentinel_and_proxy@?$list@U?$pair@$$CBIV?$tuple@I@std@@@std@@V?$allocator@U?$pair@$$CBIV?$tuple@I@std@@@std@@@2@@std@@AAEXXZ 100cb990 f i CServer.obj
 0002:00054b30       ?_Alloc_sentinel_and_proxy@?$list@U?$pair@$$CBIVCObjectData@@@std@@V?$allocator@U?$pair@$$CBIVCObjectData@@@std@@@2@@std@@AAEXXZ 100cbb30 f i CServer.obj
 0002:00054cd0       ?_Alloc_sentinel_and_proxy@?$list@U?$pair@$$CBIVCPlayerData@@@std@@V?$allocator@U?$pair@$$CBIVCPlayerData@@@std@@@2@@std@@AAEXXZ 100cbcd0 f i CServer.obj
 0002:00054e70       ?_Alloc_sentinel_and_proxy@?$list@U?$pair@$$CBIVCVehicleData@@@std@@V?$allocator@U?$pair@$$CBIVCVehicleData@@@std@@@2@@std@@AAEXXZ 100cbe70 f i CServer.obj
 0002:00055010       ?_Alloc_sentinel_and_proxy@?$list@U?$pair@$$CBU?$pair@II@std@@V?$tuple@I@2@@std@@V?$allocator@U?$pair@$$CBU?$pair@II@std@@V?$tuple@I@2@@std@@@2@@std@@AAEXXZ 100cc010 f i CServer.obj
 0002:000551b0       ?_Assign_grow@?$_Hash_vec@V?$allocator@V?$_List_unchecked_iterator@V?$_List_val@U?$_List_simple_types@U?$pair@$$CBIV?$tuple@I@std@@@std@@@std@@@std@@@std@@@std@@@std@@QAEXIV?$_List_unchecked_iterator@V?$_List_val@U?$_List_simple_types@U?$pair@$$CBIV?$tuple@I@std@@@std@@@std@@@std@@@2@@Z 100cc1b0 f i CServer.obj
 0002:000552e0       ?_Assign_grow@?$_Hash_vec@V?$allocator@V?$_List_unchecked_iterator@V?$_List_val@U?$_List_simple_types@U?$pair@$$CBIVCObjectData@@@std@@@std@@@std@@@std@@@std@@@std@@QAEXIV?$_List_unchecked_iterator@V?$_List_val@U?$_List_simple_types@U?$pair@$$CBIVCObjectData@@@std@@@std@@@std@@@2@@Z 100cc2e0 f i CServer.obj
 0002:00055410       ?_Assign_grow@?$_Hash_vec@V?$allocator@V?$_List_unchecked_iterator@V?$_List_val@U?$_List_simple_types@U?$pair@$$CBIVCVehicleData@@@std@@@std@@@std@@@std@@@std@@@std@@QAEXIV?$_List_unchecked_iterator@V?$_List_val@U?$_List_simple_types@U?$pair@$$CBIVCVehicleData@@@std@@@std@@@std@@@2@@Z 100cc410 f i CServer.obj
 0002:00055540       ?_Assign_grow@?$_Hash_vec@V?$allocator@V?$_List_unchecked_iterator@V?$_List_val@U?$_List_simple_types@U?$pair@$$CBU?$pair@II@std@@V?$tuple@I@2@@std@@@std@@@std@@@std@@@std@@@std@@QAEXIV?$_List_unchecked_iterator@V?$_List_val@U?$_List_simple_types@U?$pair@$$CBU?$pair@II@std@@V?$tuple@I@2@@std@@@std@@@std@@@2@@Z 100cc540 f i CServer.obj
 0002:00055670       ?_Get_first@?$_Compressed_pair@V?$allocator@U?$_List_node@U?$pair@$$CBIV?$tuple@I@std@@@std@@PAX@std@@@std@@V?$_List_val@U?$_List_simple_types@U?$pair@$$CBIV?$tuple@I@std@@@std@@@std@@@2@$00@std@@QAEAAV?$allocator@U?$_List_node@U?$pair@$$CBIV?$tuple@I@std@@@std@@PAX@std@@@2@XZ 100cc670 f i CServer.obj
 0002:000556d0       ?_Get_first@?$_Compressed_pair@V?$allocator@U?$_List_node@U?$pair@$$CBIVCObjectData@@@std@@PAX@std@@@std@@V?$_List_val@U?$_List_simple_types@U?$pair@$$CBIVCObjectData@@@std@@@std@@@2@$00@std@@QAEAAV?$allocator@U?$_List_node@U?$pair@$$CBIVCObjectData@@@std@@PAX@std@@@2@XZ 100cc6d0 f i CServer.obj
 0002:00055730       ?_Get_first@?$_Compressed_pair@V?$allocator@U?$_List_node@U?$pair@$$CBIVCVehicleData@@@std@@PAX@std@@@std@@V?$_List_val@U?$_List_simple_types@U?$pair@$$CBIVCVehicleData@@@std@@@std@@@2@$00@std@@QAEAAV?$allocator@U?$_List_node@U?$pair@$$CBIVCVehicleData@@@std@@PAX@std@@@2@XZ 100cc730 f i CServer.obj
 0002:00055790       ?_Get_first@?$_Compressed_pair@V?$allocator@U?$_List_node@U?$pair@$$CBU?$pair@II@std@@V?$tuple@I@2@@std@@PAX@std@@@std@@V?$_List_val@U?$_List_simple_types@U?$pair@$$CBU?$pair@II@std@@V?$tuple@I@2@@std@@@std@@@2@$00@std@@QAEAAV?$allocator@U?$_List_node@U?$pair@$$CBU?$pair@II@std@@V?$tuple@I@2@@std@@PAX@std@@@2@XZ 100cc790 f i CServer.obj
 0002:000557f0       ?_Get_first@?$_Compressed_pair@V?$allocator@V?$_List_unchecked_iterator@V?$_List_val@U?$_List_simple_types@U?$pair@$$CBIV?$tuple@I@std@@@std@@@std@@@std@@@std@@@std@@V?$_Vector_val@U?$_Simple_types@V?$_List_unchecked_iterator@V?$_List_val@U?$_List_simple_types@U?$pair@$$CBIV?$tuple@I@std@@@std@@@std@@@std@@@std@@@std@@@2@$00@std@@QAEAAV?$allocator@V?$_List_unchecked_iterator@V?$_List_val@U?$_List_simple_types@U?$pair@$$CBIV?$tuple@I@std@@@std@@@std@@@std@@@std@@@2@XZ 100cc7f0 f i CServer.obj
 0002:00055850       ?_Get_first@?$_Compressed_pair@V?$allocator@V?$_List_unchecked_iterator@V?$_List_val@U?$_List_simple_types@U?$pair@$$CBIVCObjectData@@@std@@@std@@@std@@@std@@@std@@V?$_Vector_val@U?$_Simple_types@V?$_List_unchecked_iterator@V?$_List_val@U?$_List_simple_types@U?$pair@$$CBIVCObjectData@@@std@@@std@@@std@@@std@@@std@@@2@$00@std@@QAEAAV?$allocator@V?$_List_unchecked_iterator@V?$_List_val@U?$_List_simple_types@U?$pair@$$CBIVCObjectData@@@std@@@std@@@std@@@std@@@2@XZ 100cc850 f i CServer.obj
 0002:000558b0       ?_Get_first@?$_Compressed_pair@V?$allocator@V?$_List_unchecked_iterator@V?$_List_val@U?$_List_simple_types@U?$pair@$$CBIVCVehicleData@@@std@@@std@@@std@@@std@@@std@@V?$_Vector_val@U?$_Simple_types@V?$_List_unchecked_iterator@V?$_List_val@U?$_List_simple_types@U?$pair@$$CBIVCVehicleData@@@std@@@std@@@std@@@std@@@std@@@2@$00@std@@QAEAAV?$allocator@V?$_List_unchecked_iterator@V?$_List_val@U?$_List_simple_types@U?$pair@$$CBIVCVehicleData@@@std@@@std@@@std@@@std@@@2@XZ 100cc8b0 f i CServer.obj
 0002:00055910       ?_Get_first@?$_Compressed_pair@V?$allocator@V?$_List_unchecked_iterator@V?$_List_val@U?$_List_simple_types@U?$pair@$$CBU?$pair@II@std@@V?$tuple@I@2@@std@@@std@@@std@@@std@@@std@@V?$_Vector_val@U?$_Simple_types@V?$_List_unchecked_iterator@V?$_List_val@U?$_List_simple_types@U?$pair@$$CBU?$pair@II@std@@V?$tuple@I@2@@std@@@std@@@std@@@std@@@std@@@2@$00@std@@QAEAAV?$allocator@V?$_List_unchecked_iterator@V?$_List_val@U?$_List_simple_types@U?$pair@$$CBU?$pair@II@std@@V?$tuple@I@2@@std@@@std@@@std@@@std@@@2@XZ 100cc910 f i CServer.obj
 0002:00055970       ?_Get_max_bucket_size@?$_Uhash_compare@IU?$hash@I@std@@U?$equal_to@I@2@@std@@QAEAAMXZ 100cc970 f i CServer.obj
 0002:000559d0       ?_Get_max_bucket_size@?$_Uhash_compare@U?$pair@II@std@@Upair_hash@aux@@U?$equal_to@U?$pair@II@std@@@2@@std@@QAEAAMXZ 100cc9d0 f i CServer.obj
 0002:00055a30       ?_Getal@?$list@U?$pair@$$CBIV?$tuple@I@std@@@std@@V?$allocator@U?$pair@$$CBIV?$tuple@I@std@@@std@@@2@@std@@AAEAAV?$allocator@U?$_List_node@U?$pair@$$CBIV?$tuple@I@std@@@std@@PAX@std@@@2@XZ 100cca30 f i CServer.obj
 0002:00055a90       ?_Getal@?$list@U?$pair@$$CBIVCObjectData@@@std@@V?$allocator@U?$pair@$$CBIVCObjectData@@@std@@@2@@std@@AAEAAV?$allocator@U?$_List_node@U?$pair@$$CBIVCObjectData@@@std@@PAX@std@@@2@XZ 100cca90 f i CServer.obj
 0002:00055af0       ?_Getal@?$list@U?$pair@$$CBIVCVehicleData@@@std@@V?$allocator@U?$pair@$$CBIVCVehicleData@@@std@@@2@@std@@AAEAAV?$allocator@U?$_List_node@U?$pair@$$CBIVCVehicleData@@@std@@PAX@std@@@2@XZ 100ccaf0 f i CServer.obj
 0002:00055b50       ?_Getal@?$list@U?$pair@$$CBU?$pair@II@std@@V?$tuple@I@2@@std@@V?$allocator@U?$pair@$$CBU?$pair@II@std@@V?$tuple@I@2@@std@@@2@@std@@AAEAAV?$allocator@U?$_List_node@U?$pair@$$CBU?$pair@II@std@@V?$tuple@I@2@@std@@PAX@std@@@2@XZ 100ccb50 f i CServer.obj
 0002:00055bb0       ?_Max_bucket_size@?$_Hash@V?$_Umap_traits@IV?$tuple@I@std@@V?$_Uhash_compare@IU?$hash@I@std@@U?$equal_to@I@2@@2@V?$allocator@U?$pair@$$CBIV?$tuple@I@std@@@std@@@2@$0A@@std@@@std@@IAEAAMXZ 100ccbb0 f i CServer.obj
 0002:00055c10       ?_Max_bucket_size@?$_Hash@V?$_Umap_traits@IVCObjectData@@V?$_Uhash_compare@IU?$hash@I@std@@U?$equal_to@I@2@@std@@V?$allocator@U?$pair@$$CBIVCObjectData@@@std@@@3@$0A@@std@@@std@@IAEAAMXZ 100ccc10 f i CServer.obj
 0002:00055c70       ?_Max_bucket_size@?$_Hash@V?$_Umap_traits@IVCPlayerData@@V?$_Uhash_compare@IU?$hash@I@std@@U?$equal_to@I@2@@std@@V?$allocator@U?$pair@$$CBIVCPlayerData@@@std@@@3@$0A@@std@@@std@@IAEAAMXZ 100ccc70 f i CServer.obj
 0002:00055cd0       ?_Max_bucket_size@?$_Hash@V?$_Umap_traits@IVCVehicleData@@V?$_Uhash_compare@IU?$hash@I@std@@U?$equal_to@I@2@@std@@V?$allocator@U?$pair@$$CBIVCVehicleData@@@std@@@3@$0A@@std@@@std@@IAEAAMXZ 100cccd0 f i CServer.obj
 0002:00055d30       ?_Max_bucket_size@?$_Hash@V?$_Umap_traits@U?$pair@II@std@@V?$tuple@I@2@V?$_Uhash_compare@U?$pair@II@std@@Upair_hash@aux@@U?$equal_to@U?$pair@II@std@@@2@@2@V?$allocator@U?$pair@$$CBU?$pair@II@std@@V?$tuple@I@2@@std@@@2@$0A@@std@@@std@@IAEAAMXZ 100ccd30 f i CServer.obj
 0002:00055d90       ?_Release@?$_Uninitialized_backout@PAV?$_List_unchecked_iterator@V?$_List_val@U?$_List_simple_types@U?$pair@$$CBIV?$tuple@I@std@@@std@@@std@@@std@@@std@@@std@@QAEPAV?$_List_unchecked_iterator@V?$_List_val@U?$_List_simple_types@U?$pair@$$CBIV?$tuple@I@std@@@std@@@std@@@std@@@2@XZ 100ccd90 f i CServer.obj
 0002:00055e00       ?_Release@?$_Uninitialized_backout@PAV?$_List_unchecked_iterator@V?$_List_val@U?$_List_simple_types@U?$pair@$$CBIVCObjectData@@@std@@@std@@@std@@@std@@@std@@QAEPAV?$_List_unchecked_iterator@V?$_List_val@U?$_List_simple_types@U?$pair@$$CBIVCObjectData@@@std@@@std@@@std@@@2@XZ 100cce00 f i CServer.obj
 0002:00055e70       ?_Release@?$_Uninitialized_backout@PAV?$_List_unchecked_iterator@V?$_List_val@U?$_List_simple_types@U?$pair@$$CBIVCVehicleData@@@std@@@std@@@std@@@std@@@std@@QAEPAV?$_List_unchecked_iterator@V?$_List_val@U?$_List_simple_types@U?$pair@$$CBIVCVehicleData@@@std@@@std@@@std@@@2@XZ 100cce70 f i CServer.obj
 0002:00055ee0       ?_Release@?$_Uninitialized_backout@PAV?$_List_unchecked_iterator@V?$_List_val@U?$_List_simple_types@U?$pair@$$CBU?$pair@II@std@@V?$tuple@I@2@@std@@@std@@@std@@@std@@@std@@QAEPAV?$_List_unchecked_iterator@V?$_List_val@U?$_List_simple_types@U?$pair@$$CBU?$pair@II@std@@V?$tuple@I@2@@std@@@std@@@std@@@2@XZ 100ccee0 f i CServer.obj
 0002:00055f50       ?_Tidy@?$_Hash_vec@V?$allocator@V?$_List_unchecked_iterator@V?$_List_val@U?$_List_simple_types@U?$pair@$$CBIV?$tuple@I@std@@@std@@@std@@@std@@@std@@@std@@@std@@QAEXXZ 100ccf50 f i CServer.obj
 0002:00056040       ?_Tidy@?$_Hash_vec@V?$allocator@V?$_List_unchecked_iterator@V?$_List_val@U?$_List_simple_types@U?$pair@$$CBIVCObjectData@@@std@@@std@@@std@@@std@@@std@@@std@@QAEXXZ 100cd040 f i CServer.obj
 0002:00056130       ?_Tidy@?$_Hash_vec@V?$allocator@V?$_List_unchecked_iterator@V?$_List_val@U?$_List_simple_types@U?$pair@$$CBIVCPlayerData@@@std@@@std@@@std@@@std@@@std@@@std@@QAEXXZ 100cd130 f i CServer.obj
 0002:00056220       ?_Tidy@?$_Hash_vec@V?$allocator@V?$_List_unchecked_iterator@V?$_List_val@U?$_List_simple_types@U?$pair@$$CBIVCVehicleData@@@std@@@std@@@std@@@std@@@std@@@std@@QAEXXZ 100cd220 f i CServer.obj
 0002:00056310       ?_Tidy@?$_Hash_vec@V?$allocator@V?$_List_unchecked_iterator@V?$_List_val@U?$_List_simple_types@U?$pair@$$CBU?$pair@II@std@@V?$tuple@I@2@@std@@@std@@@std@@@std@@@std@@@std@@QAEXXZ 100cd310 f i CServer.obj
 0002:00056400       ?_Tidy@?$list@U?$pair@$$CBIV?$tuple@I@std@@@std@@V?$allocator@U?$pair@$$CBIV?$tuple@I@std@@@std@@@2@@std@@AAEXXZ 100cd400 f i CServer.obj
 0002:000564a0       ?_Tidy@?$list@U?$pair@$$CBIVCObjectData@@@std@@V?$allocator@U?$pair@$$CBIVCObjectData@@@std@@@2@@std@@AAEXXZ 100cd4a0 f i CServer.obj
 0002:00056540       ?_Tidy@?$list@U?$pair@$$CBIVCPlayerData@@@std@@V?$allocator@U?$pair@$$CBIVCPlayerData@@@std@@@2@@std@@AAEXXZ 100cd540 f i CServer.obj
 0002:000565e0       ?_Tidy@?$list@U?$pair@$$CBIVCVehicleData@@@std@@V?$allocator@U?$pair@$$CBIVCVehicleData@@@std@@@2@@std@@AAEXXZ 100cd5e0 f i CServer.obj
 0002:00056680       ?_Tidy@?$list@U?$pair@$$CBU?$pair@II@std@@V?$tuple@I@2@@std@@V?$allocator@U?$pair@$$CBU?$pair@II@std@@V?$tuple@I@2@@std@@@2@@std@@AAEXXZ 100cd680 f i CServer.obj
 0002:00056720       ?_Unchecked_end@?$list@U?$pair@$$CBIV?$tuple@I@std@@@std@@V?$allocator@U?$pair@$$CBIV?$tuple@I@std@@@std@@@2@@std@@QAE?AV?$_List_unchecked_iterator@V?$_List_val@U?$_List_simple_types@U?$pair@$$CBIV?$tuple@I@std@@@std@@@std@@@std@@@2@XZ 100cd720 f i CServer.obj
 0002:00056790       ?_Unchecked_end@?$list@U?$pair@$$CBIVCObjectData@@@std@@V?$allocator@U?$pair@$$CBIVCObjectData@@@std@@@2@@std@@QAE?AV?$_List_unchecked_iterator@V?$_List_val@U?$_List_simple_types@U?$pair@$$CBIVCObjectData@@@std@@@std@@@std@@@2@XZ 100cd790 f i CServer.obj
 0002:00056800       ?_Unchecked_end@?$list@U?$pair@$$CBIVCVehicleData@@@std@@V?$allocator@U?$pair@$$CBIVCVehicleData@@@std@@@2@@std@@QAE?AV?$_List_unchecked_iterator@V?$_List_val@U?$_List_simple_types@U?$pair@$$CBIVCVehicleData@@@std@@@std@@@std@@@2@XZ 100cd800 f i CServer.obj
 0002:00056870       ?_Unchecked_end@?$list@U?$pair@$$CBU?$pair@II@std@@V?$tuple@I@2@@std@@V?$allocator@U?$pair@$$CBU?$pair@II@std@@V?$tuple@I@2@@std@@@2@@std@@QAE?AV?$_List_unchecked_iterator@V?$_List_val@U?$_List_simple_types@U?$pair@$$CBU?$pair@II@std@@V?$tuple@I@2@@std@@@std@@@std@@@2@XZ 100cd870 f i CServer.obj
 0002:000568e0       ?allocate@?$allocator@U?$_List_node@U?$pair@$$CBIV?$tuple@I@std@@@std@@PAX@std@@@std@@QAEPAU?$_List_node@U?$pair@$$CBIV?$tuple@I@std@@@std@@PAX@2@I@Z 100cd8e0 f i CServer.obj
 0002:00056950       ?allocate@?$allocator@U?$_List_node@U?$pair@$$CBIVCObjectData@@@std@@PAX@std@@@std@@QAEPAU?$_List_node@U?$pair@$$CBIVCObjectData@@@std@@PAX@2@I@Z 100cd950 f i CServer.obj
 0002:000569c0       ?allocate@?$allocator@U?$_List_node@U?$pair@$$CBIVCVehicleData@@@std@@PAX@std@@@std@@QAEPAU?$_List_node@U?$pair@$$CBIVCVehicleData@@@std@@PAX@2@I@Z 100cd9c0 f i CServer.obj
 0002:00056a30       ?allocate@?$allocator@U?$_List_node@U?$pair@$$CBU?$pair@II@std@@V?$tuple@I@2@@std@@PAX@std@@@std@@QAEPAU?$_List_node@U?$pair@$$CBU?$pair@II@std@@V?$tuple@I@2@@std@@PAX@2@I@Z 100cda30 f i CServer.obj
 0002:00056aa0       ?allocate@?$allocator@V?$_List_unchecked_iterator@V?$_List_val@U?$_List_simple_types@U?$pair@$$CBIV?$tuple@I@std@@@std@@@std@@@std@@@std@@@std@@QAEPAV?$_List_unchecked_iterator@V?$_List_val@U?$_List_simple_types@U?$pair@$$CBIV?$tuple@I@std@@@std@@@std@@@std@@@2@I@Z 100cdaa0 f i CServer.obj
 0002:00056b10       ?allocate@?$allocator@V?$_List_unchecked_iterator@V?$_List_val@U?$_List_simple_types@U?$pair@$$CBIVCObjectData@@@std@@@std@@@std@@@std@@@std@@QAEPAV?$_List_unchecked_iterator@V?$_List_val@U?$_List_simple_types@U?$pair@$$CBIVCObjectData@@@std@@@std@@@std@@@2@I@Z 100cdb10 f i CServer.obj
 0002:00056b80       ?allocate@?$allocator@V?$_List_unchecked_iterator@V?$_List_val@U?$_List_simple_types@U?$pair@$$CBIVCVehicleData@@@std@@@std@@@std@@@std@@@std@@QAEPAV?$_List_unchecked_iterator@V?$_List_val@U?$_List_simple_types@U?$pair@$$CBIVCVehicleData@@@std@@@std@@@std@@@2@I@Z 100cdb80 f i CServer.obj
 0002:00056bf0       ?allocate@?$allocator@V?$_List_unchecked_iterator@V?$_List_val@U?$_List_simple_types@U?$pair@$$CBU?$pair@II@std@@V?$tuple@I@2@@std@@@std@@@std@@@std@@@std@@QAEPAV?$_List_unchecked_iterator@V?$_List_val@U?$_List_simple_types@U?$pair@$$CBU?$pair@II@std@@V?$tuple@I@2@@std@@@std@@@std@@@2@I@Z 100cdbf0 f i CServer.obj
 0002:00056c60       ?call@?$is_null_t@$$BY03M@aux@@SA_NAAY03$$CBM@Z 100cdc60 f i CServer.obj
 0002:00056cb0       ?call@?$is_null_t@PAUCActor@@@aux@@SA_NABQAUCActor@@@Z 100cdcb0 f i CServer.obj
 0002:00056d30       ?call@?$is_null_t@PAUCMenu@@@aux@@SA_NABQAUCMenu@@@Z 100cdd30 f i CServer.obj
 0002:00056db0       ?call@?$is_null_t@PAUCObject@@@aux@@SA_NABQAUCObject@@@Z 100cddb0 f i CServer.obj
 0002:00056e30       ?call@?$is_null_t@PAUCPlayer@@@aux@@SA_NABQAUCPlayer@@@Z 100cde30 f i CServer.obj
 0002:00056eb0       ?call@?$is_null_t@PAUCTextdraw@@@aux@@SA_NABQAUCTextdraw@@@Z 100cdeb0 f i CServer.obj
 0002:00056f30       ?call@?$is_null_t@PAUCVehicle@@@aux@@SA_NABQAUCVehicle@@@Z 100cdf30 f i CServer.obj
 0002:00056fb0       ?call@?$is_null_t@UC3DText@@@aux@@SA_NABUC3DText@@@Z 100cdfb0 f i CServer.obj
 0002:00057000       ?call@?$is_null_t@UtPickup@@@aux@@SA_NABUtPickup@@@Z 100ce000 f i CServer.obj
 0002:00057050       ?deallocate@?$_Default_allocator_traits@V?$allocator@U?$_List_node@U?$pair@$$CBIV?$tuple@I@std@@@std@@PAX@std@@@std@@@std@@SAXAAV?$allocator@U?$_List_node@U?$pair@$$CBIV?$tuple@I@std@@@std@@PAX@std@@@2@QAU?$_List_node@U?$pair@$$CBIV?$tuple@I@std@@@std@@PAX@2@I@Z 100ce050 f i CServer.obj
 0002:000570b0       ?deallocate@?$_Default_allocator_traits@V?$allocator@U?$_List_node@U?$pair@$$CBIVCObjectData@@@std@@PAX@std@@@std@@@std@@SAXAAV?$allocator@U?$_List_node@U?$pair@$$CBIVCObjectData@@@std@@PAX@std@@@2@QAU?$_List_node@U?$pair@$$CBIVCObjectData@@@std@@PAX@2@I@Z 100ce0b0 f i CServer.obj
 0002:00057110       ?deallocate@?$_Default_allocator_traits@V?$allocator@U?$_List_node@U?$pair@$$CBIVCVehicleData@@@std@@PAX@std@@@std@@@std@@SAXAAV?$allocator@U?$_List_node@U?$pair@$$CBIVCVehicleData@@@std@@PAX@std@@@2@QAU?$_List_node@U?$pair@$$CBIVCVehicleData@@@std@@PAX@2@I@Z 100ce110 f i CServer.obj
 0002:00057170       ?deallocate@?$_Default_allocator_traits@V?$allocator@U?$_List_node@U?$pair@$$CBU?$pair@II@std@@V?$tuple@I@2@@std@@PAX@std@@@std@@@std@@SAXAAV?$allocator@U?$_List_node@U?$pair@$$CBU?$pair@II@std@@V?$tuple@I@2@@std@@PAX@std@@@2@QAU?$_List_node@U?$pair@$$CBU?$pair@II@std@@V?$tuple@I@2@@std@@PAX@2@I@Z 100ce170 f i CServer.obj
 0002:000571d0       ?deallocate@?$allocator@V?$_List_unchecked_iterator@V?$_List_val@U?$_List_simple_types@U?$pair@$$CBIV?$tuple@I@std@@@std@@@std@@@std@@@std@@@std@@QAEXQAV?$_List_unchecked_iterator@V?$_List_val@U?$_List_simple_types@U?$pair@$$CBIV?$tuple@I@std@@@std@@@std@@@std@@@2@I@Z 100ce1d0 f i CServer.obj
 0002:00057240       ?deallocate@?$allocator@V?$_List_unchecked_iterator@V?$_List_val@U?$_List_simple_types@U?$pair@$$CBIVCObjectData@@@std@@@std@@@std@@@std@@@std@@QAEXQAV?$_List_unchecked_iterator@V?$_List_val@U?$_List_simple_types@U?$pair@$$CBIVCObjectData@@@std@@@std@@@std@@@2@I@Z 100ce240 f i CServer.obj
 0002:000572b0       ?deallocate@?$allocator@V?$_List_unchecked_iterator@V?$_List_val@U?$_List_simple_types@U?$pair@$$CBIVCVehicleData@@@std@@@std@@@std@@@std@@@std@@QAEXQAV?$_List_unchecked_iterator@V?$_List_val@U?$_List_simple_types@U?$pair@$$CBIVCVehicleData@@@std@@@std@@@std@@@2@I@Z 100ce2b0 f i CServer.obj
 0002:00057320       ?deallocate@?$allocator@V?$_List_unchecked_iterator@V?$_List_val@U?$_List_simple_types@U?$pair@$$CBU?$pair@II@std@@V?$tuple@I@2@@std@@@std@@@std@@@std@@@std@@QAEXQAV?$_List_unchecked_iterator@V?$_List_val@U?$_List_simple_types@U?$pair@$$CBU?$pair@II@std@@V?$tuple@I@2@@std@@@std@@@std@@@2@I@Z 100ce320 f i CServer.obj
 0002:00057390       ?size@?$_Hash_vec@V?$allocator@V?$_List_unchecked_iterator@V?$_List_val@U?$_List_simple_types@U?$pair@$$CBIV?$tuple@I@std@@@std@@@std@@@std@@@std@@@std@@@std@@QBEIXZ 100ce390 f i CServer.obj
 0002:000573f0       ?size@?$_Hash_vec@V?$allocator@V?$_List_unchecked_iterator@V?$_List_val@U?$_List_simple_types@U?$pair@$$CBIVCObjectData@@@std@@@std@@@std@@@std@@@std@@@std@@QBEIXZ 100ce3f0 f i CServer.obj
 0002:00057450       ?size@?$_Hash_vec@V?$allocator@V?$_List_unchecked_iterator@V?$_List_val@U?$_List_simple_types@U?$pair@$$CBIVCVehicleData@@@std@@@std@@@std@@@std@@@std@@@std@@QBEIXZ 100ce450 f i CServer.obj
 0002:000574b0       ?size@?$_Hash_vec@V?$allocator@V?$_List_unchecked_iterator@V?$_List_val@U?$_List_simple_types@U?$pair@$$CBU?$pair@II@std@@V?$tuple@I@2@@std@@@std@@@std@@@std@@@std@@@std@@QBEIXZ 100ce4b0 f i CServer.obj
 0002:00057510       ??0CVehicleData@@QAE@G@Z   100ce510 f   CVehicleData.obj
 0002:000575c0       ??$?0$$V@?$_Compressed_pair@V?$allocator@_W@std@@V?$_String_val@U?$_Simple_types@_W@std@@@2@$00@std@@QAE@U_Zero_then_variadic_args_t@1@@Z 100ce5c0 f i CScriptParams.obj
 0002:00057630       ??$?0ABV?$allocator@D@std@@$$V@?$_Compressed_pair@V?$allocator@D@std@@V?$_String_val@U?$_Simple_types@D@std@@@2@$00@std@@QAE@U_One_then_variadic_args_t@1@ABV?$allocator@D@1@@Z 100ce630 f i CScriptParams.obj
 0002:000576a0       ??$?0_W@?$allocator@U_Container_proxy@std@@@std@@QAE@ABV?$allocator@_W@1@@Z 100ce6a0 f i CScriptParams.obj
 0002:00057700       ??$?9VCPlugin@@U?$default_delete@VCPlugin@@@std@@@std@@YA_NABV?$unique_ptr@VCPlugin@@U?$default_delete@VCPlugin@@@std@@@0@$$T@Z 100ce700 f i CScriptParams.obj
 0002:00057790       ??$?RAADAAD@?$equal_to@X@std@@QBE_NAAD0@Z 100ce790 f i CScriptParams.obj
 0002:00057820       ??$_Adl_verify_range@V?$_String_iterator@V?$_String_val@U?$_Simple_types@D@std@@@std@@@std@@V12@@std@@YAXABV?$_String_iterator@V?$_String_val@U?$_Simple_types@D@std@@@std@@@0@0@Z 100ce820 f i CScriptParams.obj
 0002:00057880       ??$_Construct_in_place@PA_WAAPA_W@std@@YAXAAPA_W0@Z 100ce880 f i CScriptParams.obj
 0002:00057920       ??$_Construct_in_place@PA_WABQA_W@std@@YAXAAPA_WABQA_W@Z 100ce920 f i CScriptParams.obj
 0002:000579c0       ??$_Destroy_in_place@PA_W@std@@YAXAAPA_W@Z 100ce9c0 f i CScriptParams.obj
 0002:00057a10       ??$_Get_size_of_n@$01@std@@YAII@Z 100cea10 f i CScriptParams.obj
 0002:00057a80       ??$_Get_unwrapped@ABV?$_String_iterator@V?$_String_val@U?$_Simple_types@D@std@@@std@@@std@@@std@@YA?A_TABV?$_String_iterator@V?$_String_val@U?$_Simple_types@D@std@@@std@@@0@@Z 100cea80 f i CScriptParams.obj
 0002:00057ad0       ??$_Get_unwrapped_n@ABV?$_String_iterator@V?$_String_val@U?$_Simple_types@D@std@@@std@@@std@@H@std@@YA?A_TABV?$_String_iterator@V?$_String_val@U?$_Simple_types@D@std@@@std@@@0@H@Z 100cead0 f i CScriptParams.obj
 0002:00057bd0       ??$_Idl_distance@V?$_String_iterator@V?$_String_val@U?$_Simple_types@D@std@@@std@@@std@@PAD@std@@YA?A_PABQAD0@Z 100cebd0 f i CScriptParams.obj
 0002:00057c20       ??$_Memcmp_ranges@PADPAD@std@@YAHPAD00@Z 100cec20 f i CScriptParams.obj
 0002:00057cc0       ??$_Pocma@V?$allocator@D@std@@@std@@YAXAAV?$allocator@D@0@0@Z 100cecc0 f i CScriptParams.obj
 0002:00057d20       ??$_Pocma@V?$allocator@_W@std@@@std@@YAXAAV?$allocator@_W@0@0@Z 100ced20 f i CScriptParams.obj
 0002:00057d80       ??$_Reallocate_for@V<lambda_c6753c90be971fc9cc00b4f35f237a75>@@D@?$basic_string@DU?$char_traits@D@std@@V?$allocator@D@2@@std@@AAEAAV01@IV<lambda_c6753c90be971fc9cc00b4f35f237a75>@@D@Z 100ced80 f i CScriptParams.obj
 0002:00057f00       ??$_Reallocate_for@V<lambda_ce475b7b8bd67a606e496821c303ff69>@@_W@?$basic_string@_WU?$char_traits@_W@std@@V?$allocator@_W@2@@std@@AAEAAV01@IV<lambda_ce475b7b8bd67a606e496821c303ff69>@@_W@Z 100cef00 f i CScriptParams.obj
 0002:00058080       ??$_Refancy@PAD$0A@@std@@YAPADPAD@Z 100cf080 f i CScriptParams.obj
 0002:000580d0       ??$_To_address@PAD@std@@YA?A_PABQAD@Z 100cf0d0 f i CScriptParams.obj
 0002:00058120       ??$_Unfancy@_W@std@@YAPA_WPA_W@Z 100cf120 f i CScriptParams.obj
 0002:00058170       ??$_Voidify_iter@PAPA_W@std@@YAPAXPAPA_W@Z 100cf170 f i CScriptParams.obj
 0002:000581c0       ??$addressof@$$CBV?$_String_val@U?$_Simple_types@_W@std@@@std@@@std@@YAPBV?$_String_val@U?$_Simple_types@_W@std@@@0@ABV10@@Z 100cf1c0 f i CScriptParams.obj
 0002:00058210       ??$addressof@PA_W@std@@YAPAPA_WAAPA_W@Z 100cf210 f i CScriptParams.obj
 0002:00058260       ??$addressof@V?$_String_val@U?$_Simple_types@_W@std@@@std@@@std@@YAPAV?$_String_val@U?$_Simple_types@_W@std@@@0@AAV10@@Z 100cf260 f i CScriptParams.obj
 0002:000582b0       ??$addressof@V?$basic_string@_WU?$char_traits@_W@std@@V?$allocator@_W@2@@std@@@std@@YAPAV?$basic_string@_WU?$char_traits@_W@std@@V?$allocator@_W@2@@0@AAV10@@Z 100cf2b0 f i CScriptParams.obj
 0002:00058300       ??$equal@V?$_String_iterator@V?$_String_val@U?$_Simple_types@D@std@@@std@@@std@@V12@@std@@YA_NV?$_String_iterator@V?$_String_val@U?$_Simple_types@D@std@@@std@@@0@00@Z 100cf300 f i CScriptParams.obj
 0002:00058440       ??$equal@V?$_String_iterator@V?$_String_val@U?$_Simple_types@D@std@@@std@@@std@@V12@U?$equal_to@X@2@@std@@YA_NV?$_String_iterator@V?$_String_val@U?$_Simple_types@D@std@@@std@@@0@00U?$equal_to@X@0@@Z 100cf440 f i CScriptParams.obj
 0002:000586d0       ??$forward@AAPA_W@std@@YAAAPA_WAAPA_W@Z 100cf6d0 f i CScriptParams.obj
 0002:00058720       ??$forward@ABQA_W@std@@YAABQA_WABQA_W@Z 100cf720 f i CScriptParams.obj
 0002:00058770       ??$forward@ABV?$allocator@D@std@@@std@@YAABV?$allocator@D@0@ABV10@@Z 100cf770 f i CScriptParams.obj
 0002:000587c0       ??$move@AAV?$allocator@_W@std@@@std@@YA$$QAV?$allocator@_W@0@AAV10@@Z 100cf7c0 f i CScriptParams.obj
 0002:00058810       ??$move@V?$basic_string@DU?$char_traits@D@std@@V?$allocator@D@2@@std@@@std@@YA$$QAV?$basic_string@DU?$char_traits@D@std@@V?$allocator@D@2@@0@$$QAV10@@Z 100cf810 f i CScriptParams.obj
 0002:00058860       ??0?$CSingleton@VCScriptParams@@@@QAE@XZ 100cf860 f i CScriptParams.obj
 0002:000588c0       ??0?$_String_iterator@V?$_String_val@U?$_Simple_types@D@std@@@std@@@std@@QAE@ABV01@@Z 100cf8c0 f i CScriptParams.obj
 0002:00058920       ??0?$_String_iterator@V?$_String_val@U?$_Simple_types@D@std@@@std@@@std@@QAE@PBDPBU_Container_base12@1@@Z 100cf920 f i CScriptParams.obj
 0002:00058980       ??0?$_String_val@U?$_Simple_types@_W@std@@@std@@QAE@XZ 100cf980 f i CScriptParams.obj
 0002:00058a10       ??0?$allocator@_W@std@@QAE@XZ 100cfa10 f i CScriptParams.obj
 0002:00058a70       ??0?$basic_string@DU?$char_traits@D@std@@V?$allocator@D@2@@std@@QAE@ABV01@IIABV?$allocator@D@1@@Z 100cfa70 f i CScriptParams.obj
 0002:00058bf0       ??0?$basic_string@DU?$char_traits@D@std@@V?$allocator@D@2@@std@@QAE@ID@Z 100cfbf0 f i CScriptParams.obj
 0002:00058d60       ??0?$basic_string@DU?$char_traits@D@std@@V?$allocator@D@2@@std@@QAE@XZ 100cfd60 f i CScriptParams.obj
 0002:00058e30       ??0?$basic_string@_WU?$char_traits@_W@std@@V?$allocator@_W@2@@std@@QAE@I_W@Z 100cfe30 f i CScriptParams.obj
 0002:00058fa0       ??0CScriptParams@@QAE@XZ   100cffa0 f   CScriptParams.obj
 0002:00059020       ??0_Bxty@?$_String_val@U?$_Simple_types@_W@std@@@std@@QAE@XZ 100d0020 f i CScriptParams.obj
 0002:00059080       ??1?$CSingleton@VCScriptParams@@@@UAE@XZ 100d0080 f i CScriptParams.obj
 0002:000590e0       ??1?$_Compressed_pair@V?$allocator@_W@std@@V?$_String_val@U?$_Simple_types@_W@std@@@2@$00@std@@QAE@XZ 100d00e0 f i CScriptParams.obj
 0002:00059130       ??1?$_String_iterator@V?$_String_val@U?$_Simple_types@D@std@@@std@@@std@@QAE@XZ 100d0130 f i CScriptParams.obj
 0002:00059180       ??1?$_String_val@U?$_Simple_types@_W@std@@@std@@QAE@XZ 100d0180 f i CScriptParams.obj
 0002:000591d0       ??1?$basic_string@_WU?$char_traits@_W@std@@V?$allocator@_W@2@@std@@QAE@XZ 100d01d0 f i CScriptParams.obj
 0002:000592b0       ??1CScriptParams@@UAE@XZ   100d02b0 f i CScriptParams.obj
 0002:00059320       ??1_Bxty@?$_String_val@U?$_Simple_types@_W@std@@@std@@QAE@XZ 100d0320 f i CScriptParams.obj
 0002:00059370       ??4?$basic_string@DU?$char_traits@D@std@@V?$allocator@D@2@@std@@QAEAAV01@$$QAV01@@Z 100d0370 f i CScriptParams.obj
 0002:00059400       ??4?$basic_string@_WU?$char_traits@_W@std@@V?$allocator@_W@2@@std@@QAEAAV01@$$QAV01@@Z 100d0400 f i CScriptParams.obj
 0002:00059490       ??A?$basic_string@DU?$char_traits@D@std@@V?$allocator@D@2@@std@@QAEAADI@Z 100d0490 f i CScriptParams.obj
 0002:00059580       ??A?$basic_string@_WU?$char_traits@_W@std@@V?$allocator@_W@2@@std@@QAEAA_WI@Z 100d0580 f i CScriptParams.obj
 0002:00059670       ??R<lambda_c6753c90be971fc9cc00b4f35f237a75>@@QBE@QADID@Z 100d0670 f i CScriptParams.obj
 0002:00059700       ??R<lambda_ce475b7b8bd67a606e496821c303ff69>@@QBE@QA_WI_W@Z 100d0700 f i CScriptParams.obj
 0002:000597a0       ??_G?$CSingleton@VCScriptParams@@@@UAEPAXI@Z 100d07a0 f i CScriptParams.obj
 0002:000597a0       ??_E?$CSingleton@VCScriptParams@@@@UAEPAXI@Z 100d07a0 f i CScriptParams.obj
 0002:00059810       ??_ECScriptParams@@UAEPAXI@Z 100d0810 f i CScriptParams.obj
 0002:00059810       ??_GCScriptParams@@UAEPAXI@Z 100d0810 f i CScriptParams.obj
 0002:00059880       ?AddInternal@CScriptParams@@AAEXABV?$basic_string@DU?$char_traits@D@std@@V?$allocator@D@2@@std@@@Z 100d0880 f   CScriptParams.obj
 0002:00059910       ?AddInternal@CScriptParams@@AAEXM@Z 100d0910 f   CScriptParams.obj
 0002:000599d0       ?AddInternal@CScriptParams@@AAEXN@Z 100d09d0 f   CScriptParams.obj
 0002:00059ab0       ?AddInternal@CScriptParams@@AAEXPBD@Z 100d0ab0 f   CScriptParams.obj
 0002:00059b40       ?AddInternal@CScriptParams@@AAEXVCVector2D@@@Z 100d0b40 f   CScriptParams.obj
 0002:00059c40       ?AddInternal@CScriptParams@@AAEXVCVector@@@Z 100d0c40 f   CScriptParams.obj
 0002:00059d70       ?DetectError@CScriptParams@@QAEXXZ 100d0d70 f   CScriptParams.obj
 0002:00059e70       ?HandleError@CScriptParams@@QAEHXZ 100d0e70 f   CScriptParams.obj
 0002:00059fa0       ?IsInitialized@?$CSingleton@VCPlugin@@@@SA_NXZ 100d0fa0 f i CScriptParams.obj
 0002:0005a000       ?ReadCell@CScriptParams@@AAEABHXZ 100d1000 f i CScriptParams.obj
 0002:0005a090       ?ReadInt@CScriptParams@@QAEHXZ 100d1090 f i CScriptParams.obj
 0002:0005a0f0       ?ReadInternal@CScriptParams@@AAEXAAM@Z 100d10f0 f   CScriptParams.obj
 0002:0005a160       ?ReadInternal@CScriptParams@@AAEXAAN@Z 100d1160 f   CScriptParams.obj
 0002:0005a1d0       ?ReadInternal@CScriptParams@@AAEXAAV?$basic_string@DU?$char_traits@D@std@@V?$allocator@D@2@@std@@@Z 100d11d0 f   CScriptParams.obj
 0002:0005a340       ?ReadInternal@CScriptParams@@AAEXAAV?$basic_string@_WU?$char_traits@_W@std@@V?$allocator@_W@2@@std@@@Z 100d1340 f   CScriptParams.obj
 0002:0005a4b0       ?ReadInternal@CScriptParams@@AAEXAAVCVector2D@@@Z 100d14b0 f   CScriptParams.obj
 0002:0005a530       ?ReadInternal@CScriptParams@@AAEXAAVCVector@@@Z 100d1530 f   CScriptParams.obj
 0002:0005a5c0       ?Setup@CScriptParams@@QAE_NI$$QAV?$basic_string@DU?$char_traits@D@std@@V?$allocator@D@2@@std@@W4Flags@1@PAUtagAMX@@PAHI@Z 100d15c0 f   CScriptParams.obj
 0002:0005a860       ?_Calculate_growth@?$basic_string@_WU?$char_traits@_W@std@@V?$allocator@_W@2@@std@@ABEII@Z 100d1860 f i CScriptParams.obj
 0002:0005a8e0       ?_Calculate_growth@?$basic_string@_WU?$char_traits@_W@std@@V?$allocator@_W@2@@std@@CAIIII@Z 100d18e0 f i CScriptParams.obj
 0002:0005a9d0       ?_Check_offset@?$_String_val@U?$_Simple_types@D@std@@@std@@QBEXI@Z 100d19d0 f i CScriptParams.obj
 0002:0005aa40       ?_Clamp_suffix_size@?$_String_val@U?$_Simple_types@D@std@@@std@@QBEIII@Z 100d1a40 f i CScriptParams.obj
 0002:0005aac0       ?_Eos@?$basic_string@DU?$char_traits@D@std@@V?$allocator@D@2@@std@@AAEXI@Z 100d1ac0 f i CScriptParams.obj
 0002:0005ab50       ?_Eos@?$basic_string@_WU?$char_traits@_W@std@@V?$allocator@_W@2@@std@@AAEXI@Z 100d1b50 f i CScriptParams.obj
 0002:0005abe0       ?_Get_first@?$_Compressed_pair@V?$allocator@_W@std@@V?$_String_val@U?$_Simple_types@_W@std@@@2@$00@std@@QAEAAV?$allocator@_W@2@XZ 100d1be0 f i CScriptParams.obj
 0002:0005ac40       ?_Get_first@?$_Compressed_pair@V?$allocator@_W@std@@V?$_String_val@U?$_Simple_types@_W@std@@@2@$00@std@@QBEABV?$allocator@_W@2@XZ 100d1c40 f i CScriptParams.obj
 0002:0005aca0       ?_Getal@?$basic_string@_WU?$char_traits@_W@std@@V?$allocator@_W@2@@std@@AAEAAV?$allocator@_W@2@XZ 100d1ca0 f i CScriptParams.obj
 0002:0005ad00       ?_Getal@?$basic_string@_WU?$char_traits@_W@std@@V?$allocator@_W@2@@std@@ABEABV?$allocator@_W@2@XZ 100d1d00 f i CScriptParams.obj
 0002:0005ad60       ?_Large_string_engaged@?$_String_val@U?$_Simple_types@_W@std@@@std@@QBE_NXZ 100d1d60 f i CScriptParams.obj
 0002:0005ade0       ?_Memcpy_val_from@?$basic_string@_WU?$char_traits@_W@std@@V?$allocator@_W@2@@std@@AAEXABV12@@Z 100d1de0 f i CScriptParams.obj
 0002:0005ae80       ?_Move_assign@?$basic_string@DU?$char_traits@D@std@@V?$allocator@D@2@@std@@AAEXAAV12@U_Equal_allocators@2@@Z 100d1e80 f i CScriptParams.obj
 0002:0005af10       ?_Move_assign@?$basic_string@_WU?$char_traits@_W@std@@V?$allocator@_W@2@@std@@AAEXAAV12@U_Equal_allocators@2@@Z 100d1f10 f i CScriptParams.obj
 0002:0005afa0       ?_Myptr@?$_String_val@U?$_Simple_types@_W@std@@@std@@QAEPA_WXZ 100d1fa0 f i CScriptParams.obj
 0002:0005b030       ?_Swap_proxy_and_iterators@?$basic_string@_WU?$char_traits@_W@std@@V?$allocator@_W@2@@std@@AAEXAAV12@@Z 100d2030 f i CScriptParams.obj
 0002:0005b090       ?_Take_contents@?$basic_string@_WU?$char_traits@_W@std@@V?$allocator@_W@2@@std@@AAEXAAV12@@Z 100d2090 f i CScriptParams.obj
 0002:0005b220       ?_Tidy_deallocate@?$basic_string@_WU?$char_traits@_W@std@@V?$allocator@_W@2@@std@@AAEXXZ 100d2220 f i CScriptParams.obj
 0002:0005b360       ?_Tidy_init@?$basic_string@_WU?$char_traits@_W@std@@V?$allocator@_W@2@@std@@AAEXXZ 100d2360 f i CScriptParams.obj
 0002:0005b400       ?_Unwrapped@?$_String_iterator@V?$_String_val@U?$_Simple_types@D@std@@@std@@@std@@QBEPADXZ 100d2400 f i CScriptParams.obj
 0002:0005b460       ?_Verify_offset@?$_String_const_iterator@V?$_String_val@U?$_Simple_types@D@std@@@std@@@std@@QBEXH@Z 100d2460 f i CScriptParams.obj
 0002:0005b730       ?_Verify_range@std@@YAXABV?$_String_const_iterator@V?$_String_val@U?$_Simple_types@D@std@@@std@@@1@0@Z 100d2730 f i CScriptParams.obj
 0002:0005b8a0       ?_Xran@?$_String_val@U?$_Simple_types@D@std@@@std@@SAXXZ 100d28a0 f i CScriptParams.obj
 0002:0005b8f0       ?allocate@?$allocator@_W@std@@QAEPA_WI@Z 100d28f0 f i CScriptParams.obj
 0002:0005b960       ?assign@?$_Narrow_char_traits@DH@std@@SAPADQADID@Z 100d2960 f i CScriptParams.obj
 0002:0005b9c0       ?assign@?$_WChar_traits@_W@std@@SAPA_WQA_WI_W@Z 100d29c0 f i CScriptParams.obj
 0002:0005ba20       ?assign@?$_WChar_traits@_W@std@@SAXAA_WAB_W@Z 100d2a20 f i CScriptParams.obj
 0002:0005ba80       ?assign@?$basic_string@DU?$char_traits@D@std@@V?$allocator@D@2@@std@@QAEAAV12@ABV12@II@Z 100d2a80 f i CScriptParams.obj
 0002:0005bb20       ?assign@?$basic_string@DU?$char_traits@D@std@@V?$allocator@D@2@@std@@QAEAAV12@ID@Z 100d2b20 f i CScriptParams.obj
 0002:0005bc10       ?assign@?$basic_string@_WU?$char_traits@_W@std@@V?$allocator@_W@2@@std@@QAEAAV12@I_W@Z 100d2c10 f i CScriptParams.obj
 0002:0005bd00       ?begin@?$basic_string@DU?$char_traits@D@std@@V?$allocator@D@2@@std@@QAE?AV?$_String_iterator@V?$_String_val@U?$_Simple_types@D@std@@@std@@@2@XZ 100d2d00 f i CScriptParams.obj
 0002:0005bd90       ?clear@?$basic_string@DU?$char_traits@D@std@@V?$allocator@D@2@@std@@QAEXXZ 100d2d90 f i CScriptParams.obj
 0002:0005be30       ?clear@?$basic_string@_WU?$char_traits@_W@std@@V?$allocator@_W@2@@std@@QAEXXZ 100d2e30 f i CScriptParams.obj
 0002:0005bed0       ?copy@?$_Char_traits@_WG@std@@SAPA_WQA_WQB_WI@Z 100d2ed0 f i CScriptParams.obj
 0002:0005bf40       ?deallocate@?$allocator@_W@std@@QAEXQA_WI@Z 100d2f40 f i CScriptParams.obj
 0002:0005bfb0       ?end@?$basic_string@DU?$char_traits@D@std@@V?$allocator@D@2@@std@@QAE?AV?$_String_iterator@V?$_String_val@U?$_Simple_types@D@std@@@std@@@2@XZ 100d2fb0 f i CScriptParams.obj
 0002:0005c040       ?get_allocator@?$basic_string@DU?$char_traits@D@std@@V?$allocator@D@2@@std@@QBE?AV?$allocator@D@2@XZ 100d3040 f i CScriptParams.obj
 0002:0005c0a0       ?length@?$basic_string@DU?$char_traits@D@std@@V?$allocator@D@2@@std@@QBEIXZ 100d30a0 f i CScriptParams.obj
 0002:0005c100       ?lowest@?$numeric_limits@H@std@@SAHXZ 100d3100 f i CScriptParams.obj
 0002:0005c150       ?max_size@?$_Default_allocator_traits@V?$allocator@_W@std@@@std@@SAIABV?$allocator@_W@2@@Z 100d3150 f i CScriptParams.obj
 0002:0005c1a0       ?max_size@?$basic_string@_WU?$char_traits@_W@std@@V?$allocator@_W@2@@std@@QBEIXZ 100d31a0 f i CScriptParams.obj
 0002:0005c2b0       ?min@?$numeric_limits@H@std@@SAHXZ 100d32b0 f i CScriptParams.obj
 0002:0005c300       ?substr@?$basic_string@DU?$char_traits@D@std@@V?$allocator@D@2@@std@@QBE?AV12@II@Z 100d3300 f i CScriptParams.obj
 0002:0005c3a0       _wmemset                   100d33a0 f i CScriptParams.obj
 0002:0005c430       ??$?0$$V@?$_Compressed_pair@V?$allocator@U?$_Tree_node@PAUtagAMX@@PAX@std@@@std@@V?$_Tree_val@U?$_Tree_simple_types@PAUtagAMX@@@std@@@2@$00@std@@QAE@U_Zero_then_variadic_args_t@1@@Z 100d3430 f i CCallbackManager.obj
 0002:0005c4a0       ??$?0AAPAU?$_Tree_node@PAUtagAMX@@PAX@std@@AAPAU01@$0A@@?$pair@PAU?$_Tree_node@PAUtagAMX@@PAX@std@@PAU12@@std@@QAE@AAPAU?$_Tree_node@PAUtagAMX@@PAX@1@0@Z 100d34a0 f i CCallbackManager.obj
 0002:0005c530       ??$?0ABQAUtagAMX@@@?$_Tree_temp_node@V?$allocator@U?$_Tree_node@PAUtagAMX@@PAX@std@@@std@@@std@@QAE@AAV?$allocator@U?$_Tree_node@PAUtagAMX@@PAX@std@@@1@PAU?$_Tree_node@PAUtagAMX@@PAX@1@ABQAUtagAMX@@@Z 100d3530 f i CCallbackManager.obj
 0002:0005c680       ??$?0ABU?$less@PAUtagAMX@@@std@@U_Zero_then_variadic_args_t@1@@?$_Compressed_pair@U?$less@PAUtagAMX@@@std@@V?$_Compressed_pair@V?$allocator@U?$_Tree_node@PAUtagAMX@@PAX@std@@@std@@V?$_Tree_val@U?$_Tree_simple_types@PAUtagAMX@@@std@@@2@$00@2@$00@std@@QAE@U_One_then_variadic_args_t@1@ABU?$less@PAUtagAMX@@@1@$$QAU_Zero_then_variadic_args_t@1@@Z 100d3680 f i CCallbackManager.obj
 0002:0005c710       ??$?0U?$_Tree_node@PAUtagAMX@@PAX@std@@@?$allocator@U_Container_proxy@std@@@std@@QAE@ABV?$allocator@U?$_Tree_node@PAUtagAMX@@PAX@std@@@1@@Z 100d3710 f i CCallbackManager.obj
 0002:0005c770       ??$_Adl_verify_range@V?$_Tree_unchecked_const_iterator@V?$_Tree_val@U?$_Tree_simple_types@PAUtagAMX@@@std@@@std@@U_Iterator_base0@2@@std@@V12@@std@@YAXABV?$_Tree_unchecked_const_iterator@V?$_Tree_val@U?$_Tree_simple_types@PAUtagAMX@@@std@@@std@@U_Iterator_base0@2@@0@0@Z 100d3770 f i CCallbackManager.obj
 0002:0005c7c0       ??$_Buyheadnode@V?$allocator@U?$_Tree_node@PAUtagAMX@@PAX@std@@@std@@@?$_Tree_node@PAUtagAMX@@PAX@std@@SAPAU01@AAV?$allocator@U?$_Tree_node@PAUtagAMX@@PAX@std@@@1@@Z 100d37c0 f i CCallbackManager.obj
 0002:0005c8b0       ??$_Construct_in_place@PAU?$_Tree_node@PAUtagAMX@@PAX@std@@AAPAU12@@std@@YAXAAPAU?$_Tree_node@PAUtagAMX@@PAX@0@0@Z 100d38b0 f i CCallbackManager.obj
 0002:0005c950       ??$_Construct_in_place@PAU?$_Tree_node@PAUtagAMX@@PAX@std@@ABQAU12@@std@@YAXAAPAU?$_Tree_node@PAUtagAMX@@PAX@0@ABQAU10@@Z 100d3950 f i CCallbackManager.obj
 0002:0005c9f0       ??$_Debug_lt_pred@ABU?$less@PAUtagAMX@@@std@@ABQAUtagAMX@@ABQAU3@$0A@@std@@YA_NABU?$less@PAUtagAMX@@@0@ABQAUtagAMX@@1@Z 100d39f0 f i CCallbackManager.obj
 0002:0005cb00       ??$_Destroy_in_place@PAU?$_Tree_node@PAUtagAMX@@PAX@std@@@std@@YAXAAPAU?$_Tree_node@PAUtagAMX@@PAX@0@@Z 100d3b00 f i CCallbackManager.obj
 0002:0005cb50       ??$_Emplace_hint@ABQAUtagAMX@@@?$_Tree@V?$_Tset_traits@PAUtagAMX@@U?$less@PAUtagAMX@@@std@@V?$allocator@PAUtagAMX@@@3@$0A@@std@@@std@@IAEPAU?$_Tree_node@PAUtagAMX@@PAX@1@QAU21@ABQAUtagAMX@@@Z 100d3b50 f i CCallbackManager.obj
 0002:0005ccb0       ??$_Eqrange@PAUtagAMX@@@?$_Tree@V?$_Tset_traits@PAUtagAMX@@U?$less@PAUtagAMX@@@std@@V?$allocator@PAUtagAMX@@@3@$0A@@std@@@std@@IBE?AU?$pair@PAU?$_Tree_node@PAUtagAMX@@PAX@std@@PAU12@@1@ABQAUtagAMX@@@Z 100d3cb0 f i CCallbackManager.obj
 0002:0005cef0       ??$_Erase_head@V?$allocator@U?$_Tree_node@PAUtagAMX@@PAX@std@@@std@@@?$_Tree_val@U?$_Tree_simple_types@PAUtagAMX@@@std@@@std@@QAEXAAV?$allocator@U?$_Tree_node@PAUtagAMX@@PAX@std@@@1@@Z 100d3ef0 f i CCallbackManager.obj
 0002:0005cf80       ??$_Erase_tree@V?$allocator@U?$_Tree_node@PAUtagAMX@@PAX@std@@@std@@@?$_Tree_val@U?$_Tree_simple_types@PAUtagAMX@@@std@@@std@@QAEXAAV?$allocator@U?$_Tree_node@PAUtagAMX@@PAX@std@@@1@PAU?$_Tree_node@PAUtagAMX@@PAX@1@@Z 100d3f80 f i CCallbackManager.obj
 0002:0005d020       ??$_Find_hint@PAUtagAMX@@@?$_Tree@V?$_Tset_traits@PAUtagAMX@@U?$less@PAUtagAMX@@@std@@V?$allocator@PAUtagAMX@@@3@$0A@@std@@@std@@IBE?AU?$_Tree_find_hint_result@PAU?$_Tree_node@PAUtagAMX@@PAX@std@@@1@QAU?$_Tree_node@PAUtagAMX@@PAX@1@ABQAUtagAMX@@@Z 100d4020 f i CCallbackManager.obj
 0002:0005d450       ??$_Find_lower_bound@PAUtagAMX@@@?$_Tree@V?$_Tset_traits@PAUtagAMX@@U?$less@PAUtagAMX@@@std@@V?$allocator@PAUtagAMX@@@3@$0A@@std@@@std@@IBE?AU?$_Tree_find_result@PAU?$_Tree_node@PAUtagAMX@@PAX@std@@@1@ABQAUtagAMX@@@Z 100d4450 f i CCallbackManager.obj
 0002:0005d5b0       ??$_Freenode0@V?$allocator@U?$_Tree_node@PAUtagAMX@@PAX@std@@@std@@@?$_Tree_node@PAUtagAMX@@PAX@std@@SAXAAV?$allocator@U?$_Tree_node@PAUtagAMX@@PAX@std@@@1@PAU01@@Z 100d45b0 f i CCallbackManager.obj
 0002:0005d680       ??$_Freenode@V?$allocator@U?$_Tree_node@PAUtagAMX@@PAX@std@@@std@@@?$_Tree_node@PAUtagAMX@@PAX@std@@SAXAAV?$allocator@U?$_Tree_node@PAUtagAMX@@PAX@std@@@1@PAU01@@Z 100d4680 f i CCallbackManager.obj
 0002:0005d740       ??$_Get_unwrapped@AAV?$_Tree_unchecked_const_iterator@V?$_Tree_val@U?$_Tree_simple_types@PAUtagAMX@@@std@@@std@@U_Iterator_base0@2@@std@@@std@@YA?A_TAAV?$_Tree_unchecked_const_iterator@V?$_Tree_val@U?$_Tree_simple_types@PAUtagAMX@@@std@@@std@@U_Iterator_base0@2@@0@@Z 100d4740 f i CCallbackManager.obj
 0002:0005d790       ??$_Lower_bound_duplicate@PAUtagAMX@@@?$_Tree@V?$_Tset_traits@PAUtagAMX@@U?$less@PAUtagAMX@@@std@@V?$allocator@PAUtagAMX@@@3@$0A@@std@@@std@@IBE_NQAU?$_Tree_node@PAUtagAMX@@PAX@1@ABQAUtagAMX@@@Z 100d4790 f i CCallbackManager.obj
 0002:0005d850       ??$_Voidify_iter@PAPAU?$_Tree_node@PAUtagAMX@@PAX@std@@@std@@YAPAXPAPAU?$_Tree_node@PAUtagAMX@@PAX@0@@Z 100d4850 f i CCallbackManager.obj
 0002:0005d8a0       ??$_Voidify_iter@PAPAUtagAMX@@@std@@YAPAXPAPAUtagAMX@@@Z 100d48a0 f i CCallbackManager.obj
 0002:0005d8f0       ??$addressof@$$CBV?$_Tree_val@U?$_Tree_simple_types@PAUtagAMX@@@std@@@std@@@std@@YAPBV?$_Tree_val@U?$_Tree_simple_types@PAUtagAMX@@@std@@@0@ABV10@@Z 100d48f0 f i CCallbackManager.obj
 0002:0005d940       ??$addressof@PAU?$_Tree_node@PAUtagAMX@@PAX@std@@@std@@YAPAPAU?$_Tree_node@PAUtagAMX@@PAX@0@AAPAU10@@Z 100d4940 f i CCallbackManager.obj
 0002:0005d990       ??$addressof@PAUtagAMX@@@std@@YAPAPAUtagAMX@@AAPAU1@@Z 100d4990 f i CCallbackManager.obj
 0002:0005d9e0       ??$addressof@V?$_Tree_val@U?$_Tree_simple_types@PAUtagAMX@@@std@@@std@@@std@@YAPAV?$_Tree_val@U?$_Tree_simple_types@PAUtagAMX@@@std@@@0@AAV10@@Z 100d49e0 f i CCallbackManager.obj
 0002:0005da30       ??$construct@PAUtagAMX@@ABQAU1@@?$_Default_allocator_traits@V?$allocator@U?$_Tree_node@PAUtagAMX@@PAX@std@@@std@@@std@@SAXAAV?$allocator@U?$_Tree_node@PAUtagAMX@@PAX@std@@@1@QAPAUtagAMX@@ABQAU3@@Z 100d4a30 f i CCallbackManager.obj
 0002:0005dac0       ??$destroy@PAUtagAMX@@@?$_Default_allocator_traits@V?$allocator@U?$_Tree_node@PAUtagAMX@@PAX@std@@@std@@@std@@SAXAAV?$allocator@U?$_Tree_node@PAUtagAMX@@PAX@std@@@1@QAPAUtagAMX@@@Z 100d4ac0 f i CCallbackManager.obj
 0002:0005db10       ??$distance@V?$_Tree_unchecked_const_iterator@V?$_Tree_val@U?$_Tree_simple_types@PAUtagAMX@@@std@@@std@@U_Iterator_base0@2@@std@@@std@@YAHV?$_Tree_unchecked_const_iterator@V?$_Tree_val@U?$_Tree_simple_types@PAUtagAMX@@@std@@@std@@U_Iterator_base0@2@@0@0@Z 100d4b10 f i CCallbackManager.obj
 0002:0005dc30       ??$exchange@PAU?$_Tree_node@PAUtagAMX@@PAX@std@@$$T@std@@YAPAU?$_Tree_node@PAUtagAMX@@PAX@0@AAPAU10@$$QA$$T@Z 100d4c30 f i CCallbackManager.obj
 0002:0005dca0       ??$exchange@PAU?$_Tree_node@PAUtagAMX@@PAX@std@@AAPAU12@@std@@YAPAU?$_Tree_node@PAUtagAMX@@PAX@0@AAPAU10@0@Z 100d4ca0 f i CCallbackManager.obj
 0002:0005dd10       ??$forward@AAPAU?$_Tree_node@PAUtagAMX@@PAX@std@@@std@@YAAAPAU?$_Tree_node@PAUtagAMX@@PAX@0@AAPAU10@@Z 100d4d10 f i CCallbackManager.obj
 0002:0005dd60       ??$forward@ABQAU?$_Tree_node@PAUtagAMX@@PAX@std@@@std@@YAABQAU?$_Tree_node@PAUtagAMX@@PAX@0@ABQAU10@@Z 100d4d60 f i CCallbackManager.obj
 0002:0005ddb0       ??$forward@ABQAUtagAMX@@@std@@YAABQAUtagAMX@@ABQAU1@@Z 100d4db0 f i CCallbackManager.obj
 0002:0005de00       ??$forward@ABU?$less@PAUtagAMX@@@std@@@std@@YAABU?$less@PAUtagAMX@@@0@ABU10@@Z 100d4e00 f i CCallbackManager.obj
 0002:0005de50       ??0?$_Alloc_construct_ptr@V?$allocator@U?$_Tree_node@PAUtagAMX@@PAX@std@@@std@@@std@@QAE@AAV?$allocator@U?$_Tree_node@PAUtagAMX@@PAX@std@@@1@@Z 100d4e50 f i CCallbackManager.obj
 0002:0005dec0       ??0?$_Tree@V?$_Tset_traits@PAUtagAMX@@U?$less@PAUtagAMX@@@std@@V?$allocator@PAUtagAMX@@@3@$0A@@std@@@std@@QAE@ABU?$less@PAUtagAMX@@@1@@Z 100d4ec0 f i CCallbackManager.obj
 0002:0005df40       ??0?$_Tree_const_iterator@V?$_Tree_val@U?$_Tree_simple_types@PAUtagAMX@@@std@@@std@@@std@@QAE@PAU?$_Tree_node@PAUtagAMX@@PAX@1@PBV?$_Tree_val@U?$_Tree_simple_types@PAUtagAMX@@@std@@@1@@Z 100d4f40 f i CCallbackManager.obj
 0002:0005dfa0       ??0?$_Tree_temp_node_alloc@V?$allocator@U?$_Tree_node@PAUtagAMX@@PAX@std@@@std@@@std@@QAE@AAV?$allocator@U?$_Tree_node@PAUtagAMX@@PAX@std@@@1@@Z 100d4fa0 f i CCallbackManager.obj
 0002:0005e060       ??0?$_Tree_unchecked_const_iterator@V?$_Tree_val@U?$_Tree_simple_types@PAUtagAMX@@@std@@@std@@U_Iterator_base0@2@@std@@QAE@PAU?$_Tree_node@PAUtagAMX@@PAX@1@PBV?$_Tree_val@U?$_Tree_simple_types@PAUtagAMX@@@std@@@1@@Z 100d5060 f i CCallbackManager.obj
 0002:0005e0d0       ??0?$_Tree_unchecked_const_iterator@V?$_Tree_val@U?$_Tree_simple_types@PAUtagAMX@@@std@@@std@@U_Iterator_base12@2@@std@@QAE@PAU?$_Tree_node@PAUtagAMX@@PAX@1@PBV?$_Tree_val@U?$_Tree_simple_types@PAUtagAMX@@@std@@@1@@Z 100d50d0 f i CCallbackManager.obj
 0002:0005e150       ??0?$_Tree_val@U?$_Tree_simple_types@PAUtagAMX@@@std@@@std@@QAE@XZ 100d5150 f i CCallbackManager.obj
 0002:0005e1d0       ??0?$allocator@U?$_Tree_node@PAUtagAMX@@PAX@std@@@std@@QAE@XZ 100d51d0 f i CCallbackManager.obj
 0002:0005e230       ??0?$set@PAUtagAMX@@U?$less@PAUtagAMX@@@std@@V?$allocator@PAUtagAMX@@@3@@std@@QAE@XZ 100d5230 f i CCallbackManager.obj
 0002:0005e2a0       ??1?$_Alloc_construct_ptr@V?$allocator@U?$_Tree_node@PAUtagAMX@@PAX@std@@@std@@@std@@QAE@XZ 100d52a0 f i CCallbackManager.obj
 0002:0005e350       ??1?$_Tree@V?$_Tset_traits@PAUtagAMX@@U?$less@PAUtagAMX@@@std@@V?$allocator@PAUtagAMX@@@3@$0A@@std@@@std@@QAE@XZ 100d5350 f i CCallbackManager.obj
 0002:0005e430       ??1?$_Tree_const_iterator@V?$_Tree_val@U?$_Tree_simple_types@PAUtagAMX@@@std@@@std@@@std@@QAE@XZ 100d5430 f i CCallbackManager.obj
 0002:0005e480       ??1?$_Tree_temp_node@V?$allocator@U?$_Tree_node@PAUtagAMX@@PAX@std@@@std@@@std@@QAE@XZ 100d5480 f i CCallbackManager.obj
 0002:0005e590       ??1?$_Tree_temp_node_alloc@V?$allocator@U?$_Tree_node@PAUtagAMX@@PAX@std@@@std@@@std@@QAE@XZ 100d5590 f i CCallbackManager.obj
 0002:0005e5e0       ??1?$_Tree_unchecked_const_iterator@V?$_Tree_val@U?$_Tree_simple_types@PAUtagAMX@@@std@@@std@@U_Iterator_base12@2@@std@@QAE@XZ 100d55e0 f i CCallbackManager.obj
 0002:0005e630       ??1?$set@PAUtagAMX@@U?$less@PAUtagAMX@@@std@@V?$allocator@PAUtagAMX@@@3@@std@@QAE@XZ 100d5630 f i CCallbackManager.obj
 0002:0005e680       ??8?$_Tree_unchecked_const_iterator@V?$_Tree_val@U?$_Tree_simple_types@PAUtagAMX@@@std@@@std@@U_Iterator_base0@2@@std@@QBE_NABV01@@Z 100d5680 f i CCallbackManager.obj
 0002:0005e710       ??9?$_Tree_unchecked_const_iterator@V?$_Tree_val@U?$_Tree_simple_types@PAUtagAMX@@@std@@@std@@U_Iterator_base0@2@@std@@QBE_NABV01@@Z 100d5710 f i CCallbackManager.obj
 0002:0005e7a0       ??9?$_Tree_unchecked_const_iterator@V?$_Tree_val@U?$_Tree_simple_types@PAUtagAMX@@@std@@@std@@U_Iterator_base0@2@@std@@QBE_NU_Default_sentinel@1@@Z 100d57a0 f i CCallbackManager.obj
 0002:0005e830       ??D?$_Tree_unchecked_const_iterator@V?$_Tree_val@U?$_Tree_simple_types@PAUtagAMX@@@std@@@std@@U_Iterator_base0@2@@std@@QBEABQAUtagAMX@@XZ 100d5830 f i CCallbackManager.obj
 0002:0005e890       ??E?$_Tree_unchecked_const_iterator@V?$_Tree_val@U?$_Tree_simple_types@PAUtagAMX@@@std@@@std@@U_Iterator_base0@2@@std@@QAE?AV01@H@Z 100d5890 f i CCallbackManager.obj
 0002:0005e940       ??E?$_Tree_unchecked_const_iterator@V?$_Tree_val@U?$_Tree_simple_types@PAUtagAMX@@@std@@@std@@U_Iterator_base0@2@@std@@QAEAAV01@XZ 100d5940 f i CCallbackManager.obj
 0002:0005ea10       ??F?$_Tree_unchecked_const_iterator@V?$_Tree_val@U?$_Tree_simple_types@PAUtagAMX@@@std@@@std@@U_Iterator_base0@2@@std@@QAEAAV01@XZ 100d5a10 f i CCallbackManager.obj
 0002:0005eb10       ??R?$less@PAUtagAMX@@@std@@QBE_NABQAUtagAMX@@0@Z 100d5b10 f i CCallbackManager.obj
 0002:0005eba0       ?OnClientCheckResponse@CCallbackManager@@SAXGEKE@Z 100d5ba0 f   CCallbackManager.obj
 0002:0005ed80       ?OnDialogSpoof@CCallbackManager@@SAHGHGGH@Z 100d5d80 f   CCallbackManager.obj
 0002:0005efa0       ?OnOutcomeScmEvent@CCallbackManager@@SA_NGGHHHH@Z 100d5fa0 f   CCallbackManager.obj
 0002:0005f1d0       ?OnPlayerClientGameInit@CCallbackManager@@SAXGPA_N0PAM1000PAH0022220@Z 100d61d0 f   CCallbackManager.obj
 0002:0005f8e0       ?OnPlayerDeath@CCallbackManager@@SAXGGE@Z 100d68e0 f   CCallbackManager.obj
 0002:0005faa0       ?OnPlayerEditObject@CCallbackManager@@SAXG_NKKABVCVector@@1@Z 100d6aa0 f   CCallbackManager.obj
 0002:0005fd10       ?OnPlayerEnterGangZone@CCallbackManager@@SAXGG@Z 100d6d10 f   CCallbackManager.obj
 0002:0005fec0       ?OnPlayerEnterPlayerGangZone@CCallbackManager@@SAXGG@Z 100d6ec0 f   CCallbackManager.obj
 0002:00060070       ?OnPlayerLeaveGangZone@CCallbackManager@@SAXGG@Z 100d7070 f   CCallbackManager.obj
 0002:00060220       ?OnPlayerLeavePlayerGangZone@CCallbackManager@@SAXGG@Z 100d7220 f   CCallbackManager.obj
 0002:000603d0       ?OnPlayerPauseStateChange@CCallbackManager@@SAXG_N@Z 100d73d0 f   CCallbackManager.obj
 0002:00060580       ?OnPlayerPickedUpPickup@CCallbackManager@@SAXGG@Z 100d7580 f   CCallbackManager.obj
 0002:00060730       ?OnPlayerPickedUpPlayerPickup@CCallbackManager@@SAXGG@Z 100d7730 f   CCallbackManager.obj
 0002:000608e0       ?OnPlayerSelectObject@CCallbackManager@@SAXGKKKABVCVector@@@Z 100d78e0 f   CCallbackManager.obj
 0002:00060b10       ?OnPlayerSpawn@CCallbackManager@@SAXG@Z 100d7b10 f   CCallbackManager.obj
 0002:00060ca0       ?OnPlayerStatsAndWeaponsUpdate@CCallbackManager@@SAXG@Z 100d7ca0 f   CCallbackManager.obj
 0002:00060e30       ?OnQueryFloodCheck@CCallbackManager@@SA_NDI@Z 100d7e30 f   CCallbackManager.obj
 0002:00061030       ?OnRemoteRCONPacket@CCallbackManager@@SA_NIHPAD_N0@Z 100d8030 f   CCallbackManager.obj
 0002:000612d0       ?OnServerMessage@CCallbackManager@@SA_NPBD@Z 100d82d0 f   CCallbackManager.obj
 0002:000614b0       ?OnServerQueryInfo@CCallbackManager@@SA_NIAAY0DD@DAAY0BP@D1@Z 100d84b0 f   CCallbackManager.obj
 0002:00061a50       ?OnSystemCommandExecute@CCallbackManager@@SAXPBDHH_NHH@Z 100d8a50 f   CCallbackManager.obj
 0002:00061c90       ?OnVehicleSpawn@CCallbackManager@@SAXG@Z 100d8c90 f   CCallbackManager.obj
 0002:00061e20       ?RegisterAMX@CCallbackManager@@SAXPAUtagAMX@@@Z 100d8e20 f   CCallbackManager.obj
 0002:00061f30       ?UnregisterAMX@CCallbackManager@@SAXPAUtagAMX@@@Z 100d8f30 f   CCallbackManager.obj
 0002:00061f90       ?_Alloc_sentinel_and_proxy@?$_Tree@V?$_Tset_traits@PAUtagAMX@@U?$less@PAUtagAMX@@@std@@V?$allocator@PAUtagAMX@@@3@$0A@@std@@@std@@IAEXXZ 100d8f90 f i CCallbackManager.obj
 0002:000620e0       ?_Allocate@?$_Alloc_construct_ptr@V?$allocator@U?$_Tree_node@PAUtagAMX@@PAX@std@@@std@@@std@@QAEXXZ 100d90e0 f i CCallbackManager.obj
 0002:00062150       ?_Check_grow_by_1@?$_Tree@V?$_Tset_traits@PAUtagAMX@@U?$less@PAUtagAMX@@@std@@V?$allocator@PAUtagAMX@@@3@$0A@@std@@@std@@IAEXXZ 100d9150 f i CCallbackManager.obj
 0002:000621c0       ?_Erase_unchecked@?$_Tree@V?$_Tset_traits@PAUtagAMX@@U?$less@PAUtagAMX@@@std@@V?$allocator@PAUtagAMX@@@3@$0A@@std@@@std@@AAEPAU?$_Tree_node@PAUtagAMX@@PAX@2@V?$_Tree_unchecked_const_iterator@V?$_Tree_val@U?$_Tree_simple_types@PAUtagAMX@@@std@@@std@@U_Iterator_base0@2@@2@0@Z 100d91c0 f i CCallbackManager.obj
 0002:000622d0       ?_Erase_unchecked@?$_Tree@V?$_Tset_traits@PAUtagAMX@@U?$less@PAUtagAMX@@@std@@V?$allocator@PAUtagAMX@@@3@$0A@@std@@@std@@AAEPAU?$_Tree_node@PAUtagAMX@@PAX@2@V?$_Tree_unchecked_const_iterator@V?$_Tree_val@U?$_Tree_simple_types@PAUtagAMX@@@std@@@std@@U_Iterator_base0@2@@2@@Z 100d92d0 f i CCallbackManager.obj
 0002:000623c0       ?_Extract@?$_In_place_key_extract_set@PAUtagAMX@@PAU1@@std@@SAABQAUtagAMX@@ABQAU3@@Z 100d93c0 f i CCallbackManager.obj
 0002:00062410       ?_Extract@?$_Tree_val@U?$_Tree_simple_types@PAUtagAMX@@@std@@@std@@QAEPAU?$_Tree_node@PAUtagAMX@@PAX@2@V?$_Tree_unchecked_const_iterator@V?$_Tree_val@U?$_Tree_simple_types@PAUtagAMX@@@std@@@std@@U_Iterator_base0@2@@2@@Z 100d9410 f i CCallbackManager.obj
 0002:000629a0       ?_Get_first@?$_Compressed_pair@U?$less@PAUtagAMX@@@std@@V?$_Compressed_pair@V?$allocator@U?$_Tree_node@PAUtagAMX@@PAX@std@@@std@@V?$_Tree_val@U?$_Tree_simple_types@PAUtagAMX@@@std@@@2@$00@2@$00@std@@QBEABU?$less@PAUtagAMX@@@2@XZ 100d99a0 f i CCallbackManager.obj
 0002:00062a00       ?_Get_first@?$_Compressed_pair@V?$allocator@U?$_Tree_node@PAUtagAMX@@PAX@std@@@std@@V?$_Tree_val@U?$_Tree_simple_types@PAUtagAMX@@@std@@@2@$00@std@@QAEAAV?$allocator@U?$_Tree_node@PAUtagAMX@@PAX@std@@@2@XZ 100d9a00 f i CCallbackManager.obj
 0002:00062a60       ?_Get_first@?$_Compressed_pair@V?$allocator@U?$_Tree_node@PAUtagAMX@@PAX@std@@@std@@V?$_Tree_val@U?$_Tree_simple_types@PAUtagAMX@@@std@@@2@$00@std@@QBEABV?$allocator@U?$_Tree_node@PAUtagAMX@@PAX@std@@@2@XZ 100d9a60 f i CCallbackManager.obj
 0002:00062ac0       ?_Get_scary@?$_Tree@V?$_Tset_traits@PAUtagAMX@@U?$less@PAUtagAMX@@@std@@V?$allocator@PAUtagAMX@@@3@$0A@@std@@@std@@IAEPAV?$_Tree_val@U?$_Tree_simple_types@PAUtagAMX@@@std@@@2@XZ 100d9ac0 f i CCallbackManager.obj
 0002:00062b20       ?_Get_scary@?$_Tree@V?$_Tset_traits@PAUtagAMX@@U?$less@PAUtagAMX@@@std@@V?$allocator@PAUtagAMX@@@3@$0A@@std@@@std@@IBEPBV?$_Tree_val@U?$_Tree_simple_types@PAUtagAMX@@@std@@@2@XZ 100d9b20 f i CCallbackManager.obj
 0002:00062b80       ?_Getal@?$_Tree@V?$_Tset_traits@PAUtagAMX@@U?$less@PAUtagAMX@@@std@@V?$allocator@PAUtagAMX@@@3@$0A@@std@@@std@@IAEAAV?$allocator@U?$_Tree_node@PAUtagAMX@@PAX@std@@@2@XZ 100d9b80 f i CCallbackManager.obj
 0002:00062be0       ?_Getal@?$_Tree@V?$_Tset_traits@PAUtagAMX@@U?$less@PAUtagAMX@@@std@@V?$allocator@PAUtagAMX@@@3@$0A@@std@@@std@@IBEABV?$allocator@U?$_Tree_node@PAUtagAMX@@PAX@std@@@2@XZ 100d9be0 f i CCallbackManager.obj
 0002:00062c40       ?_Getcomp@?$_Tree@V?$_Tset_traits@PAUtagAMX@@U?$less@PAUtagAMX@@@std@@V?$allocator@PAUtagAMX@@@3@$0A@@std@@@std@@IBEABU?$less@PAUtagAMX@@@2@XZ 100d9c40 f i CCallbackManager.obj
 0002:00062ca0       ?_Insert_node@?$_Tree_val@U?$_Tree_simple_types@PAUtagAMX@@@std@@@std@@QAEPAU?$_Tree_node@PAUtagAMX@@PAX@2@U?$_Tree_id@PAU?$_Tree_node@PAUtagAMX@@PAX@std@@@2@QAU32@@Z 100d9ca0 f i CCallbackManager.obj
 0002:00062f70       ?_Kfn@?$_Tset_traits@PAUtagAMX@@U?$less@PAUtagAMX@@@std@@V?$allocator@PAUtagAMX@@@3@$0A@@std@@SAABQAUtagAMX@@ABQAU3@@Z 100d9f70 f i CCallbackManager.obj
 0002:00062fc0       ?_Lrotate@?$_Tree_val@U?$_Tree_simple_types@PAUtagAMX@@@std@@@std@@QAEXPAU?$_Tree_node@PAUtagAMX@@PAX@2@@Z 100d9fc0 f i CCallbackManager.obj
 0002:000630c0       ?_Max@?$_Tree_val@U?$_Tree_simple_types@PAUtagAMX@@@std@@@std@@SAPAU?$_Tree_node@PAUtagAMX@@PAX@2@PAU32@@Z 100da0c0 f i CCallbackManager.obj
 0002:00063130       ?_Min@?$_Tree_val@U?$_Tree_simple_types@PAUtagAMX@@@std@@@std@@SAPAU?$_Tree_node@PAUtagAMX@@PAX@2@PAU32@@Z 100da130 f i CCallbackManager.obj
 0002:000631a0       ?_Orphan_ptr@?$_Tree_val@U?$_Tree_simple_types@PAUtagAMX@@@std@@@std@@QAEXQAU?$_Tree_node@PAUtagAMX@@PAX@2@@Z 100da1a0 f i CCallbackManager.obj
 0002:000632d0       ?_Release@?$_Alloc_construct_ptr@V?$allocator@U?$_Tree_node@PAUtagAMX@@PAX@std@@@std@@@std@@QAEPAU?$_Tree_node@PAUtagAMX@@PAX@2@XZ 100da2d0 f i CCallbackManager.obj
 0002:00063350       ?_Rrotate@?$_Tree_val@U?$_Tree_simple_types@PAUtagAMX@@@std@@@std@@QAEXPAU?$_Tree_node@PAUtagAMX@@PAX@2@@Z 100da350 f i CCallbackManager.obj
 0002:00063460       ?_Unchecked_begin@?$_Tree@V?$_Tset_traits@PAUtagAMX@@U?$less@PAUtagAMX@@@std@@V?$allocator@PAUtagAMX@@@3@$0A@@std@@@std@@QAE?AV?$_Tree_unchecked_const_iterator@V?$_Tree_val@U?$_Tree_simple_types@PAUtagAMX@@@std@@@std@@U_Iterator_base0@2@@2@XZ 100da460 f i CCallbackManager.obj
 0002:000634e0       ?_Unchecked_end@?$_Tree@V?$_Tset_traits@PAUtagAMX@@U?$less@PAUtagAMX@@@std@@V?$allocator@PAUtagAMX@@@3@$0A@@std@@@std@@QBE?AU_Default_sentinel@2@XZ 100da4e0 f i CCallbackManager.obj
 0002:00063540       ?allocate@?$allocator@U?$_Tree_node@PAUtagAMX@@PAX@std@@@std@@QAEPAU?$_Tree_node@PAUtagAMX@@PAX@2@I@Z 100da540 f i CCallbackManager.obj
 0002:000635b0       ?begin@?$_Tree@V?$_Tset_traits@PAUtagAMX@@U?$less@PAUtagAMX@@@std@@V?$allocator@PAUtagAMX@@@3@$0A@@std@@@std@@QAE?AV?$_Tree_const_iterator@V?$_Tree_val@U?$_Tree_simple_types@PAUtagAMX@@@std@@@std@@@2@XZ 100da5b0 f i CCallbackManager.obj
 0002:00063630       ?clear@?$_Tree@V?$_Tset_traits@PAUtagAMX@@U?$less@PAUtagAMX@@@std@@V?$allocator@PAUtagAMX@@@3@$0A@@std@@@std@@QAEXXZ 100da630 f i CCallbackManager.obj
 0002:000636f0       ?deallocate@?$_Default_allocator_traits@V?$allocator@U?$_Tree_node@PAUtagAMX@@PAX@std@@@std@@@std@@SAXAAV?$allocator@U?$_Tree_node@PAUtagAMX@@PAX@std@@@2@QAU?$_Tree_node@PAUtagAMX@@PAX@2@I@Z 100da6f0 f i CCallbackManager.obj
 0002:00063750       ?deallocate@?$allocator@U?$_Tree_node@PAUtagAMX@@PAX@std@@@std@@QAEXQAU?$_Tree_node@PAUtagAMX@@PAX@2@I@Z 100da750 f i CCallbackManager.obj
 0002:000637c0       ?end@?$_Tree@V?$_Tset_traits@PAUtagAMX@@U?$less@PAUtagAMX@@@std@@V?$allocator@PAUtagAMX@@@3@$0A@@std@@@std@@QAE?AV?$_Tree_const_iterator@V?$_Tree_val@U?$_Tree_simple_types@PAUtagAMX@@@std@@@std@@@2@XZ 100da7c0 f i CCallbackManager.obj
 0002:00063840       ?erase@?$_Tree@V?$_Tset_traits@PAUtagAMX@@U?$less@PAUtagAMX@@@std@@V?$allocator@PAUtagAMX@@@3@$0A@@std@@@std@@QAEIABQAUtagAMX@@@Z 100da840 f i CCallbackManager.obj
 0002:00063960       ?insert@?$_Tree@V?$_Tset_traits@PAUtagAMX@@U?$less@PAUtagAMX@@@std@@V?$allocator@PAUtagAMX@@@3@$0A@@std@@@std@@QAE?AV?$_Tree_const_iterator@V?$_Tree_val@U?$_Tree_simple_types@PAUtagAMX@@@std@@@std@@@2@V32@ABQAUtagAMX@@@Z 100da960 f i CCallbackManager.obj
 0002:00063ae0       ?max_size@?$_Default_allocator_traits@V?$allocator@U?$_Tree_node@PAUtagAMX@@PAX@std@@@std@@@std@@SAIABV?$allocator@U?$_Tree_node@PAUtagAMX@@PAX@std@@@2@@Z 100daae0 f i CCallbackManager.obj
 0002:00063b30       ?max_size@?$_Tree@V?$_Tset_traits@PAUtagAMX@@U?$less@PAUtagAMX@@@std@@V?$allocator@PAUtagAMX@@@3@$0A@@std@@@std@@QBEIXZ 100dab30 f i CCallbackManager.obj
 0002:00063bd0       ??0CGangZonePool@@QAE@XZ   100dabd0 f   CGangZonePool.obj
 0002:00063c40       ??0reference@?$bitset@$0EAA@@std@@AAE@AAV12@I@Z 100dac40 f i CGangZonePool.obj
 0002:00063cb0       ??1CGangZonePool@@QAE@XZ   100dacb0 f   CGangZonePool.obj
 0002:00063d80       ??1reference@?$bitset@$0EAA@@std@@QAE@XZ 100dad80 f i CGangZonePool.obj
 0002:00063dd0       ??4reference@?$bitset@$0EAA@@std@@QAEAAV012@_N@Z 100dadd0 f i CGangZonePool.obj
 0002:00063e40       ??A?$bitset@$0EAA@@std@@QAE?AVreference@01@I@Z 100dae40 f i CGangZonePool.obj
 0002:00063ee0       ??Breference@?$bitset@$0EAA@@std@@QBE_NXZ 100daee0 f i CGangZonePool.obj
 0002:00063f80       ?Delete@CGangZonePool@@QAEXG@Z 100daf80 f   CGangZonePool.obj
 0002:00064080       ?Delete@CGangZonePool@@QAEXGG@Z 100db080 f   CGangZonePool.obj
 0002:00064190       ?FlashForAll@CGangZonePool@@QAEXGK@Z 100db190 f   CGangZonePool.obj
 0002:00064250       ?FlashForPlayer@CGangZonePool@@QAEXGGK_N@Z 100db250 f   CGangZonePool.obj
 0002:00064580       ?HideForAll@CGangZonePool@@QAEXG@Z 100db580 f   CGangZonePool.obj
 0002:00064630       ?HideForPlayer@CGangZonePool@@QAE_NGG_N0@Z 100db630 f   CGangZonePool.obj
 0002:00064bb0       ?New@CGangZonePool@@QAEGGMMMM@Z 100dbbb0 f   CGangZonePool.obj
 0002:00064d90       ?New@CGangZonePool@@QAEGMMMM@Z 100dbd90 f   CGangZonePool.obj
 0002:00064f30       ?ShowForAll@CGangZonePool@@QAEXGK@Z 100dbf30 f   CGangZonePool.obj
 0002:00065320       ?ShowForPlayer@CGangZonePool@@QAE_NGGK_N@Z 100dc320 f   CGangZonePool.obj
 0002:00065730       ?StopFlashForAll@CGangZonePool@@QAEXG@Z 100dc730 f   CGangZonePool.obj
 0002:000657e0       ?StopFlashForPlayer@CGangZonePool@@QAEXGG_N@Z 100dc7e0 f   CGangZonePool.obj
 0002:00065ac0       ?_Set_unchecked@?$bitset@$0EAA@@std@@AAEAAV12@I_N@Z 100dcac0 f i CGangZonePool.obj
 0002:00065ba0       ?_Subscript@?$bitset@$0EAA@@std@@QBE_NI@Z 100dcba0 f i CGangZonePool.obj
 0002:00065c70       ?_Validate@?$bitset@$0EAA@@std@@SAXI@Z 100dcc70 f i CGangZonePool.obj
 0002:00065d30       ?GetColCount@CModelSizes@@YAHXZ 100dcd30 f   CModelSizes.obj
 0002:00065d80       ?GetColSphereOffset@CModelSizes@@YA?AVCVector@@H@Z 100dcd80 f   CModelSizes.obj
 0002:00065e80       ?GetColSphereRadius@CModelSizes@@YAMH@Z 100dce80 f   CModelSizes.obj
 0002:00065ef0       ??$?0$$V@?$_Compressed_pair@V?$allocator@U?$_Tree_node@GPAX@std@@@std@@V?$_Tree_val@U?$_Tree_simple_types@G@std@@@2@$00@std@@QAE@U_Zero_then_variadic_args_t@1@@Z 100dcef0 f i CPlayerData.obj
 0002:00065f60       ??$?0$$V@?$_Compressed_pair@V?$allocator@U?$_Tree_node@U?$pair@$$CBGU?$pair@EV?$basic_string@DU?$char_traits@D@std@@V?$allocator@D@2@@std@@@std@@@std@@PAX@std@@@std@@V?$_Tree_val@U?$_Tree_simple_types@U?$pair@$$CBGU?$pair@EV?$basic_string@DU?$char_traits@D@std@@V?$allocator@D@2@@std@@@std@@@std@@@std@@@2@$00@std@@QAE@U_Zero_then_variadic_args_t@1@@Z 100dcf60 f i CPlayerData.obj
 0002:00065fd0       ??$?0$$V@?$_Compressed_pair@V?$allocator@URemovedBuilding@CPlayerData@@@std@@V?$_Vector_val@U?$_Simple_types@URemovedBuilding@CPlayerData@@@std@@@2@$00@std@@QAE@U_Zero_then_variadic_args_t@1@@Z 100dcfd0 f i CPlayerData.obj
 0002:00066040       ??$?0$$V@?$_Ref_count_obj2@VCPlayerObjectAttachAddon@@@std@@QAE@XZ 100dd040 f i CPlayerData.obj
 0002:00066110       ??$?0AAGAAV?$shared_ptr@VCPlayerObjectAttachAddon@@@std@@$0A@@?$pair@$$CBGV?$shared_ptr@VCPlayerObjectAttachAddon@@@std@@@std@@QAE@AAGAAV?$shared_ptr@VCPlayerObjectAttachAddon@@@1@@Z 100dd110 f i CPlayerData.obj
 0002:000661a0       ??$?0AAGAAV?$shared_ptr@VCPlayerObjectAttachAddon@@@std@@@?$_List_node_emplace_op2@V?$allocator@U?$_List_node@U?$pair@$$CBGV?$shared_ptr@VCPlayerObjectAttachAddon@@@std@@@std@@PAX@std@@@std@@@std@@QAE@AAV?$allocator@U?$_List_node@U?$pair@$$CBGV?$shared_ptr@VCPlayerObjectAttachAddon@@@std@@@std@@PAX@std@@@1@AAGAAV?$shared_ptr@VCPlayerObjectAttachAddon@@@1@@Z 100dd1a0 f i CPlayerData.obj
 0002:000662a0       ??$?0AAPAU?$_List_node@U?$pair@$$CBGV?$basic_string@DU?$char_traits@D@std@@V?$allocator@D@2@@std@@@std@@PAX@std@@_N$0A@@?$pair@PAU?$_List_node@U?$pair@$$CBGV?$basic_string@DU?$char_traits@D@std@@V?$allocator@D@2@@std@@@std@@PAX@std@@_N@std@@QAE@AAPAU?$_List_node@U?$pair@$$CBGV?$basic_string@DU?$char_traits@D@std@@V?$allocator@D@2@@std@@@std@@PAX@1@$$QA_N@Z 100dd2a0 f i CPlayerData.obj
 0002:00066330       ??$?0ABG$$Z$$V@?$pair@$$CBGV?$basic_string@DU?$char_traits@D@std@@V?$allocator@D@2@@std@@@std@@QAE@Upiecewise_construct_t@1@V?$tuple@ABG@1@V?$tuple@$$V@1@@Z 100dd330 f i CPlayerData.obj
 0002:000663c0       ??$?0ABG@?$_List_node_emplace_op2@V?$allocator@U?$_List_node@GPAX@std@@@std@@@std@@QAE@AAV?$allocator@U?$_List_node@GPAX@std@@@1@ABG@Z 100dd3c0 f i CPlayerData.obj
 0002:000664b0       ??$?0ABU?$less@G@std@@U_Zero_then_variadic_args_t@1@@?$_Compressed_pair@U?$less@G@std@@V?$_Compressed_pair@V?$allocator@U?$_Tree_node@GPAX@std@@@std@@V?$_Tree_val@U?$_Tree_simple_types@G@std@@@2@$00@2@$00@std@@QAE@U_One_then_variadic_args_t@1@ABU?$less@G@1@$$QAU_Zero_then_variadic_args_t@1@@Z 100dd4b0 f i CPlayerData.obj
 0002:00066540       ??$?0ABU?$less@G@std@@U_Zero_then_variadic_args_t@1@@?$_Compressed_pair@U?$less@G@std@@V?$_Compressed_pair@V?$allocator@U?$_Tree_node@U?$pair@$$CBGU?$pair@EV?$basic_string@DU?$char_traits@D@std@@V?$allocator@D@2@@std@@@std@@@std@@PAX@std@@@std@@V?$_Tree_val@U?$_Tree_simple_types@U?$pair@$$CBGU?$pair@EV?$basic_string@DU?$char_traits@D@std@@V?$allocator@D@2@@std@@@std@@@std@@@std@@@2@$00@2@$00@std@@QAE@U_One_then_variadic_args_t@1@ABU?$less@G@1@$$QAU_Zero_then_variadic_args_t@1@@Z 100dd540 f i CPlayerData.obj
 0002:000665d0       ??$?0ABUpiecewise_construct_t@std@@V?$tuple@ABG@1@V?$tuple@$$V@1@@?$_List_node_emplace_op2@V?$allocator@U?$_List_node@U?$pair@$$CBGV?$basic_string@DU?$char_traits@D@std@@V?$allocator@D@2@@std@@@std@@PAX@std@@@std@@@std@@QAE@AAV?$allocator@U?$_List_node@U?$pair@$$CBGV?$basic_string@DU?$char_traits@D@std@@V?$allocator@D@2@@std@@@std@@PAX@std@@@1@ABUpiecewise_construct_t@1@$$QAV?$tuple@ABG@1@$$QAV?$tuple@$$V@1@@Z 100dd5d0 f i CPlayerData.obj
 0002:000666e0       ??$?0ABV?$allocator@G@std@@$$V@?$_Compressed_pair@V?$allocator@U?$_List_node@GPAX@std@@@std@@V?$_List_val@U?$_List_simple_types@G@std@@@2@$00@std@@QAE@U_One_then_variadic_args_t@1@ABV?$allocator@G@1@@Z 100dd6e0 f i CPlayerData.obj
 0002:00066760       ??$?0ABV?$allocator@G@std@@$$V@?$_Compressed_pair@V?$allocator@V?$_List_unchecked_const_iterator@V?$_List_val@U?$_List_simple_types@G@std@@@std@@U_Iterator_base0@2@@std@@@std@@V?$_Vector_val@U?$_Simple_types@V?$_List_unchecked_const_iterator@V?$_List_val@U?$_List_simple_types@G@std@@@std@@U_Iterator_base0@2@@std@@@std@@@2@$00@std@@QAE@U_One_then_variadic_args_t@1@ABV?$allocator@G@1@@Z 100dd760 f i CPlayerData.obj
 0002:000667e0       ??$?0ABV?$allocator@G@std@@$0A@@?$_Hash_vec@V?$allocator@V?$_List_unchecked_const_iterator@V?$_List_val@U?$_List_simple_types@G@std@@@std@@U_Iterator_base0@2@@std@@@std@@@std@@QAE@ABV?$allocator@G@1@@Z 100dd7e0 f i CPlayerData.obj
 0002:000668c0       ??$?0ABV?$allocator@U?$pair@$$CBGV?$basic_string@DU?$char_traits@D@std@@V?$allocator@D@2@@std@@@std@@@std@@$$V@?$_Compressed_pair@V?$allocator@U?$_List_node@U?$pair@$$CBGV?$basic_string@DU?$char_traits@D@std@@V?$allocator@D@2@@std@@@std@@PAX@std@@@std@@V?$_List_val@U?$_List_simple_types@U?$pair@$$CBGV?$basic_string@DU?$char_traits@D@std@@V?$allocator@D@2@@std@@@std@@@std@@@2@$00@std@@QAE@U_One_then_variadic_args_t@1@ABV?$allocator@U?$pair@$$CBGV?$basic_string@DU?$char_traits@D@std@@V?$allocator@D@2@@std@@@std@@@1@@Z 100dd8c0 f i CPlayerData.obj
 0002:00066940       ??$?0ABV?$allocator@U?$pair@$$CBGV?$basic_string@DU?$char_traits@D@std@@V?$allocator@D@2@@std@@@std@@@std@@$$V@?$_Compressed_pair@V?$allocator@V?$_List_unchecked_iterator@V?$_List_val@U?$_List_simple_types@U?$pair@$$CBGV?$basic_string@DU?$char_traits@D@std@@V?$allocator@D@2@@std@@@std@@@std@@@std@@@std@@@std@@V?$_Vector_val@U?$_Simple_types@V?$_List_unchecked_iterator@V?$_List_val@U?$_List_simple_types@U?$pair@$$CBGV?$basic_string@DU?$char_traits@D@std@@V?$allocator@D@2@@std@@@std@@@std@@@std@@@std@@@std@@@2@$00@std@@QAE@U_One_then_variadic_args_t@1@ABV?$allocator@U?$pair@$$CBGV?$basic_string@DU?$char_traits@D@std@@V?$allocator@D@2@@std@@@std@@@1@@Z 100dd940 f i CPlayerData.obj
 0002:000669c0       ??$?0ABV?$allocator@U?$pair@$$CBGV?$basic_string@DU?$char_traits@D@std@@V?$allocator@D@2@@std@@@std@@@std@@$0A@@?$_Hash_vec@V?$allocator@V?$_List_unchecked_iterator@V?$_List_val@U?$_List_simple_types@U?$pair@$$CBGV?$basic_string@DU?$char_traits@D@std@@V?$allocator@D@2@@std@@@std@@@std@@@std@@@std@@@std@@@std@@QAE@ABV?$allocator@U?$pair@$$CBGV?$basic_string@DU?$char_traits@D@std@@V?$allocator@D@2@@std@@@std@@@1@@Z 100dd9c0 f i CPlayerData.obj
 0002:00066aa0       ??$?0ABV?$allocator@U?$pair@$$CBGV?$shared_ptr@VCPlayerObjectAttachAddon@@@std@@@std@@@std@@$$V@?$_Compressed_pair@V?$allocator@U?$_List_node@U?$pair@$$CBGV?$shared_ptr@VCPlayerObjectAttachAddon@@@std@@@std@@PAX@std@@@std@@V?$_List_val@U?$_List_simple_types@U?$pair@$$CBGV?$shared_ptr@VCPlayerObjectAttachAddon@@@std@@@std@@@std@@@2@$00@std@@QAE@U_One_then_variadic_args_t@1@ABV?$allocator@U?$pair@$$CBGV?$shared_ptr@VCPlayerObjectAttachAddon@@@std@@@std@@@1@@Z 100ddaa0 f i CPlayerData.obj
 0002:00066b20       ??$?0ABV?$allocator@U?$pair@$$CBGV?$shared_ptr@VCPlayerObjectAttachAddon@@@std@@@std@@@std@@$$V@?$_Compressed_pair@V?$allocator@V?$_List_unchecked_iterator@V?$_List_val@U?$_List_simple_types@U?$pair@$$CBGV?$shared_ptr@VCPlayerObjectAttachAddon@@@std@@@std@@@std@@@std@@@std@@@std@@V?$_Vector_val@U?$_Simple_types@V?$_List_unchecked_iterator@V?$_List_val@U?$_List_simple_types@U?$pair@$$CBGV?$shared_ptr@VCPlayerObjectAttachAddon@@@std@@@std@@@std@@@std@@@std@@@std@@@2@$00@std@@QAE@U_One_then_variadic_args_t@1@ABV?$allocator@U?$pair@$$CBGV?$shared_ptr@VCPlayerObjectAttachAddon@@@std@@@std@@@1@@Z 100ddb20 f i CPlayerData.obj
 0002:00066ba0       ??$?0ABV?$allocator@U?$pair@$$CBGV?$shared_ptr@VCPlayerObjectAttachAddon@@@std@@@std@@@std@@$0A@@?$_Hash_vec@V?$allocator@V?$_List_unchecked_iterator@V?$_List_val@U?$_List_simple_types@U?$pair@$$CBGV?$shared_ptr@VCPlayerObjectAttachAddon@@@std@@@std@@@std@@@std@@@std@@@std@@@std@@QAE@ABV?$allocator@U?$pair@$$CBGV?$shared_ptr@VCPlayerObjectAttachAddon@@@std@@@std@@@1@@Z 100ddba0 f i CPlayerData.obj
 0002:00066c80       ??$?0ABV?$allocator@U?$pair@$$CBGVCVector@@@std@@@std@@$$V@?$_Compressed_pair@V?$allocator@U?$_List_node@U?$pair@$$CBGVCVector@@@std@@PAX@std@@@std@@V?$_List_val@U?$_List_simple_types@U?$pair@$$CBGVCVector@@@std@@@std@@@2@$00@std@@QAE@U_One_then_variadic_args_t@1@ABV?$allocator@U?$pair@$$CBGVCVector@@@std@@@1@@Z 100ddc80 f i CPlayerData.obj
 0002:00066d00       ??$?0ABV?$allocator@U?$pair@$$CBGVCVector@@@std@@@std@@$$V@?$_Compressed_pair@V?$allocator@V?$_List_unchecked_iterator@V?$_List_val@U?$_List_simple_types@U?$pair@$$CBGVCVector@@@std@@@std@@@std@@@std@@@std@@V?$_Vector_val@U?$_Simple_types@V?$_List_unchecked_iterator@V?$_List_val@U?$_List_simple_types@U?$pair@$$CBGVCVector@@@std@@@std@@@std@@@std@@@std@@@2@$00@std@@QAE@U_One_then_variadic_args_t@1@ABV?$allocator@U?$pair@$$CBGVCVector@@@std@@@1@@Z 100ddd00 f i CPlayerData.obj
 0002:00066d80       ??$?0ABV?$allocator@U?$pair@$$CBGVCVector@@@std@@@std@@$0A@@?$_Hash_vec@V?$allocator@V?$_List_unchecked_iterator@V?$_List_val@U?$_List_simple_types@U?$pair@$$CBGVCVector@@@std@@@std@@@std@@@std@@@std@@@std@@QAE@ABV?$allocator@U?$pair@$$CBGVCVector@@@std@@@1@@Z 100ddd80 f i CPlayerData.obj
 0002:00066e60       ??$?0G@?$allocator@U?$_List_node@GPAX@std@@@std@@QAE@ABV?$allocator@G@1@@Z 100dde60 f i CPlayerData.obj
 0002:00066ec0       ??$?0G@?$allocator@V?$_List_unchecked_const_iterator@V?$_List_val@U?$_List_simple_types@G@std@@@std@@U_Iterator_base0@2@@std@@@std@@QAE@ABV?$allocator@G@1@@Z 100ddec0 f i CPlayerData.obj
 0002:00066f20       ??$?0PAU?$_List_node@U?$pair@$$CBGV?$basic_string@DU?$char_traits@D@std@@V?$allocator@D@2@@std@@@std@@PAX@std@@_N$0A@@?$pair@PAU?$_List_node@U?$pair@$$CBGV?$basic_string@DU?$char_traits@D@std@@V?$allocator@D@2@@std@@@std@@PAX@std@@_N@std@@QAE@$$QAPAU?$_List_node@U?$pair@$$CBGV?$basic_string@DU?$char_traits@D@std@@V?$allocator@D@2@@std@@@std@@PAX@1@$$QA_N@Z 100ddf20 f i CPlayerData.obj
 0002:00066fb0       ??$?0U?$_List_node@GPAX@std@@@?$allocator@U_Container_proxy@std@@@std@@QAE@ABV?$allocator@U?$_List_node@GPAX@std@@@1@@Z 100ddfb0 f i CPlayerData.obj
 0002:00067010       ??$?0U?$_List_node@U?$pair@$$CBGV?$basic_string@DU?$char_traits@D@std@@V?$allocator@D@2@@std@@@std@@PAX@std@@@?$allocator@U_Container_proxy@std@@@std@@QAE@ABV?$allocator@U?$_List_node@U?$pair@$$CBGV?$basic_string@DU?$char_traits@D@std@@V?$allocator@D@2@@std@@@std@@PAX@std@@@1@@Z 100de010 f i CPlayerData.obj
 0002:00067070       ??$?0U?$_List_node@U?$pair@$$CBGV?$shared_ptr@VCPlayerObjectAttachAddon@@@std@@@std@@PAX@std@@@?$allocator@U_Container_proxy@std@@@std@@QAE@ABV?$allocator@U?$_List_node@U?$pair@$$CBGV?$shared_ptr@VCPlayerObjectAttachAddon@@@std@@@std@@PAX@std@@@1@@Z 100de070 f i CPlayerData.obj
 0002:000670d0       ??$?0U?$_List_node@U?$pair@$$CBGVCVector@@@std@@PAX@std@@@?$allocator@U_Container_proxy@std@@@std@@QAE@ABV?$allocator@U?$_List_node@U?$pair@$$CBGVCVector@@@std@@PAX@std@@@1@@Z 100de0d0 f i CPlayerData.obj
 0002:00067130       ??$?0U?$_Tree_node@GPAX@std@@@?$allocator@U_Container_proxy@std@@@std@@QAE@ABV?$allocator@U?$_Tree_node@GPAX@std@@@1@@Z 100de130 f i CPlayerData.obj
 0002:00067190       ??$?0U?$_Tree_node@U?$pair@$$CBGU?$pair@EV?$basic_string@DU?$char_traits@D@std@@V?$allocator@D@2@@std@@@std@@@std@@PAX@std@@@?$allocator@U_Container_proxy@std@@@std@@QAE@ABV?$allocator@U?$_Tree_node@U?$pair@$$CBGU?$pair@EV?$basic_string@DU?$char_traits@D@std@@V?$allocator@D@2@@std@@@std@@@std@@PAX@std@@@1@@Z 100de190 f i CPlayerData.obj
 0002:000671f0       ??$?0U?$pair@$$CBGV?$basic_string@DU?$char_traits@D@std@@V?$allocator@D@2@@std@@@std@@@?$allocator@U?$_List_node@U?$pair@$$CBGV?$basic_string@DU?$char_traits@D@std@@V?$allocator@D@2@@std@@@std@@PAX@std@@@std@@QAE@ABV?$allocator@U?$pair@$$CBGV?$basic_string@DU?$char_traits@D@std@@V?$allocator@D@2@@std@@@std@@@1@@Z 100de1f0 f i CPlayerData.obj
 0002:00067250       ??$?0U?$pair@$$CBGV?$basic_string@DU?$char_traits@D@std@@V?$allocator@D@2@@std@@@std@@@?$allocator@V?$_List_unchecked_iterator@V?$_List_val@U?$_List_simple_types@U?$pair@$$CBGV?$basic_string@DU?$char_traits@D@std@@V?$allocator@D@2@@std@@@std@@@std@@@std@@@std@@@std@@QAE@ABV?$allocator@U?$pair@$$CBGV?$basic_string@DU?$char_traits@D@std@@V?$allocator@D@2@@std@@@std@@@1@@Z 100de250 f i CPlayerData.obj
 0002:000672b0       ??$?0U?$pair@$$CBGV?$shared_ptr@VCPlayerObjectAttachAddon@@@std@@@std@@@?$allocator@U?$_List_node@U?$pair@$$CBGV?$shared_ptr@VCPlayerObjectAttachAddon@@@std@@@std@@PAX@std@@@std@@QAE@ABV?$allocator@U?$pair@$$CBGV?$shared_ptr@VCPlayerObjectAttachAddon@@@std@@@std@@@1@@Z 100de2b0 f i CPlayerData.obj
 0002:00067310       ??$?0U?$pair@$$CBGV?$shared_ptr@VCPlayerObjectAttachAddon@@@std@@@std@@@?$allocator@V?$_List_unchecked_iterator@V?$_List_val@U?$_List_simple_types@U?$pair@$$CBGV?$shared_ptr@VCPlayerObjectAttachAddon@@@std@@@std@@@std@@@std@@@std@@@std@@QAE@ABV?$allocator@U?$pair@$$CBGV?$shared_ptr@VCPlayerObjectAttachAddon@@@std@@@std@@@1@@Z 100de310 f i CPlayerData.obj
 0002:00067370       ??$?0U?$pair@$$CBGVCVector@@@std@@@?$allocator@U?$_List_node@U?$pair@$$CBGVCVector@@@std@@PAX@std@@@std@@QAE@ABV?$allocator@U?$pair@$$CBGVCVector@@@std@@@1@@Z 100de370 f i CPlayerData.obj
 0002:000673d0       ??$?0U?$pair@$$CBGVCVector@@@std@@@?$allocator@V?$_List_unchecked_iterator@V?$_List_val@U?$_List_simple_types@U?$pair@$$CBGVCVector@@@std@@@std@@@std@@@std@@@std@@QAE@ABV?$allocator@U?$pair@$$CBGVCVector@@@std@@@1@@Z 100de3d0 f i CPlayerData.obj
 0002:00067430       ??$?0URemovedBuilding@CPlayerData@@@?$allocator@U_Container_proxy@std@@@std@@QAE@ABV?$allocator@URemovedBuilding@CPlayerData@@@1@@Z 100de430 f i CPlayerData.obj
 0002:00067490       ??$?0V?$_List_iterator@V?$_List_val@U?$_List_simple_types@G@std@@@std@@@std@@_N$0A@@?$pair@V?$_List_const_iterator@V?$_List_val@U?$_List_simple_types@G@std@@@std@@@std@@_N@std@@QAE@$$QAV?$_List_iterator@V?$_List_val@U?$_List_simple_types@G@std@@@std@@@1@$$QA_N@Z 100de490 f i CPlayerData.obj
 0002:00067520       ??$?0V?$_List_iterator@V?$_List_val@U?$_List_simple_types@U?$pair@$$CBGV?$shared_ptr@VCPlayerObjectAttachAddon@@@std@@@std@@@std@@@std@@@std@@_N$0A@@?$pair@V?$_List_iterator@V?$_List_val@U?$_List_simple_types@U?$pair@$$CBGV?$shared_ptr@VCPlayerObjectAttachAddon@@@std@@@std@@@std@@@std@@@std@@_N@std@@QAE@$$QAV?$_List_iterator@V?$_List_val@U?$_List_simple_types@U?$pair@$$CBGV?$shared_ptr@VCPlayerObjectAttachAddon@@@std@@@std@@@std@@@std@@@1@$$QA_N@Z 100de520 f i CPlayerData.obj
 0002:000675b0       ??$?0V?$_List_unchecked_const_iterator@V?$_List_val@U?$_List_simple_types@G@std@@@std@@U_Iterator_base0@2@@std@@@?$allocator@U_Container_proxy@std@@@std@@QAE@ABV?$allocator@V?$_List_unchecked_const_iterator@V?$_List_val@U?$_List_simple_types@G@std@@@std@@U_Iterator_base0@2@@std@@@1@@Z 100de5b0 f i CPlayerData.obj
 0002:00067610       ??$?0V?$_List_unchecked_iterator@V?$_List_val@U?$_List_simple_types@U?$pair@$$CBGV?$basic_string@DU?$char_traits@D@std@@V?$allocator@D@2@@std@@@std@@@std@@@std@@@std@@@?$allocator@U_Container_proxy@std@@@std@@QAE@ABV?$allocator@V?$_List_unchecked_iterator@V?$_List_val@U?$_List_simple_types@U?$pair@$$CBGV?$basic_string@DU?$char_traits@D@std@@V?$allocator@D@2@@std@@@std@@@std@@@std@@@std@@@1@@Z 100de610 f i CPlayerData.obj
 0002:00067670       ??$?0V?$_List_unchecked_iterator@V?$_List_val@U?$_List_simple_types@U?$pair@$$CBGV?$shared_ptr@VCPlayerObjectAttachAddon@@@std@@@std@@@std@@@std@@@std@@@?$allocator@U_Container_proxy@std@@@std@@QAE@ABV?$allocator@V?$_List_unchecked_iterator@V?$_List_val@U?$_List_simple_types@U?$pair@$$CBGV?$shared_ptr@VCPlayerObjectAttachAddon@@@std@@@std@@@std@@@std@@@std@@@1@@Z 100de670 f i CPlayerData.obj
 0002:000676d0       ??$?0V?$_List_unchecked_iterator@V?$_List_val@U?$_List_simple_types@U?$pair@$$CBGVCVector@@@std@@@std@@@std@@@std@@@?$allocator@U_Container_proxy@std@@@std@@QAE@ABV?$allocator@V?$_List_unchecked_iterator@V?$_List_val@U?$_List_simple_types@U?$pair@$$CBGVCVector@@@std@@@std@@@std@@@std@@@1@@Z 100de6d0 f i CPlayerData.obj
 0002:00067730       ??$?0V?$tuple@ABG@std@@V?$tuple@$$V@1@$0A@$$Z$S@?$pair@$$CBGV?$basic_string@DU?$char_traits@D@std@@V?$allocator@D@2@@std@@@std@@QAE@AAV?$tuple@ABG@1@AAV?$tuple@$$V@1@U?$integer_sequence@I$0A@@1@U?$integer_sequence@I$S@1@@Z 100de730 f i CPlayerData.obj
 0002:000677c0       ??$?0_J$0A@@?$duration@_JU?$ratio@$00$0DOI@@std@@@chrono@std@@QAE@AB_J@Z 100de7c0 f i CPlayerData.obj
 0002:00067830       ??$?GUsteady_clock@chrono@std@@V?$duration@_JU?$ratio@$00$0DLJKMKAA@@std@@@12@V312@@chrono@std@@YA?AV?$duration@_JU?$ratio@$00$0DLJKMKAA@@std@@@01@ABV?$time_point@Usteady_clock@chrono@std@@V?$duration@_JU?$ratio@$00$0DLJKMKAA@@std@@@23@@01@0@Z 100de830 f i CPlayerData.obj
 0002:000678c0       ??$?G_JU?$ratio@$00$0DLJKMKAA@@std@@_JU01@@chrono@std@@YA?AV?$duration@_JU?$ratio@$00$0DLJKMKAA@@std@@@01@ABV201@0@Z 100de8c0 f i CPlayerData.obj
 0002:00067990       ??$_Adl_verify_range@PAV?$_List_unchecked_const_iterator@V?$_List_val@U?$_List_simple_types@G@std@@@std@@U_Iterator_base0@2@@std@@PAV12@@std@@YAXABQAV?$_List_unchecked_const_iterator@V?$_List_val@U?$_List_simple_types@G@std@@@std@@U_Iterator_base0@2@@0@0@Z 100de990 f i CPlayerData.obj
 0002:000679f0       ??$_Adl_verify_range@PAV?$_List_unchecked_iterator@V?$_List_val@U?$_List_simple_types@U?$pair@$$CBGV?$basic_string@DU?$char_traits@D@std@@V?$allocator@D@2@@std@@@std@@@std@@@std@@@std@@PAV12@@std@@YAXABQAV?$_List_unchecked_iterator@V?$_List_val@U?$_List_simple_types@U?$pair@$$CBGV?$basic_string@DU?$char_traits@D@std@@V?$allocator@D@2@@std@@@std@@@std@@@std@@@0@0@Z 100de9f0 f i CPlayerData.obj
 0002:00067a50       ??$_Adl_verify_range@PAV?$_List_unchecked_iterator@V?$_List_val@U?$_List_simple_types@U?$pair@$$CBGV?$shared_ptr@VCPlayerObjectAttachAddon@@@std@@@std@@@std@@@std@@@std@@PAV12@@std@@YAXABQAV?$_List_unchecked_iterator@V?$_List_val@U?$_List_simple_types@U?$pair@$$CBGV?$shared_ptr@VCPlayerObjectAttachAddon@@@std@@@std@@@std@@@std@@@0@0@Z 100dea50 f i CPlayerData.obj
 0002:00067ab0       ??$_Buyheadnode@V?$allocator@U?$_Tree_node@GPAX@std@@@std@@@?$_Tree_node@GPAX@std@@SAPAU01@AAV?$allocator@U?$_Tree_node@GPAX@std@@@1@@Z 100deab0 f i CPlayerData.obj
 0002:00067ba0       ??$_Buyheadnode@V?$allocator@U?$_Tree_node@U?$pair@$$CBGU?$pair@EV?$basic_string@DU?$char_traits@D@std@@V?$allocator@D@2@@std@@@std@@@std@@PAX@std@@@std@@@?$_Tree_node@U?$pair@$$CBGU?$pair@EV?$basic_string@DU?$char_traits@D@std@@V?$allocator@D@2@@std@@@std@@@std@@PAX@std@@SAPAU01@AAV?$allocator@U?$_Tree_node@U?$pair@$$CBGU?$pair@EV?$basic_string@DU?$char_traits@D@std@@V?$allocator@D@2@@std@@@std@@@std@@PAX@std@@@1@@Z 100deba0 f i CPlayerData.obj
 0002:00067c90       ??$_Construct_in_place@PAU?$_List_node@GPAX@std@@AAPAU12@@std@@YAXAAPAU?$_List_node@GPAX@0@0@Z 100dec90 f i CPlayerData.obj
 0002:00067d30       ??$_Construct_in_place@PAU?$_List_node@GPAX@std@@ABQAU12@@std@@YAXAAPAU?$_List_node@GPAX@0@ABQAU10@@Z 100ded30 f i CPlayerData.obj
 0002:00067dd0       ??$_Construct_in_place@PAU?$_List_node@U?$pair@$$CBGV?$basic_string@DU?$char_traits@D@std@@V?$allocator@D@2@@std@@@std@@PAX@std@@AAPAU12@@std@@YAXAAPAU?$_List_node@U?$pair@$$CBGV?$basic_string@DU?$char_traits@D@std@@V?$allocator@D@2@@std@@@std@@PAX@0@0@Z 100dedd0 f i CPlayerData.obj
 0002:00067e70       ??$_Construct_in_place@PAU?$_List_node@U?$pair@$$CBGV?$basic_string@DU?$char_traits@D@std@@V?$allocator@D@2@@std@@@std@@PAX@std@@ABQAU12@@std@@YAXAAPAU?$_List_node@U?$pair@$$CBGV?$basic_string@DU?$char_traits@D@std@@V?$allocator@D@2@@std@@@std@@PAX@0@ABQAU10@@Z 100dee70 f i CPlayerData.obj
 0002:00067f10       ??$_Construct_in_place@PAU?$_List_node@U?$pair@$$CBGV?$shared_ptr@VCPlayerObjectAttachAddon@@@std@@@std@@PAX@std@@AAPAU12@@std@@YAXAAPAU?$_List_node@U?$pair@$$CBGV?$shared_ptr@VCPlayerObjectAttachAddon@@@std@@@std@@PAX@0@0@Z 100def10 f i CPlayerData.obj
 0002:00067fb0       ??$_Construct_in_place@PAU?$_List_node@U?$pair@$$CBGV?$shared_ptr@VCPlayerObjectAttachAddon@@@std@@@std@@PAX@std@@ABQAU12@@std@@YAXAAPAU?$_List_node@U?$pair@$$CBGV?$shared_ptr@VCPlayerObjectAttachAddon@@@std@@@std@@PAX@0@ABQAU10@@Z 100defb0 f i CPlayerData.obj
 0002:00068050       ??$_Construct_in_place@PAU?$_List_node@U?$pair@$$CBGVCVector@@@std@@PAX@std@@AAPAU12@@std@@YAXAAPAU?$_List_node@U?$pair@$$CBGVCVector@@@std@@PAX@0@0@Z 100df050 f i CPlayerData.obj
 0002:000680f0       ??$_Construct_in_place@PAU?$_Tree_node@GPAX@std@@ABQAU12@@std@@YAXAAPAU?$_Tree_node@GPAX@0@ABQAU10@@Z 100df0f0 f i CPlayerData.obj
 0002:00068190       ??$_Construct_in_place@PAU?$_Tree_node@U?$pair@$$CBGU?$pair@EV?$basic_string@DU?$char_traits@D@std@@V?$allocator@D@2@@std@@@std@@@std@@PAX@std@@ABQAU12@@std@@YAXAAPAU?$_Tree_node@U?$pair@$$CBGU?$pair@EV?$basic_string@DU?$char_traits@D@std@@V?$allocator@D@2@@std@@@std@@@std@@PAX@0@ABQAU10@@Z 100df190 f i CPlayerData.obj
 0002:00068230       ??$_Construct_in_place@V?$_List_unchecked_const_iterator@V?$_List_val@U?$_List_simple_types@G@std@@@std@@U_Iterator_base0@2@@std@@ABV12@@std@@YAXAAV?$_List_unchecked_const_iterator@V?$_List_val@U?$_List_simple_types@G@std@@@std@@U_Iterator_base0@2@@0@ABV10@@Z 100df230 f i CPlayerData.obj
 0002:000682d0       ??$_Construct_in_place@V?$_List_unchecked_iterator@V?$_List_val@U?$_List_simple_types@U?$pair@$$CBGV?$basic_string@DU?$char_traits@D@std@@V?$allocator@D@2@@std@@@std@@@std@@@std@@@std@@ABV12@@std@@YAXAAV?$_List_unchecked_iterator@V?$_List_val@U?$_List_simple_types@U?$pair@$$CBGV?$basic_string@DU?$char_traits@D@std@@V?$allocator@D@2@@std@@@std@@@std@@@std@@@0@ABV10@@Z 100df2d0 f i CPlayerData.obj
 0002:00068370       ??$_Construct_in_place@V?$_List_unchecked_iterator@V?$_List_val@U?$_List_simple_types@U?$pair@$$CBGV?$shared_ptr@VCPlayerObjectAttachAddon@@@std@@@std@@@std@@@std@@@std@@ABV12@@std@@YAXAAV?$_List_unchecked_iterator@V?$_List_val@U?$_List_simple_types@U?$pair@$$CBGV?$shared_ptr@VCPlayerObjectAttachAddon@@@std@@@std@@@std@@@std@@@0@ABV10@@Z 100df370 f i CPlayerData.obj
 0002:00068410       ??$_Construct_in_place@VCPlayerObjectAttachAddon@@$$V@std@@YAXAAVCPlayerObjectAttachAddon@@@Z 100df410 f i CPlayerData.obj
 0002:000684b0       ??$_Copy_construct_from@VCPlayerObjectAttachAddon@@@?$_Ptr_base@VCPlayerObjectAttachAddon@@@std@@IAEXABV?$shared_ptr@VCPlayerObjectAttachAddon@@@1@@Z 100df4b0 f i CPlayerData.obj
 0002:00068530       ??$_Destroy_in_place@PAU?$_List_node@GPAX@std@@@std@@YAXAAPAU?$_List_node@GPAX@0@@Z 100df530 f i CPlayerData.obj
 0002:00068580       ??$_Destroy_in_place@PAU?$_List_node@U?$pair@$$CBGV?$basic_string@DU?$char_traits@D@std@@V?$allocator@D@2@@std@@@std@@PAX@std@@@std@@YAXAAPAU?$_List_node@U?$pair@$$CBGV?$basic_string@DU?$char_traits@D@std@@V?$allocator@D@2@@std@@@std@@PAX@0@@Z 100df580 f i CPlayerData.obj
 0002:000685d0       ??$_Destroy_in_place@PAU?$_List_node@U?$pair@$$CBGV?$shared_ptr@VCPlayerObjectAttachAddon@@@std@@@std@@PAX@std@@@std@@YAXAAPAU?$_List_node@U?$pair@$$CBGV?$shared_ptr@VCPlayerObjectAttachAddon@@@std@@@std@@PAX@0@@Z 100df5d0 f i CPlayerData.obj
 0002:00068620       ??$_Destroy_in_place@PAU?$_Tree_node@U?$pair@$$CBGU?$pair@EV?$basic_string@DU?$char_traits@D@std@@V?$allocator@D@2@@std@@@std@@@std@@PAX@std@@@std@@YAXAAPAU?$_Tree_node@U?$pair@$$CBGU?$pair@EV?$basic_string@DU?$char_traits@D@std@@V?$allocator@D@2@@std@@@std@@@std@@PAX@0@@Z 100df620 f i CPlayerData.obj
 0002:00068670       ??$_Destroy_in_place@VCPlayerObjectAttachAddon@@@std@@YAXAAVCPlayerObjectAttachAddon@@@Z 100df670 f i CPlayerData.obj
 0002:000686c0       ??$_Destroy_range@PAV?$_List_unchecked_const_iterator@V?$_List_val@U?$_List_simple_types@G@std@@@std@@U_Iterator_base0@2@@std@@PAV12@@std@@YAXPAV?$_List_unchecked_const_iterator@V?$_List_val@U?$_List_simple_types@G@std@@@std@@U_Iterator_base0@2@@0@QAV10@@Z 100df6c0 f i CPlayerData.obj
 0002:00068710       ??$_Destroy_range@PAV?$_List_unchecked_iterator@V?$_List_val@U?$_List_simple_types@U?$pair@$$CBGV?$basic_string@DU?$char_traits@D@std@@V?$allocator@D@2@@std@@@std@@@std@@@std@@@std@@PAV12@@std@@YAXPAV?$_List_unchecked_iterator@V?$_List_val@U?$_List_simple_types@U?$pair@$$CBGV?$basic_string@DU?$char_traits@D@std@@V?$allocator@D@2@@std@@@std@@@std@@@std@@@0@QAV10@@Z 100df710 f i CPlayerData.obj
 0002:00068760       ??$_Destroy_range@PAV?$_List_unchecked_iterator@V?$_List_val@U?$_List_simple_types@U?$pair@$$CBGV?$shared_ptr@VCPlayerObjectAttachAddon@@@std@@@std@@@std@@@std@@@std@@PAV12@@std@@YAXPAV?$_List_unchecked_iterator@V?$_List_val@U?$_List_simple_types@U?$pair@$$CBGV?$shared_ptr@VCPlayerObjectAttachAddon@@@std@@@std@@@std@@@std@@@0@QAV10@@Z 100df760 f i CPlayerData.obj
 0002:000687b0       ??$_Destroy_range@V?$allocator@URemovedBuilding@CPlayerData@@@std@@@std@@YAXPAURemovedBuilding@CPlayerData@@QAU12@AAV?$allocator@URemovedBuilding@CPlayerData@@@0@@Z 100df7b0 f i CPlayerData.obj
 0002:00068800       ??$_Emplace_back@AAURemovedBuilding@CPlayerData@@@?$_Uninitialized_backout_al@V?$allocator@URemovedBuilding@CPlayerData@@@std@@@std@@QAEXAAURemovedBuilding@CPlayerData@@@Z 100df800 f i CPlayerData.obj
 0002:000688a0       ??$_Emplace_back@ABV?$_List_unchecked_const_iterator@V?$_List_val@U?$_List_simple_types@G@std@@@std@@U_Iterator_base0@2@@std@@@?$_Uninitialized_backout@PAV?$_List_unchecked_const_iterator@V?$_List_val@U?$_List_simple_types@G@std@@@std@@U_Iterator_base0@2@@std@@@std@@QAEXABV?$_List_unchecked_const_iterator@V?$_List_val@U?$_List_simple_types@G@std@@@std@@U_Iterator_base0@2@@1@@Z 100df8a0 f i CPlayerData.obj
 0002:00068930       ??$_Emplace_back@ABV?$_List_unchecked_iterator@V?$_List_val@U?$_List_simple_types@U?$pair@$$CBGV?$basic_string@DU?$char_traits@D@std@@V?$allocator@D@2@@std@@@std@@@std@@@std@@@std@@@?$_Uninitialized_backout@PAV?$_List_unchecked_iterator@V?$_List_val@U?$_List_simple_types@U?$pair@$$CBGV?$basic_string@DU?$char_traits@D@std@@V?$allocator@D@2@@std@@@std@@@std@@@std@@@std@@@std@@QAEXABV?$_List_unchecked_iterator@V?$_List_val@U?$_List_simple_types@U?$pair@$$CBGV?$basic_string@DU?$char_traits@D@std@@V?$allocator@D@2@@std@@@std@@@std@@@std@@@1@@Z 100df930 f i CPlayerData.obj
 0002:000689c0       ??$_Emplace_back@ABV?$_List_unchecked_iterator@V?$_List_val@U?$_List_simple_types@U?$pair@$$CBGV?$shared_ptr@VCPlayerObjectAttachAddon@@@std@@@std@@@std@@@std@@@std@@@?$_Uninitialized_backout@PAV?$_List_unchecked_iterator@V?$_List_val@U?$_List_simple_types@U?$pair@$$CBGV?$shared_ptr@VCPlayerObjectAttachAddon@@@std@@@std@@@std@@@std@@@std@@@std@@QAEXABV?$_List_unchecked_iterator@V?$_List_val@U?$_List_simple_types@U?$pair@$$CBGV?$shared_ptr@VCPlayerObjectAttachAddon@@@std@@@std@@@std@@@std@@@1@@Z 100df9c0 f i CPlayerData.obj
 0002:00068a50       ??$_Emplace_back@URemovedBuilding@CPlayerData@@@?$_Uninitialized_backout_al@V?$allocator@URemovedBuilding@CPlayerData@@@std@@@std@@QAEX$$QAURemovedBuilding@CPlayerData@@@Z 100dfa50 f i CPlayerData.obj
 0002:00068af0       ??$_Emplace_back_with_unused_capacity@AAHABVCVector@@AAM@?$vector@URemovedBuilding@CPlayerData@@V?$allocator@URemovedBuilding@CPlayerData@@@std@@@std@@AAE?A_TAAHABVCVector@@AAM@Z 100dfaf0 f i CPlayerData.obj
 0002:00068be0       ??$_Emplace_reallocate@AAHABVCVector@@AAM@?$vector@URemovedBuilding@CPlayerData@@V?$allocator@URemovedBuilding@CPlayerData@@@std@@@std@@QAEPAURemovedBuilding@CPlayerData@@QAU23@AAHABVCVector@@AAM@Z 100dfbe0 f i CPlayerData.obj
 0002:00068ed0       ??$_Erase_head@V?$allocator@U?$_Tree_node@GPAX@std@@@std@@@?$_Tree_val@U?$_Tree_simple_types@G@std@@@std@@QAEXAAV?$allocator@U?$_Tree_node@GPAX@std@@@1@@Z 100dfed0 f i CPlayerData.obj
 0002:00068f60       ??$_Erase_head@V?$allocator@U?$_Tree_node@U?$pair@$$CBGU?$pair@EV?$basic_string@DU?$char_traits@D@std@@V?$allocator@D@2@@std@@@std@@@std@@PAX@std@@@std@@@?$_Tree_val@U?$_Tree_simple_types@U?$pair@$$CBGU?$pair@EV?$basic_string@DU?$char_traits@D@std@@V?$allocator@D@2@@std@@@std@@@std@@@std@@@std@@QAEXAAV?$allocator@U?$_Tree_node@U?$pair@$$CBGU?$pair@EV?$basic_string@DU?$char_traits@D@std@@V?$allocator@D@2@@std@@@std@@@std@@PAX@std@@@1@@Z 100dff60 f i CPlayerData.obj
 0002:00068ff0       ??$_Erase_tree@V?$allocator@U?$_Tree_node@U?$pair@$$CBGU?$pair@EV?$basic_string@DU?$char_traits@D@std@@V?$allocator@D@2@@std@@@std@@@std@@PAX@std@@@std@@@?$_Tree_val@U?$_Tree_simple_types@U?$pair@$$CBGU?$pair@EV?$basic_string@DU?$char_traits@D@std@@V?$allocator@D@2@@std@@@std@@@std@@@std@@@std@@QAEXAAV?$allocator@U?$_Tree_node@U?$pair@$$CBGU?$pair@EV?$basic_string@DU?$char_traits@D@std@@V?$allocator@D@2@@std@@@std@@@std@@PAX@std@@@1@PAU?$_Tree_node@U?$pair@$$CBGU?$pair@EV?$basic_string@DU?$char_traits@D@std@@V?$allocator@D@2@@std@@@std@@@std@@PAX@1@@Z 100dfff0 f i CPlayerData.obj
 0002:00069090       ??$_Find@G@?$_Hash@V?$_Umap_traits@GV?$basic_string@DU?$char_traits@D@std@@V?$allocator@D@2@@std@@V?$_Uhash_compare@GU?$hash@G@std@@U?$equal_to@G@2@@2@V?$allocator@U?$pair@$$CBGV?$basic_string@DU?$char_traits@D@std@@V?$allocator@D@2@@std@@@std@@@2@$0A@@std@@@std@@ABEPAU?$_List_node@U?$pair@$$CBGV?$basic_string@DU?$char_traits@D@std@@V?$allocator@D@2@@std@@@std@@PAX@1@ABGI@Z 100e0090 f i CPlayerData.obj
 0002:00069120       ??$_Find@G@?$_Hash@V?$_Umap_traits@GV?$shared_ptr@VCPlayerObjectAttachAddon@@@std@@V?$_Uhash_compare@GU?$hash@G@std@@U?$equal_to@G@2@@2@V?$allocator@U?$pair@$$CBGV?$shared_ptr@VCPlayerObjectAttachAddon@@@std@@@std@@@2@$0A@@std@@@std@@ABEPAU?$_List_node@U?$pair@$$CBGV?$shared_ptr@VCPlayerObjectAttachAddon@@@std@@@std@@PAX@1@ABGI@Z 100e0120 f i CPlayerData.obj
 0002:000691b0       ??$_Find@G@?$_Hash@V?$_Uset_traits@GV?$_Uhash_compare@GU?$hash@G@std@@U?$equal_to@G@2@@std@@V?$allocator@G@2@$0A@@std@@@std@@ABEPAU?$_List_node@GPAX@1@ABGI@Z 100e01b0 f i CPlayerData.obj
 0002:00069240       ??$_Find_last@G@?$_Hash@V?$_Umap_traits@GV?$basic_string@DU?$char_traits@D@std@@V?$allocator@D@2@@std@@V?$_Uhash_compare@GU?$hash@G@std@@U?$equal_to@G@2@@2@V?$allocator@U?$pair@$$CBGV?$basic_string@DU?$char_traits@D@std@@V?$allocator@D@2@@std@@@std@@@2@$0A@@std@@@std@@IBE?AU?$_Hash_find_last_result@PAU?$_List_node@U?$pair@$$CBGV?$basic_string@DU?$char_traits@D@std@@V?$allocator@D@2@@std@@@std@@PAX@std@@@1@ABGI@Z 100e0240 f i CPlayerData.obj
 0002:00069380       ??$_Find_last@G@?$_Hash@V?$_Umap_traits@GV?$shared_ptr@VCPlayerObjectAttachAddon@@@std@@V?$_Uhash_compare@GU?$hash@G@std@@U?$equal_to@G@2@@2@V?$allocator@U?$pair@$$CBGV?$shared_ptr@VCPlayerObjectAttachAddon@@@std@@@std@@@2@$0A@@std@@@std@@IBE?AU?$_Hash_find_last_result@PAU?$_List_node@U?$pair@$$CBGV?$shared_ptr@VCPlayerObjectAttachAddon@@@std@@@std@@PAX@std@@@1@ABGI@Z 100e0380 f i CPlayerData.obj
 0002:000694c0       ??$_Find_last@G@?$_Hash@V?$_Uset_traits@GV?$_Uhash_compare@GU?$hash@G@std@@U?$equal_to@G@2@@std@@V?$allocator@G@2@$0A@@std@@@std@@IBE?AU?$_Hash_find_last_result@PAU?$_List_node@GPAX@std@@@1@ABGI@Z 100e04c0 f i CPlayerData.obj
 0002:00069600       ??$_Free_non_head@V?$allocator@U?$_List_node@GPAX@std@@@std@@@?$_List_node@GPAX@std@@SAXAAV?$allocator@U?$_List_node@GPAX@std@@@1@PAU01@@Z 100e0600 f i CPlayerData.obj
 0002:000696a0       ??$_Free_non_head@V?$allocator@U?$_List_node@U?$pair@$$CBGV?$basic_string@DU?$char_traits@D@std@@V?$allocator@D@2@@std@@@std@@PAX@std@@@std@@@?$_List_node@U?$pair@$$CBGV?$basic_string@DU?$char_traits@D@std@@V?$allocator@D@2@@std@@@std@@PAX@std@@SAXAAV?$allocator@U?$_List_node@U?$pair@$$CBGV?$basic_string@DU?$char_traits@D@std@@V?$allocator@D@2@@std@@@std@@PAX@std@@@1@PAU01@@Z 100e06a0 f i CPlayerData.obj
 0002:00069740       ??$_Free_non_head@V?$allocator@U?$_List_node@U?$pair@$$CBGV?$shared_ptr@VCPlayerObjectAttachAddon@@@std@@@std@@PAX@std@@@std@@@?$_List_node@U?$pair@$$CBGV?$shared_ptr@VCPlayerObjectAttachAddon@@@std@@@std@@PAX@std@@SAXAAV?$allocator@U?$_List_node@U?$pair@$$CBGV?$shared_ptr@VCPlayerObjectAttachAddon@@@std@@@std@@PAX@std@@@1@PAU01@@Z 100e0740 f i CPlayerData.obj
 0002:000697e0       ??$_Freenode0@V?$allocator@U?$_List_node@GPAX@std@@@std@@@?$_List_node@GPAX@std@@SAXAAV?$allocator@U?$_List_node@GPAX@std@@@1@PAU01@@Z 100e07e0 f i CPlayerData.obj
 0002:000698a0       ??$_Freenode0@V?$allocator@U?$_List_node@U?$pair@$$CBGV?$basic_string@DU?$char_traits@D@std@@V?$allocator@D@2@@std@@@std@@PAX@std@@@std@@@?$_List_node@U?$pair@$$CBGV?$basic_string@DU?$char_traits@D@std@@V?$allocator@D@2@@std@@@std@@PAX@std@@SAXAAV?$allocator@U?$_List_node@U?$pair@$$CBGV?$basic_string@DU?$char_traits@D@std@@V?$allocator@D@2@@std@@@std@@PAX@std@@@1@PAU01@@Z 100e08a0 f i CPlayerData.obj
 0002:00069960       ??$_Freenode0@V?$allocator@U?$_List_node@U?$pair@$$CBGV?$shared_ptr@VCPlayerObjectAttachAddon@@@std@@@std@@PAX@std@@@std@@@?$_List_node@U?$pair@$$CBGV?$shared_ptr@VCPlayerObjectAttachAddon@@@std@@@std@@PAX@std@@SAXAAV?$allocator@U?$_List_node@U?$pair@$$CBGV?$shared_ptr@VCPlayerObjectAttachAddon@@@std@@@std@@PAX@std@@@1@PAU01@@Z 100e0960 f i CPlayerData.obj
 0002:00069a20       ??$_Freenode0@V?$allocator@U?$_Tree_node@U?$pair@$$CBGU?$pair@EV?$basic_string@DU?$char_traits@D@std@@V?$allocator@D@2@@std@@@std@@@std@@PAX@std@@@std@@@?$_Tree_node@U?$pair@$$CBGU?$pair@EV?$basic_string@DU?$char_traits@D@std@@V?$allocator@D@2@@std@@@std@@@std@@PAX@std@@SAXAAV?$allocator@U?$_Tree_node@U?$pair@$$CBGU?$pair@EV?$basic_string@DU?$char_traits@D@std@@V?$allocator@D@2@@std@@@std@@@std@@PAX@std@@@1@PAU01@@Z 100e0a20 f i CPlayerData.obj
 0002:00069af0       ??$_Freenode@V?$allocator@U?$_List_node@GPAX@std@@@std@@@?$_List_node@GPAX@std@@SAXAAV?$allocator@U?$_List_node@GPAX@std@@@1@PAU01@@Z 100e0af0 f i CPlayerData.obj
 0002:00069bb0       ??$_Freenode@V?$allocator@U?$_List_node@U?$pair@$$CBGV?$basic_string@DU?$char_traits@D@std@@V?$allocator@D@2@@std@@@std@@PAX@std@@@std@@@?$_List_node@U?$pair@$$CBGV?$basic_string@DU?$char_traits@D@std@@V?$allocator@D@2@@std@@@std@@PAX@std@@SAXAAV?$allocator@U?$_List_node@U?$pair@$$CBGV?$basic_string@DU?$char_traits@D@std@@V?$allocator@D@2@@std@@@std@@PAX@std@@@1@PAU01@@Z 100e0bb0 f i CPlayerData.obj
 0002:00069c70       ??$_Freenode@V?$allocator@U?$_List_node@U?$pair@$$CBGV?$shared_ptr@VCPlayerObjectAttachAddon@@@std@@@std@@PAX@std@@@std@@@?$_List_node@U?$pair@$$CBGV?$shared_ptr@VCPlayerObjectAttachAddon@@@std@@@std@@PAX@std@@SAXAAV?$allocator@U?$_List_node@U?$pair@$$CBGV?$shared_ptr@VCPlayerObjectAttachAddon@@@std@@@std@@PAX@std@@@1@PAU01@@Z 100e0c70 f i CPlayerData.obj
 0002:00069d30       ??$_Freenode@V?$allocator@U?$_Tree_node@U?$pair@$$CBGU?$pair@EV?$basic_string@DU?$char_traits@D@std@@V?$allocator@D@2@@std@@@std@@@std@@PAX@std@@@std@@@?$_Tree_node@U?$pair@$$CBGU?$pair@EV?$basic_string@DU?$char_traits@D@std@@V?$allocator@D@2@@std@@@std@@@std@@PAX@std@@SAXAAV?$allocator@U?$_Tree_node@U?$pair@$$CBGU?$pair@EV?$basic_string@DU?$char_traits@D@std@@V?$allocator@D@2@@std@@@std@@@std@@PAX@std@@@1@PAU01@@Z 100e0d30 f i CPlayerData.obj
 0002:00069df0       ??$_Get_size_of_n@$0CI@@std@@YAII@Z 100e0df0 f i CPlayerData.obj
 0002:00069e60       ??$_Get_size_of_n@$0M@@std@@YAII@Z 100e0e60 f i CPlayerData.obj
 0002:00069ed0       ??$_Get_unwrapped@ABQAURemovedBuilding@CPlayerData@@@std@@YA?A_TABQAURemovedBuilding@CPlayerData@@@Z 100e0ed0 f i CPlayerData.obj
 0002:00069f20       ??$_Get_unwrapped@ABQAV?$_List_unchecked_const_iterator@V?$_List_val@U?$_List_simple_types@G@std@@@std@@U_Iterator_base0@2@@std@@@std@@YA?A_TABQAV?$_List_unchecked_const_iterator@V?$_List_val@U?$_List_simple_types@G@std@@@std@@U_Iterator_base0@2@@0@@Z 100e0f20 f i CPlayerData.obj
 0002:00069f70       ??$_Get_unwrapped@ABQAV?$_List_unchecked_iterator@V?$_List_val@U?$_List_simple_types@U?$pair@$$CBGV?$basic_string@DU?$char_traits@D@std@@V?$allocator@D@2@@std@@@std@@@std@@@std@@@std@@@std@@YA?A_TABQAV?$_List_unchecked_iterator@V?$_List_val@U?$_List_simple_types@U?$pair@$$CBGV?$basic_string@DU?$char_traits@D@std@@V?$allocator@D@2@@std@@@std@@@std@@@std@@@0@@Z 100e0f70 f i CPlayerData.obj
 0002:00069fc0       ??$_Get_unwrapped@ABQAV?$_List_unchecked_iterator@V?$_List_val@U?$_List_simple_types@U?$pair@$$CBGV?$shared_ptr@VCPlayerObjectAttachAddon@@@std@@@std@@@std@@@std@@@std@@@std@@YA?A_TABQAV?$_List_unchecked_iterator@V?$_List_val@U?$_List_simple_types@U?$pair@$$CBGV?$shared_ptr@VCPlayerObjectAttachAddon@@@std@@@std@@@std@@@std@@@0@@Z 100e0fc0 f i CPlayerData.obj
 0002:0006a010       ??$_Kfn@$$CBGV?$basic_string@DU?$char_traits@D@std@@V?$allocator@D@2@@std@@@?$_Umap_traits@GV?$basic_string@DU?$char_traits@D@std@@V?$allocator@D@2@@std@@V?$_Uhash_compare@GU?$hash@G@std@@U?$equal_to@G@2@@2@V?$allocator@U?$pair@$$CBGV?$basic_string@DU?$char_traits@D@std@@V?$allocator@D@2@@std@@@std@@@2@$0A@@std@@SAABGABU?$pair@$$CBGV?$basic_string@DU?$char_traits@D@std@@V?$allocator@D@2@@std@@@1@@Z 100e1010 f i CPlayerData.obj
 0002:0006a060       ??$_Kfn@$$CBGV?$shared_ptr@VCPlayerObjectAttachAddon@@@std@@@?$_Umap_traits@GV?$shared_ptr@VCPlayerObjectAttachAddon@@@std@@V?$_Uhash_compare@GU?$hash@G@std@@U?$equal_to@G@2@@2@V?$allocator@U?$pair@$$CBGV?$shared_ptr@VCPlayerObjectAttachAddon@@@std@@@std@@@2@$0A@@std@@SAABGABU?$pair@$$CBGV?$shared_ptr@VCPlayerObjectAttachAddon@@@std@@@1@@Z 100e1060 f i CPlayerData.obj
 0002:0006a0b0       ??$_Move_construct_from@VCPlayerObjectAttachAddon@@@?$_Ptr_base@VCPlayerObjectAttachAddon@@@std@@IAEX$$QAV01@@Z 100e10b0 f i CPlayerData.obj
 0002:0006a140       ??$_Set_ptr_rep_and_enable_shared@VCPlayerObjectAttachAddon@@@?$shared_ptr@VCPlayerObjectAttachAddon@@@std@@AAEXQAVCPlayerObjectAttachAddon@@QAV_Ref_count_base@1@@Z 100e1140 f i CPlayerData.obj
 0002:0006a1b0       ??$_Try_emplace@ABG$$V@?$_Hash@V?$_Umap_traits@GV?$basic_string@DU?$char_traits@D@std@@V?$allocator@D@2@@std@@V?$_Uhash_compare@GU?$hash@G@std@@U?$equal_to@G@2@@2@V?$allocator@U?$pair@$$CBGV?$basic_string@DU?$char_traits@D@std@@V?$allocator@D@2@@std@@@std@@@2@$0A@@std@@@std@@IAE?AU?$pair@PAU?$_List_node@U?$pair@$$CBGV?$basic_string@DU?$char_traits@D@std@@V?$allocator@D@2@@std@@@std@@PAX@std@@_N@1@ABG@Z 100e11b0 f i CPlayerData.obj
 0002:0006a420       ??$_Unfancy@URemovedBuilding@CPlayerData@@@std@@YAPAURemovedBuilding@CPlayerData@@PAU12@@Z 100e1420 f i CPlayerData.obj
 0002:0006a470       ??$_Uninitialized_copy@PAURemovedBuilding@CPlayerData@@V?$allocator@URemovedBuilding@CPlayerData@@@std@@@std@@YAPAURemovedBuilding@CPlayerData@@QAU12@0PAU12@AAV?$allocator@URemovedBuilding@CPlayerData@@@0@@Z 100e1470 f i CPlayerData.obj
 0002:0006a5c0       ??$_Uninitialized_move@PAURemovedBuilding@CPlayerData@@V?$allocator@URemovedBuilding@CPlayerData@@@std@@@std@@YAPAURemovedBuilding@CPlayerData@@QAU12@0PAU12@AAV?$allocator@URemovedBuilding@CPlayerData@@@0@@Z 100e15c0 f i CPlayerData.obj
 0002:0006a720       ??$_Verify_range@V?$_List_unchecked_const_iterator@V?$_List_val@U?$_List_simple_types@G@std@@@std@@U_Iterator_base0@2@@std@@@std@@YAXQBV?$_List_unchecked_const_iterator@V?$_List_val@U?$_List_simple_types@G@std@@@std@@U_Iterator_base0@2@@0@0@Z 100e1720 f i CPlayerData.obj
 0002:0006a7f0       ??$_Verify_range@V?$_List_unchecked_iterator@V?$_List_val@U?$_List_simple_types@U?$pair@$$CBGV?$basic_string@DU?$char_traits@D@std@@V?$allocator@D@2@@std@@@std@@@std@@@std@@@std@@@std@@YAXQBV?$_List_unchecked_iterator@V?$_List_val@U?$_List_simple_types@U?$pair@$$CBGV?$basic_string@DU?$char_traits@D@std@@V?$allocator@D@2@@std@@@std@@@std@@@std@@@0@0@Z 100e17f0 f i CPlayerData.obj
 0002:0006a8c0       ??$_Verify_range@V?$_List_unchecked_iterator@V?$_List_val@U?$_List_simple_types@U?$pair@$$CBGV?$shared_ptr@VCPlayerObjectAttachAddon@@@std@@@std@@@std@@@std@@@std@@@std@@YAXQBV?$_List_unchecked_iterator@V?$_List_val@U?$_List_simple_types@U?$pair@$$CBGV?$shared_ptr@VCPlayerObjectAttachAddon@@@std@@@std@@@std@@@std@@@0@0@Z 100e18c0 f i CPlayerData.obj
 0002:0006a990       ??$_Voidify_iter@PAPAU?$_List_node@GPAX@std@@@std@@YAPAXPAPAU?$_List_node@GPAX@0@@Z 100e1990 f i CPlayerData.obj
 0002:0006a9e0       ??$_Voidify_iter@PAPAU?$_List_node@U?$pair@$$CBGV?$basic_string@DU?$char_traits@D@std@@V?$allocator@D@2@@std@@@std@@PAX@std@@@std@@YAPAXPAPAU?$_List_node@U?$pair@$$CBGV?$basic_string@DU?$char_traits@D@std@@V?$allocator@D@2@@std@@@std@@PAX@0@@Z 100e19e0 f i CPlayerData.obj
 0002:0006aa30       ??$_Voidify_iter@PAPAU?$_List_node@U?$pair@$$CBGV?$shared_ptr@VCPlayerObjectAttachAddon@@@std@@@std@@PAX@std@@@std@@YAPAXPAPAU?$_List_node@U?$pair@$$CBGV?$shared_ptr@VCPlayerObjectAttachAddon@@@std@@@std@@PAX@0@@Z 100e1a30 f i CPlayerData.obj
 0002:0006aa80       ??$_Voidify_iter@PAPAU?$_Tree_node@U?$pair@$$CBGU?$pair@EV?$basic_string@DU?$char_traits@D@std@@V?$allocator@D@2@@std@@@std@@@std@@PAX@std@@@std@@YAPAXPAPAU?$_Tree_node@U?$pair@$$CBGU?$pair@EV?$basic_string@DU?$char_traits@D@std@@V?$allocator@D@2@@std@@@std@@@std@@PAX@0@@Z 100e1a80 f i CPlayerData.obj
 0002:0006aad0       ??$_Voidify_iter@PAU?$pair@$$CBGV?$basic_string@DU?$char_traits@D@std@@V?$allocator@D@2@@std@@@std@@@std@@YAPAXPAU?$pair@$$CBGV?$basic_string@DU?$char_traits@D@std@@V?$allocator@D@2@@std@@@0@@Z 100e1ad0 f i CPlayerData.obj
 0002:0006ab20       ??$_Voidify_iter@PAU?$pair@$$CBGV?$shared_ptr@VCPlayerObjectAttachAddon@@@std@@@std@@@std@@YAPAXPAU?$pair@$$CBGV?$shared_ptr@VCPlayerObjectAttachAddon@@@std@@@0@@Z 100e1b20 f i CPlayerData.obj
 0002:0006ab70       ??$_Voidify_iter@PAURemovedBuilding@CPlayerData@@@std@@YAPAXPAURemovedBuilding@CPlayerData@@@Z 100e1b70 f i CPlayerData.obj
 0002:0006abc0       ??$_Voidify_iter@PAV?$_List_unchecked_const_iterator@V?$_List_val@U?$_List_simple_types@G@std@@@std@@U_Iterator_base0@2@@std@@@std@@YAPAXPAV?$_List_unchecked_const_iterator@V?$_List_val@U?$_List_simple_types@G@std@@@std@@U_Iterator_base0@2@@0@@Z 100e1bc0 f i CPlayerData.obj
 0002:0006ac10       ??$_Voidify_iter@PAV?$_List_unchecked_iterator@V?$_List_val@U?$_List_simple_types@U?$pair@$$CBGV?$basic_string@DU?$char_traits@D@std@@V?$allocator@D@2@@std@@@std@@@std@@@std@@@std@@@std@@YAPAXPAV?$_List_unchecked_iterator@V?$_List_val@U?$_List_simple_types@U?$pair@$$CBGV?$basic_string@DU?$char_traits@D@std@@V?$allocator@D@2@@std@@@std@@@std@@@std@@@0@@Z 100e1c10 f i CPlayerData.obj
 0002:0006ac60       ??$_Voidify_iter@PAV?$_List_unchecked_iterator@V?$_List_val@U?$_List_simple_types@U?$pair@$$CBGV?$shared_ptr@VCPlayerObjectAttachAddon@@@std@@@std@@@std@@@std@@@std@@@std@@YAPAXPAV?$_List_unchecked_iterator@V?$_List_val@U?$_List_simple_types@U?$pair@$$CBGV?$shared_ptr@VCPlayerObjectAttachAddon@@@std@@@std@@@std@@@std@@@0@@Z 100e1c60 f i CPlayerData.obj
 0002:0006acb0       ??$_Voidify_iter@PAVCPlayerObjectAttachAddon@@@std@@YAPAXPAVCPlayerObjectAttachAddon@@@Z 100e1cb0 f i CPlayerData.obj
 0002:0006ad00       ??$addressof@$$CBV?$_List_val@U?$_List_simple_types@G@std@@@std@@@std@@YAPBV?$_List_val@U?$_List_simple_types@G@std@@@0@ABV10@@Z 100e1d00 f i CPlayerData.obj
 0002:0006ad50       ??$addressof@$$CBV?$_List_val@U?$_List_simple_types@U?$pair@$$CBGV?$basic_string@DU?$char_traits@D@std@@V?$allocator@D@2@@std@@@std@@@std@@@std@@@std@@YAPBV?$_List_val@U?$_List_simple_types@U?$pair@$$CBGV?$basic_string@DU?$char_traits@D@std@@V?$allocator@D@2@@std@@@std@@@std@@@0@ABV10@@Z 100e1d50 f i CPlayerData.obj
 0002:0006ada0       ??$addressof@$$CBV?$_List_val@U?$_List_simple_types@U?$pair@$$CBGV?$shared_ptr@VCPlayerObjectAttachAddon@@@std@@@std@@@std@@@std@@@std@@YAPBV?$_List_val@U?$_List_simple_types@U?$pair@$$CBGV?$shared_ptr@VCPlayerObjectAttachAddon@@@std@@@std@@@std@@@0@ABV10@@Z 100e1da0 f i CPlayerData.obj
 0002:0006adf0       ??$addressof@PAU?$_List_node@GPAX@std@@@std@@YAPAPAU?$_List_node@GPAX@0@AAPAU10@@Z 100e1df0 f i CPlayerData.obj
 0002:0006ae40       ??$addressof@PAU?$_List_node@U?$pair@$$CBGV?$basic_string@DU?$char_traits@D@std@@V?$allocator@D@2@@std@@@std@@PAX@std@@@std@@YAPAPAU?$_List_node@U?$pair@$$CBGV?$basic_string@DU?$char_traits@D@std@@V?$allocator@D@2@@std@@@std@@PAX@0@AAPAU10@@Z 100e1e40 f i CPlayerData.obj
 0002:0006ae90       ??$addressof@PAU?$_List_node@U?$pair@$$CBGV?$shared_ptr@VCPlayerObjectAttachAddon@@@std@@@std@@PAX@std@@@std@@YAPAPAU?$_List_node@U?$pair@$$CBGV?$shared_ptr@VCPlayerObjectAttachAddon@@@std@@@std@@PAX@0@AAPAU10@@Z 100e1e90 f i CPlayerData.obj
 0002:0006aee0       ??$addressof@PAU?$_Tree_node@U?$pair@$$CBGU?$pair@EV?$basic_string@DU?$char_traits@D@std@@V?$allocator@D@2@@std@@@std@@@std@@PAX@std@@@std@@YAPAPAU?$_Tree_node@U?$pair@$$CBGU?$pair@EV?$basic_string@DU?$char_traits@D@std@@V?$allocator@D@2@@std@@@std@@@std@@PAX@0@AAPAU10@@Z 100e1ee0 f i CPlayerData.obj
 0002:0006af30       ??$addressof@U?$pair@$$CBGU?$pair@EV?$basic_string@DU?$char_traits@D@std@@V?$allocator@D@2@@std@@@std@@@std@@@std@@YAPAU?$pair@$$CBGU?$pair@EV?$basic_string@DU?$char_traits@D@std@@V?$allocator@D@2@@std@@@std@@@0@AAU10@@Z 100e1f30 f i CPlayerData.obj
 0002:0006af80       ??$addressof@U?$pair@$$CBGV?$basic_string@DU?$char_traits@D@std@@V?$allocator@D@2@@std@@@std@@@std@@YAPAU?$pair@$$CBGV?$basic_string@DU?$char_traits@D@std@@V?$allocator@D@2@@std@@@0@AAU10@@Z 100e1f80 f i CPlayerData.obj
 0002:0006afd0       ??$addressof@U?$pair@$$CBGV?$shared_ptr@VCPlayerObjectAttachAddon@@@std@@@std@@@std@@YAPAU?$pair@$$CBGV?$shared_ptr@VCPlayerObjectAttachAddon@@@std@@@0@AAU10@@Z 100e1fd0 f i CPlayerData.obj
 0002:0006b020       ??$addressof@V?$_List_unchecked_const_iterator@V?$_List_val@U?$_List_simple_types@G@std@@@std@@U_Iterator_base0@2@@std@@@std@@YAPAV?$_List_unchecked_const_iterator@V?$_List_val@U?$_List_simple_types@G@std@@@std@@U_Iterator_base0@2@@0@AAV10@@Z 100e2020 f i CPlayerData.obj
 0002:0006b070       ??$addressof@V?$_List_unchecked_iterator@V?$_List_val@U?$_List_simple_types@U?$pair@$$CBGV?$basic_string@DU?$char_traits@D@std@@V?$allocator@D@2@@std@@@std@@@std@@@std@@@std@@@std@@YAPAV?$_List_unchecked_iterator@V?$_List_val@U?$_List_simple_types@U?$pair@$$CBGV?$basic_string@DU?$char_traits@D@std@@V?$allocator@D@2@@std@@@std@@@std@@@std@@@0@AAV10@@Z 100e2070 f i CPlayerData.obj
 0002:0006b0c0       ??$addressof@V?$_List_unchecked_iterator@V?$_List_val@U?$_List_simple_types@U?$pair@$$CBGV?$shared_ptr@VCPlayerObjectAttachAddon@@@std@@@std@@@std@@@std@@@std@@@std@@YAPAV?$_List_unchecked_iterator@V?$_List_val@U?$_List_simple_types@U?$pair@$$CBGV?$shared_ptr@VCPlayerObjectAttachAddon@@@std@@@std@@@std@@@std@@@0@AAV10@@Z 100e20c0 f i CPlayerData.obj
 0002:0006b110       ??$addressof@V?$_List_val@U?$_List_simple_types@U?$pair@$$CBGV?$basic_string@DU?$char_traits@D@std@@V?$allocator@D@2@@std@@@std@@@std@@@std@@@std@@YAPAV?$_List_val@U?$_List_simple_types@U?$pair@$$CBGV?$basic_string@DU?$char_traits@D@std@@V?$allocator@D@2@@std@@@std@@@std@@@0@AAV10@@Z 100e2110 f i CPlayerData.obj
 0002:0006b160       ??$addressof@V?$_List_val@U?$_List_simple_types@U?$pair@$$CBGV?$shared_ptr@VCPlayerObjectAttachAddon@@@std@@@std@@@std@@@std@@@std@@YAPAV?$_List_val@U?$_List_simple_types@U?$pair@$$CBGV?$shared_ptr@VCPlayerObjectAttachAddon@@@std@@@std@@@std@@@0@AAV10@@Z 100e2160 f i CPlayerData.obj
 0002:0006b1b0       ??$addressof@V?$_Tree_val@U?$_Tree_simple_types@U?$pair@$$CBGU?$pair@EV?$basic_string@DU?$char_traits@D@std@@V?$allocator@D@2@@std@@@std@@@std@@@std@@@std@@@std@@YAPAV?$_Tree_val@U?$_Tree_simple_types@U?$pair@$$CBGU?$pair@EV?$basic_string@DU?$char_traits@D@std@@V?$allocator@D@2@@std@@@std@@@std@@@std@@@0@AAV10@@Z 100e21b0 f i CPlayerData.obj
 0002:0006b200       ??$addressof@VCPlayerObjectAttachAddon@@@std@@YAPAVCPlayerObjectAttachAddon@@AAV1@@Z 100e2200 f i CPlayerData.obj
 0002:0006b250       ??$construct@GABG@?$_Default_allocator_traits@V?$allocator@U?$_List_node@GPAX@std@@@std@@@std@@SAXAAV?$allocator@U?$_List_node@GPAX@std@@@1@QAGABG@Z 100e2250 f i CPlayerData.obj
 0002:0006b2e0       ??$construct@U?$pair@$$CBGV?$basic_string@DU?$char_traits@D@std@@V?$allocator@D@2@@std@@@std@@ABUpiecewise_construct_t@2@V?$tuple@ABG@2@V?$tuple@$$V@2@@?$_Default_allocator_traits@V?$allocator@U?$_List_node@U?$pair@$$CBGV?$basic_string@DU?$char_traits@D@std@@V?$allocator@D@2@@std@@@std@@PAX@std@@@std@@@std@@SAXAAV?$allocator@U?$_List_node@U?$pair@$$CBGV?$basic_string@DU?$char_traits@D@std@@V?$allocator@D@2@@std@@@std@@PAX@std@@@1@QAU?$pair@$$CBGV?$basic_string@DU?$char_traits@D@std@@V?$allocator@D@2@@std@@@1@ABUpiecewise_construct_t@1@$$QAV?$tuple@ABG@1@$$QAV?$tuple@$$V@1@@Z 100e22e0 f i CPlayerData.obj
 0002:0006b3b0       ??$construct@U?$pair@$$CBGV?$shared_ptr@VCPlayerObjectAttachAddon@@@std@@@std@@AAGAAV?$shared_ptr@VCPlayerObjectAttachAddon@@@2@@?$_Default_allocator_traits@V?$allocator@U?$_List_node@U?$pair@$$CBGV?$shared_ptr@VCPlayerObjectAttachAddon@@@std@@@std@@PAX@std@@@std@@@std@@SAXAAV?$allocator@U?$_List_node@U?$pair@$$CBGV?$shared_ptr@VCPlayerObjectAttachAddon@@@std@@@std@@PAX@std@@@1@QAU?$pair@$$CBGV?$shared_ptr@VCPlayerObjectAttachAddon@@@std@@@1@AAGAAV?$shared_ptr@VCPlayerObjectAttachAddon@@@1@@Z 100e23b0 f i CPlayerData.obj
 0002:0006b450       ??$construct@URemovedBuilding@CPlayerData@@AAHABVCVector@@AAM@?$_Default_allocator_traits@V?$allocator@URemovedBuilding@CPlayerData@@@std@@@std@@SAXAAV?$allocator@URemovedBuilding@CPlayerData@@@1@QAURemovedBuilding@CPlayerData@@AAHABVCVector@@AAM@Z 100e2450 f i CPlayerData.obj
 0002:0006b510       ??$construct@URemovedBuilding@CPlayerData@@AAU12@@?$_Default_allocator_traits@V?$allocator@URemovedBuilding@CPlayerData@@@std@@@std@@SAXAAV?$allocator@URemovedBuilding@CPlayerData@@@1@QAURemovedBuilding@CPlayerData@@AAU34@@Z 100e2510 f i CPlayerData.obj
 0002:0006b5a0       ??$construct@URemovedBuilding@CPlayerData@@U12@@?$_Default_allocator_traits@V?$allocator@URemovedBuilding@CPlayerData@@@std@@@std@@SAXAAV?$allocator@URemovedBuilding@CPlayerData@@@1@QAURemovedBuilding@CPlayerData@@$$QAU34@@Z 100e25a0 f i CPlayerData.obj
 0002:0006b630       ??$destroy@G@?$_Default_allocator_traits@V?$allocator@U?$_List_node@GPAX@std@@@std@@@std@@SAXAAV?$allocator@U?$_List_node@GPAX@std@@@1@QAG@Z 100e2630 f i CPlayerData.obj
 0002:0006b680       ??$destroy@U?$pair@$$CBGU?$pair@EV?$basic_string@DU?$char_traits@D@std@@V?$allocator@D@2@@std@@@std@@@std@@@?$_Default_allocator_traits@V?$allocator@U?$_Tree_node@U?$pair@$$CBGU?$pair@EV?$basic_string@DU?$char_traits@D@std@@V?$allocator@D@2@@std@@@std@@@std@@PAX@std@@@std@@@std@@SAXAAV?$allocator@U?$_Tree_node@U?$pair@$$CBGU?$pair@EV?$basic_string@DU?$char_traits@D@std@@V?$allocator@D@2@@std@@@std@@@std@@PAX@std@@@1@QAU?$pair@$$CBGU?$pair@EV?$basic_string@DU?$char_traits@D@std@@V?$allocator@D@2@@std@@@std@@@1@@Z 100e2680 f i CPlayerData.obj
 0002:0006b6d0       ??$destroy@U?$pair@$$CBGV?$basic_string@DU?$char_traits@D@std@@V?$allocator@D@2@@std@@@std@@@?$_Default_allocator_traits@V?$allocator@U?$_List_node@U?$pair@$$CBGV?$basic_string@DU?$char_traits@D@std@@V?$allocator@D@2@@std@@@std@@PAX@std@@@std@@@std@@SAXAAV?$allocator@U?$_List_node@U?$pair@$$CBGV?$basic_string@DU?$char_traits@D@std@@V?$allocator@D@2@@std@@@std@@PAX@std@@@1@QAU?$pair@$$CBGV?$basic_string@DU?$char_traits@D@std@@V?$allocator@D@2@@std@@@1@@Z 100e26d0 f i CPlayerData.obj
 0002:0006b720       ??$destroy@U?$pair@$$CBGV?$shared_ptr@VCPlayerObjectAttachAddon@@@std@@@std@@@?$_Default_allocator_traits@V?$allocator@U?$_List_node@U?$pair@$$CBGV?$shared_ptr@VCPlayerObjectAttachAddon@@@std@@@std@@PAX@std@@@std@@@std@@SAXAAV?$allocator@U?$_List_node@U?$pair@$$CBGV?$shared_ptr@VCPlayerObjectAttachAddon@@@std@@@std@@PAX@std@@@1@QAU?$pair@$$CBGV?$shared_ptr@VCPlayerObjectAttachAddon@@@std@@@1@@Z 100e2720 f i CPlayerData.obj
 0002:0006b770       ??$duration_cast@V?$duration@_JU?$ratio@$00$0DOI@@std@@@chrono@std@@_JU?$ratio@$00$0DLJKMKAA@@3@$0A@@chrono@std@@YA?AV?$duration@_JU?$ratio@$00$0DOI@@std@@@01@ABV?$duration@_JU?$ratio@$00$0DLJKMKAA@@std@@@01@@Z 100e2770 f i CPlayerData.obj
 0002:0006b8d0       ??$emplace@AAGAAV?$shared_ptr@VCPlayerObjectAttachAddon@@@std@@@?$_Hash@V?$_Umap_traits@GV?$shared_ptr@VCPlayerObjectAttachAddon@@@std@@V?$_Uhash_compare@GU?$hash@G@std@@U?$equal_to@G@2@@2@V?$allocator@U?$pair@$$CBGV?$shared_ptr@VCPlayerObjectAttachAddon@@@std@@@std@@@2@$0A@@std@@@std@@QAE?AU?$pair@V?$_List_iterator@V?$_List_val@U?$_List_simple_types@U?$pair@$$CBGV?$shared_ptr@VCPlayerObjectAttachAddon@@@std@@@std@@@std@@@std@@@std@@_N@1@AAGAAV?$shared_ptr@VCPlayerObjectAttachAddon@@@1@@Z 100e28d0 f i CPlayerData.obj
 0002:0006bbd0       ??$emplace@ABG@?$_Hash@V?$_Uset_traits@GV?$_Uhash_compare@GU?$hash@G@std@@U?$equal_to@G@2@@std@@V?$allocator@G@2@$0A@@std@@@std@@QAE?AU?$pair@V?$_List_const_iterator@V?$_List_val@U?$_List_simple_types@G@std@@@std@@@std@@_N@1@ABG@Z 100e2bd0 f i CPlayerData.obj
 0002:0006bec0       ??$emplace_back@AAHABVCVector@@AAM@?$vector@URemovedBuilding@CPlayerData@@V?$allocator@URemovedBuilding@CPlayerData@@@std@@@std@@QAE?A_TAAHABVCVector@@AAM@Z 100e2ec0 f i CPlayerData.obj
 0002:0006bfc0       ??$erase@V?$_List_iterator@V?$_List_val@U?$_List_simple_types@U?$pair@$$CBGV?$shared_ptr@VCPlayerObjectAttachAddon@@@std@@@std@@@std@@@std@@@std@@$0A@@?$_Hash@V?$_Umap_traits@GV?$shared_ptr@VCPlayerObjectAttachAddon@@@std@@V?$_Uhash_compare@GU?$hash@G@std@@U?$equal_to@G@2@@2@V?$allocator@U?$pair@$$CBGV?$shared_ptr@VCPlayerObjectAttachAddon@@@std@@@std@@@2@$0A@@std@@@std@@QAE?AV?$_List_iterator@V?$_List_val@U?$_List_simple_types@U?$pair@$$CBGV?$shared_ptr@VCPlayerObjectAttachAddon@@@std@@@std@@@std@@@std@@@1@V21@@Z 100e2fc0 f i CPlayerData.obj
 0002:0006c040       ??$exchange@PAU?$_List_node@GPAX@std@@$$T@std@@YAPAU?$_List_node@GPAX@0@AAPAU10@$$QA$$T@Z 100e3040 f i CPlayerData.obj
 0002:0006c0b0       ??$exchange@PAU?$_List_node@U?$pair@$$CBGV?$basic_string@DU?$char_traits@D@std@@V?$allocator@D@2@@std@@@std@@PAX@std@@$$T@std@@YAPAU?$_List_node@U?$pair@$$CBGV?$basic_string@DU?$char_traits@D@std@@V?$allocator@D@2@@std@@@std@@PAX@0@AAPAU10@$$QA$$T@Z 100e30b0 f i CPlayerData.obj
 0002:0006c120       ??$exchange@PAU?$_List_node@U?$pair@$$CBGV?$shared_ptr@VCPlayerObjectAttachAddon@@@std@@@std@@PAX@std@@$$T@std@@YAPAU?$_List_node@U?$pair@$$CBGV?$shared_ptr@VCPlayerObjectAttachAddon@@@std@@@std@@PAX@0@AAPAU10@$$QA$$T@Z 100e3120 f i CPlayerData.obj
 0002:0006c190       ??$exchange@PAU?$_Tree_node@U?$pair@$$CBGU?$pair@EV?$basic_string@DU?$char_traits@D@std@@V?$allocator@D@2@@std@@@std@@@std@@PAX@std@@AAPAU12@@std@@YAPAU?$_Tree_node@U?$pair@$$CBGU?$pair@EV?$basic_string@DU?$char_traits@D@std@@V?$allocator@D@2@@std@@@std@@@std@@PAX@0@AAPAU10@0@Z 100e3190 f i CPlayerData.obj
 0002:0006c200       ??$fill@PAV?$_List_unchecked_const_iterator@V?$_List_val@U?$_List_simple_types@G@std@@@std@@U_Iterator_base0@2@@std@@V12@@std@@YAXQAV?$_List_unchecked_const_iterator@V?$_List_val@U?$_List_simple_types@G@std@@@std@@U_Iterator_base0@2@@0@0ABV10@@Z 100e3200 f i CPlayerData.obj
 0002:0006c2b0       ??$fill@PAV?$_List_unchecked_iterator@V?$_List_val@U?$_List_simple_types@U?$pair@$$CBGV?$basic_string@DU?$char_traits@D@std@@V?$allocator@D@2@@std@@@std@@@std@@@std@@@std@@V12@@std@@YAXQAV?$_List_unchecked_iterator@V?$_List_val@U?$_List_simple_types@U?$pair@$$CBGV?$basic_string@DU?$char_traits@D@std@@V?$allocator@D@2@@std@@@std@@@std@@@std@@@0@0ABV10@@Z 100e32b0 f i CPlayerData.obj
 0002:0006c360       ??$fill@PAV?$_List_unchecked_iterator@V?$_List_val@U?$_List_simple_types@U?$pair@$$CBGV?$shared_ptr@VCPlayerObjectAttachAddon@@@std@@@std@@@std@@@std@@@std@@V12@@std@@YAXQAV?$_List_unchecked_iterator@V?$_List_val@U?$_List_simple_types@U?$pair@$$CBGV?$shared_ptr@VCPlayerObjectAttachAddon@@@std@@@std@@@std@@@std@@@0@0ABV10@@Z 100e3360 f i CPlayerData.obj
 0002:0006c410       ??$find@X@?$_Hash@V?$_Umap_traits@GV?$basic_string@DU?$char_traits@D@std@@V?$allocator@D@2@@std@@V?$_Uhash_compare@GU?$hash@G@std@@U?$equal_to@G@2@@2@V?$allocator@U?$pair@$$CBGV?$basic_string@DU?$char_traits@D@std@@V?$allocator@D@2@@std@@@std@@@2@$0A@@std@@@std@@QAE?AV?$_List_iterator@V?$_List_val@U?$_List_simple_types@U?$pair@$$CBGV?$basic_string@DU?$char_traits@D@std@@V?$allocator@D@2@@std@@@std@@@std@@@std@@@1@ABG@Z 100e3410 f i CPlayerData.obj
 0002:0006c4c0       ??$find@X@?$_Hash@V?$_Umap_traits@GV?$shared_ptr@VCPlayerObjectAttachAddon@@@std@@V?$_Uhash_compare@GU?$hash@G@std@@U?$equal_to@G@2@@2@V?$allocator@U?$pair@$$CBGV?$shared_ptr@VCPlayerObjectAttachAddon@@@std@@@std@@@2@$0A@@std@@@std@@QAE?AV?$_List_iterator@V?$_List_val@U?$_List_simple_types@U?$pair@$$CBGV?$shared_ptr@VCPlayerObjectAttachAddon@@@std@@@std@@@std@@@std@@@1@ABG@Z 100e34c0 f i CPlayerData.obj
 0002:0006c570       ??$find@X@?$_Hash@V?$_Uset_traits@GV?$_Uhash_compare@GU?$hash@G@std@@U?$equal_to@G@2@@std@@V?$allocator@G@2@$0A@@std@@@std@@QBE?AV?$_List_const_iterator@V?$_List_val@U?$_List_simple_types@G@std@@@std@@@1@ABG@Z 100e3570 f i CPlayerData.obj
 0002:0006c620       ??$forward@AAH@std@@YAAAHAAH@Z 100e3620 f i CPlayerData.obj
 0002:0006c670       ??$forward@AAM@std@@YAAAMAAM@Z 100e3670 f i CPlayerData.obj
 0002:0006c6c0       ??$forward@AAPAU?$_List_node@GPAX@std@@@std@@YAAAPAU?$_List_node@GPAX@0@AAPAU10@@Z 100e36c0 f i CPlayerData.obj
 0002:0006c710       ??$forward@AAPAU?$_List_node@U?$pair@$$CBGV?$basic_string@DU?$char_traits@D@std@@V?$allocator@D@2@@std@@@std@@PAX@std@@@std@@YAAAPAU?$_List_node@U?$pair@$$CBGV?$basic_string@DU?$char_traits@D@std@@V?$allocator@D@2@@std@@@std@@PAX@0@AAPAU10@@Z 100e3710 f i CPlayerData.obj
 0002:0006c760       ??$forward@AAPAU?$_List_node@U?$pair@$$CBGV?$shared_ptr@VCPlayerObjectAttachAddon@@@std@@@std@@PAX@std@@@std@@YAAAPAU?$_List_node@U?$pair@$$CBGV?$shared_ptr@VCPlayerObjectAttachAddon@@@std@@@std@@PAX@0@AAPAU10@@Z 100e3760 f i CPlayerData.obj
 0002:0006c7b0       ??$forward@AAURemovedBuilding@CPlayerData@@@std@@YAAAURemovedBuilding@CPlayerData@@AAU12@@Z 100e37b0 f i CPlayerData.obj
 0002:0006c800       ??$forward@AAV?$shared_ptr@VCPlayerObjectAttachAddon@@@std@@@std@@YAAAV?$shared_ptr@VCPlayerObjectAttachAddon@@@0@AAV10@@Z 100e3800 f i CPlayerData.obj
 0002:0006c850       ??$forward@ABQAU?$_List_node@GPAX@std@@@std@@YAABQAU?$_List_node@GPAX@0@ABQAU10@@Z 100e3850 f i CPlayerData.obj
 0002:0006c8a0       ??$forward@ABQAU?$_List_node@U?$pair@$$CBGV?$basic_string@DU?$char_traits@D@std@@V?$allocator@D@2@@std@@@std@@PAX@std@@@std@@YAABQAU?$_List_node@U?$pair@$$CBGV?$basic_string@DU?$char_traits@D@std@@V?$allocator@D@2@@std@@@std@@PAX@0@ABQAU10@@Z 100e38a0 f i CPlayerData.obj
 0002:0006c8f0       ??$forward@ABQAU?$_List_node@U?$pair@$$CBGV?$shared_ptr@VCPlayerObjectAttachAddon@@@std@@@std@@PAX@std@@@std@@YAABQAU?$_List_node@U?$pair@$$CBGV?$shared_ptr@VCPlayerObjectAttachAddon@@@std@@@std@@PAX@0@ABQAU10@@Z 100e38f0 f i CPlayerData.obj
 0002:0006c940       ??$forward@ABQAU?$_Tree_node@GPAX@std@@@std@@YAABQAU?$_Tree_node@GPAX@0@ABQAU10@@Z 100e3940 f i CPlayerData.obj
 0002:0006c990       ??$forward@ABQAU?$_Tree_node@U?$pair@$$CBGU?$pair@EV?$basic_string@DU?$char_traits@D@std@@V?$allocator@D@2@@std@@@std@@@std@@PAX@std@@@std@@YAABQAU?$_Tree_node@U?$pair@$$CBGU?$pair@EV?$basic_string@DU?$char_traits@D@std@@V?$allocator@D@2@@std@@@std@@@std@@PAX@0@ABQAU10@@Z 100e3990 f i CPlayerData.obj
 0002:0006c9e0       ??$forward@ABU?$less@G@std@@@std@@YAABU?$less@G@0@ABU10@@Z 100e39e0 f i CPlayerData.obj
 0002:0006ca30       ??$forward@ABV?$_List_unchecked_const_iterator@V?$_List_val@U?$_List_simple_types@G@std@@@std@@U_Iterator_base0@2@@std@@@std@@YAABV?$_List_unchecked_const_iterator@V?$_List_val@U?$_List_simple_types@G@std@@@std@@U_Iterator_base0@2@@0@ABV10@@Z 100e3a30 f i CPlayerData.obj
 0002:0006ca80       ??$forward@ABV?$_List_unchecked_iterator@V?$_List_val@U?$_List_simple_types@U?$pair@$$CBGV?$basic_string@DU?$char_traits@D@std@@V?$allocator@D@2@@std@@@std@@@std@@@std@@@std@@@std@@YAABV?$_List_unchecked_iterator@V?$_List_val@U?$_List_simple_types@U?$pair@$$CBGV?$basic_string@DU?$char_traits@D@std@@V?$allocator@D@2@@std@@@std@@@std@@@std@@@0@ABV10@@Z 100e3a80 f i CPlayerData.obj
 0002:0006cad0       ??$forward@ABV?$_List_unchecked_iterator@V?$_List_val@U?$_List_simple_types@U?$pair@$$CBGV?$shared_ptr@VCPlayerObjectAttachAddon@@@std@@@std@@@std@@@std@@@std@@@std@@YAABV?$_List_unchecked_iterator@V?$_List_val@U?$_List_simple_types@U?$pair@$$CBGV?$shared_ptr@VCPlayerObjectAttachAddon@@@std@@@std@@@std@@@std@@@0@ABV10@@Z 100e3ad0 f i CPlayerData.obj
 0002:0006cb20       ??$forward@ABV?$allocator@G@std@@@std@@YAABV?$allocator@G@0@ABV10@@Z 100e3b20 f i CPlayerData.obj
 0002:0006cb70       ??$forward@ABV?$allocator@U?$pair@$$CBGV?$basic_string@DU?$char_traits@D@std@@V?$allocator@D@2@@std@@@std@@@std@@@std@@YAABV?$allocator@U?$pair@$$CBGV?$basic_string@DU?$char_traits@D@std@@V?$allocator@D@2@@std@@@std@@@0@ABV10@@Z 100e3b70 f i CPlayerData.obj
 0002:0006cbc0       ??$forward@ABV?$allocator@U?$pair@$$CBGV?$shared_ptr@VCPlayerObjectAttachAddon@@@std@@@std@@@std@@@std@@YAABV?$allocator@U?$pair@$$CBGV?$shared_ptr@VCPlayerObjectAttachAddon@@@std@@@std@@@0@ABV10@@Z 100e3bc0 f i CPlayerData.obj
 0002:0006cc10       ??$forward@ABV?$allocator@U?$pair@$$CBGVCVector@@@std@@@std@@@std@@YAABV?$allocator@U?$pair@$$CBGVCVector@@@std@@@0@ABV10@@Z 100e3c10 f i CPlayerData.obj
 0002:0006cc60       ??$forward@ABVCVector@@@std@@YAABVCVector@@ABV1@@Z 100e3c60 f i CPlayerData.obj
 0002:0006ccb0       ??$forward@PAU?$_List_node@U?$pair@$$CBGV?$basic_string@DU?$char_traits@D@std@@V?$allocator@D@2@@std@@@std@@PAX@std@@@std@@YA$$QAPAU?$_List_node@U?$pair@$$CBGV?$basic_string@DU?$char_traits@D@std@@V?$allocator@D@2@@std@@@std@@PAX@0@AAPAU10@@Z 100e3cb0 f i CPlayerData.obj
 0002:0006cd00       ??$forward@URemovedBuilding@CPlayerData@@@std@@YA$$QAURemovedBuilding@CPlayerData@@AAU12@@Z 100e3d00 f i CPlayerData.obj
 0002:0006cd50       ??$forward@V?$_List_iterator@V?$_List_val@U?$_List_simple_types@G@std@@@std@@@std@@@std@@YA$$QAV?$_List_iterator@V?$_List_val@U?$_List_simple_types@G@std@@@std@@@0@AAV10@@Z 100e3d50 f i CPlayerData.obj
 0002:0006cda0       ??$forward@V?$_List_iterator@V?$_List_val@U?$_List_simple_types@U?$pair@$$CBGV?$shared_ptr@VCPlayerObjectAttachAddon@@@std@@@std@@@std@@@std@@@std@@@std@@YA$$QAV?$_List_iterator@V?$_List_val@U?$_List_simple_types@U?$pair@$$CBGV?$shared_ptr@VCPlayerObjectAttachAddon@@@std@@@std@@@std@@@std@@@0@AAV10@@Z 100e3da0 f i CPlayerData.obj
 0002:0006cdf0       ??$make_shared@VCPlayerObjectAttachAddon@@$$V@std@@YA?AV?$shared_ptr@VCPlayerObjectAttachAddon@@@0@XZ 100e3df0 f i CPlayerData.obj
 0002:0006cf80       ??$move@AAPAVCPlayerObjectAttachAddon@@@std@@YA$$QAPAVCPlayerObjectAttachAddon@@AAPAV1@@Z 100e3f80 f i CPlayerData.obj
 0002:0006cfd0       ??$move@AAPAV_Ref_count_base@std@@@std@@YA$$QAPAV_Ref_count_base@0@AAPAV10@@Z 100e3fd0 f i CPlayerData.obj
 0002:0006d020       ??$move@AAURemovedBuilding@CPlayerData@@@std@@YA$$QAURemovedBuilding@CPlayerData@@AAU12@@Z 100e4020 f i CPlayerData.obj
 0002:0006d070       ??$move@AAV?$shared_ptr@VCPlayerObjectAttachAddon@@@std@@@std@@YA$$QAV?$shared_ptr@VCPlayerObjectAttachAddon@@@0@AAV10@@Z 100e4070 f i CPlayerData.obj
 0002:0006d0c0       ??$swap@PAVCPlayerObjectAttachAddon@@$0A@@std@@YAXAAPAVCPlayerObjectAttachAddon@@0@Z 100e40c0 f i CPlayerData.obj
 0002:0006d190       ??$swap@PAV_Ref_count_base@std@@$0A@@std@@YAXAAPAV_Ref_count_base@0@0@Z 100e4190 f i CPlayerData.obj
 0002:0006d260       ??$uninitialized_fill@PAV?$_List_unchecked_const_iterator@V?$_List_val@U?$_List_simple_types@G@std@@@std@@U_Iterator_base0@2@@std@@V12@@std@@YAXQAV?$_List_unchecked_const_iterator@V?$_List_val@U?$_List_simple_types@G@std@@@std@@U_Iterator_base0@2@@0@0ABV10@@Z 100e4260 f i CPlayerData.obj
 0002:0006d3b0       ??$uninitialized_fill@PAV?$_List_unchecked_iterator@V?$_List_val@U?$_List_simple_types@U?$pair@$$CBGV?$basic_string@DU?$char_traits@D@std@@V?$allocator@D@2@@std@@@std@@@std@@@std@@@std@@V12@@std@@YAXQAV?$_List_unchecked_iterator@V?$_List_val@U?$_List_simple_types@U?$pair@$$CBGV?$basic_string@DU?$char_traits@D@std@@V?$allocator@D@2@@std@@@std@@@std@@@std@@@0@0ABV10@@Z 100e43b0 f i CPlayerData.obj
 0002:0006d500       ??$uninitialized_fill@PAV?$_List_unchecked_iterator@V?$_List_val@U?$_List_simple_types@U?$pair@$$CBGV?$shared_ptr@VCPlayerObjectAttachAddon@@@std@@@std@@@std@@@std@@@std@@V12@@std@@YAXQAV?$_List_unchecked_iterator@V?$_List_val@U?$_List_simple_types@U?$pair@$$CBGV?$shared_ptr@VCPlayerObjectAttachAddon@@@std@@@std@@@std@@@std@@@0@0ABV10@@Z 100e4500 f i CPlayerData.obj
 0002:0006d650       ??0?$_Alloc_construct_ptr@V?$allocator@U?$_List_node@GPAX@std@@@std@@@std@@QAE@AAV?$allocator@U?$_List_node@GPAX@std@@@1@@Z 100e4650 f i CPlayerData.obj
 0002:0006d6c0       ??0?$_Alloc_construct_ptr@V?$allocator@U?$_List_node@U?$pair@$$CBGV?$basic_string@DU?$char_traits@D@std@@V?$allocator@D@2@@std@@@std@@PAX@std@@@std@@@std@@QAE@AAV?$allocator@U?$_List_node@U?$pair@$$CBGV?$basic_string@DU?$char_traits@D@std@@V?$allocator@D@2@@std@@@std@@PAX@std@@@1@@Z 100e46c0 f i CPlayerData.obj
 0002:0006d730       ??0?$_Alloc_construct_ptr@V?$allocator@U?$_List_node@U?$pair@$$CBGV?$shared_ptr@VCPlayerObjectAttachAddon@@@std@@@std@@PAX@std@@@std@@@std@@QAE@AAV?$allocator@U?$_List_node@U?$pair@$$CBGV?$shared_ptr@VCPlayerObjectAttachAddon@@@std@@@std@@PAX@std@@@1@@Z 100e4730 f i CPlayerData.obj
 0002:0006d7a0       ??0?$_Hash@V?$_Umap_traits@GV?$basic_string@DU?$char_traits@D@std@@V?$allocator@D@2@@std@@V?$_Uhash_compare@GU?$hash@G@std@@U?$equal_to@G@2@@2@V?$allocator@U?$pair@$$CBGV?$basic_string@DU?$char_traits@D@std@@V?$allocator@D@2@@std@@@std@@@2@$0A@@std@@@std@@IAE@ABV?$_Uhash_compare@GU?$hash@G@std@@U?$equal_to@G@2@@1@ABV?$allocator@U?$pair@$$CBGV?$basic_string@DU?$char_traits@D@std@@V?$allocator@D@2@@std@@@std@@@1@@Z 100e47a0 f i CPlayerData.obj
 0002:0006d8d0       ??0?$_Hash@V?$_Umap_traits@GV?$shared_ptr@VCPlayerObjectAttachAddon@@@std@@V?$_Uhash_compare@GU?$hash@G@std@@U?$equal_to@G@2@@2@V?$allocator@U?$pair@$$CBGV?$shared_ptr@VCPlayerObjectAttachAddon@@@std@@@std@@@2@$0A@@std@@@std@@IAE@ABV?$_Uhash_compare@GU?$hash@G@std@@U?$equal_to@G@2@@1@ABV?$allocator@U?$pair@$$CBGV?$shared_ptr@VCPlayerObjectAttachAddon@@@std@@@std@@@1@@Z 100e48d0 f i CPlayerData.obj
 0002:0006da00       ??0?$_Hash@V?$_Umap_traits@GVCVector@@V?$_Uhash_compare@GU?$hash@G@std@@U?$equal_to@G@2@@std@@V?$allocator@U?$pair@$$CBGVCVector@@@std@@@3@$0A@@std@@@std@@IAE@ABV?$_Uhash_compare@GU?$hash@G@std@@U?$equal_to@G@2@@1@ABV?$allocator@U?$pair@$$CBGVCVector@@@std@@@1@@Z 100e4a00 f i CPlayerData.obj
 0002:0006db30       ??0?$_Hash@V?$_Uset_traits@GV?$_Uhash_compare@GU?$hash@G@std@@U?$equal_to@G@2@@std@@V?$allocator@G@2@$0A@@std@@@std@@IAE@ABV?$_Uhash_compare@GU?$hash@G@std@@U?$equal_to@G@2@@1@ABV?$allocator@G@1@@Z 100e4b30 f i CPlayerData.obj
 0002:0006dc70       ??0?$_List_const_iterator@V?$_List_val@U?$_List_simple_types@G@std@@@std@@@std@@QAE@$$QAV01@@Z 100e4c70 f i CPlayerData.obj
 0002:0006dcd0       ??0?$_List_const_iterator@V?$_List_val@U?$_List_simple_types@G@std@@@std@@@std@@QAE@PAU?$_List_node@GPAX@1@PBV?$_List_val@U?$_List_simple_types@G@std@@@1@@Z 100e4cd0 f i CPlayerData.obj
 0002:0006dd30       ??0?$_List_const_iterator@V?$_List_val@U?$_List_simple_types@U?$pair@$$CBGV?$basic_string@DU?$char_traits@D@std@@V?$allocator@D@2@@std@@@std@@@std@@@std@@@std@@QAE@PAU?$_List_node@U?$pair@$$CBGV?$basic_string@DU?$char_traits@D@std@@V?$allocator@D@2@@std@@@std@@PAX@1@PBV?$_List_val@U?$_List_simple_types@U?$pair@$$CBGV?$basic_string@DU?$char_traits@D@std@@V?$allocator@D@2@@std@@@std@@@std@@@1@@Z 100e4d30 f i CPlayerData.obj
 0002:0006dd90       ??0?$_List_const_iterator@V?$_List_val@U?$_List_simple_types@U?$pair@$$CBGV?$shared_ptr@VCPlayerObjectAttachAddon@@@std@@@std@@@std@@@std@@@std@@QAE@$$QAV01@@Z 100e4d90 f i CPlayerData.obj
 0002:0006ddf0       ??0?$_List_const_iterator@V?$_List_val@U?$_List_simple_types@U?$pair@$$CBGV?$shared_ptr@VCPlayerObjectAttachAddon@@@std@@@std@@@std@@@std@@@std@@QAE@ABV01@@Z 100e4df0 f i CPlayerData.obj
 0002:0006de50       ??0?$_List_const_iterator@V?$_List_val@U?$_List_simple_types@U?$pair@$$CBGV?$shared_ptr@VCPlayerObjectAttachAddon@@@std@@@std@@@std@@@std@@@std@@QAE@PAU?$_List_node@U?$pair@$$CBGV?$shared_ptr@VCPlayerObjectAttachAddon@@@std@@@std@@PAX@1@PBV?$_List_val@U?$_List_simple_types@U?$pair@$$CBGV?$shared_ptr@VCPlayerObjectAttachAddon@@@std@@@std@@@std@@@1@@Z 100e4e50 f i CPlayerData.obj
 0002:0006deb0       ??0?$_List_iterator@V?$_List_val@U?$_List_simple_types@G@std@@@std@@@std@@QAE@PAU?$_List_node@GPAX@1@PBV?$_List_val@U?$_List_simple_types@G@std@@@1@@Z 100e4eb0 f i CPlayerData.obj
 0002:0006df10       ??0?$_List_iterator@V?$_List_val@U?$_List_simple_types@U?$pair@$$CBGV?$basic_string@DU?$char_traits@D@std@@V?$allocator@D@2@@std@@@std@@@std@@@std@@@std@@QAE@PAU?$_List_node@U?$pair@$$CBGV?$basic_string@DU?$char_traits@D@std@@V?$allocator@D@2@@std@@@std@@PAX@1@PBV?$_List_val@U?$_List_simple_types@U?$pair@$$CBGV?$basic_string@DU?$char_traits@D@std@@V?$allocator@D@2@@std@@@std@@@std@@@1@@Z 100e4f10 f i CPlayerData.obj
 0002:0006df70       ??0?$_List_iterator@V?$_List_val@U?$_List_simple_types@U?$pair@$$CBGV?$shared_ptr@VCPlayerObjectAttachAddon@@@std@@@std@@@std@@@std@@@std@@QAE@$$QAV01@@Z 100e4f70 f i CPlayerData.obj
 0002:0006dfd0       ??0?$_List_iterator@V?$_List_val@U?$_List_simple_types@U?$pair@$$CBGV?$shared_ptr@VCPlayerObjectAttachAddon@@@std@@@std@@@std@@@std@@@std@@QAE@ABV01@@Z 100e4fd0 f i CPlayerData.obj
 0002:0006e030       ??0?$_List_iterator@V?$_List_val@U?$_List_simple_types@U?$pair@$$CBGV?$shared_ptr@VCPlayerObjectAttachAddon@@@std@@@std@@@std@@@std@@@std@@QAE@PAU?$_List_node@U?$pair@$$CBGV?$shared_ptr@VCPlayerObjectAttachAddon@@@std@@@std@@PAX@1@PBV?$_List_val@U?$_List_simple_types@U?$pair@$$CBGV?$shared_ptr@VCPlayerObjectAttachAddon@@@std@@@std@@@std@@@1@@Z 100e5030 f i CPlayerData.obj
 0002:0006e090       ??0?$_List_unchecked_const_iterator@V?$_List_val@U?$_List_simple_types@G@std@@@std@@U_Iterator_base0@2@@std@@QAE@PAU?$_List_node@GPAX@1@PBV?$_List_val@U?$_List_simple_types@G@std@@@1@@Z 100e5090 f i CPlayerData.obj
 0002:0006e100       ??0?$_List_unchecked_const_iterator@V?$_List_val@U?$_List_simple_types@G@std@@@std@@U_Iterator_base12@2@@std@@QAE@$$QAV01@@Z 100e5100 f i CPlayerData.obj
 0002:0006e170       ??0?$_List_unchecked_const_iterator@V?$_List_val@U?$_List_simple_types@G@std@@@std@@U_Iterator_base12@2@@std@@QAE@PAU?$_List_node@GPAX@1@PBV?$_List_val@U?$_List_simple_types@G@std@@@1@@Z 100e5170 f i CPlayerData.obj
 0002:0006e1f0       ??0?$_List_unchecked_const_iterator@V?$_List_val@U?$_List_simple_types@U?$pair@$$CBGV?$basic_string@DU?$char_traits@D@std@@V?$allocator@D@2@@std@@@std@@@std@@@std@@U_Iterator_base0@2@@std@@QAE@PAU?$_List_node@U?$pair@$$CBGV?$basic_string@DU?$char_traits@D@std@@V?$allocator@D@2@@std@@@std@@PAX@1@PBV?$_List_val@U?$_List_simple_types@U?$pair@$$CBGV?$basic_string@DU?$char_traits@D@std@@V?$allocator@D@2@@std@@@std@@@std@@@1@@Z 100e51f0 f i CPlayerData.obj
 0002:0006e260       ??0?$_List_unchecked_const_iterator@V?$_List_val@U?$_List_simple_types@U?$pair@$$CBGV?$basic_string@DU?$char_traits@D@std@@V?$allocator@D@2@@std@@@std@@@std@@@std@@U_Iterator_base12@2@@std@@QAE@PAU?$_List_node@U?$pair@$$CBGV?$basic_string@DU?$char_traits@D@std@@V?$allocator@D@2@@std@@@std@@PAX@1@PBV?$_List_val@U?$_List_simple_types@U?$pair@$$CBGV?$basic_string@DU?$char_traits@D@std@@V?$allocator@D@2@@std@@@std@@@std@@@1@@Z 100e5260 f i CPlayerData.obj
 0002:0006e2e0       ??0?$_List_unchecked_const_iterator@V?$_List_val@U?$_List_simple_types@U?$pair@$$CBGV?$shared_ptr@VCPlayerObjectAttachAddon@@@std@@@std@@@std@@@std@@U_Iterator_base12@2@@std@@QAE@$$QAV01@@Z 100e52e0 f i CPlayerData.obj
 0002:0006e350       ??0?$_List_unchecked_const_iterator@V?$_List_val@U?$_List_simple_types@U?$pair@$$CBGV?$shared_ptr@VCPlayerObjectAttachAddon@@@std@@@std@@@std@@@std@@U_Iterator_base12@2@@std@@QAE@ABV01@@Z 100e5350 f i CPlayerData.obj
 0002:0006e3c0       ??0?$_List_unchecked_const_iterator@V?$_List_val@U?$_List_simple_types@U?$pair@$$CBGV?$shared_ptr@VCPlayerObjectAttachAddon@@@std@@@std@@@std@@@std@@U_Iterator_base12@2@@std@@QAE@PAU?$_List_node@U?$pair@$$CBGV?$shared_ptr@VCPlayerObjectAttachAddon@@@std@@@std@@PAX@1@PBV?$_List_val@U?$_List_simple_types@U?$pair@$$CBGV?$shared_ptr@VCPlayerObjectAttachAddon@@@std@@@std@@@std@@@1@@Z 100e53c0 f i CPlayerData.obj
 0002:0006e440       ??0?$_List_unchecked_iterator@V?$_List_val@U?$_List_simple_types@G@std@@@std@@@std@@QAE@PAU?$_List_node@GPAX@1@PBV?$_List_val@U?$_List_simple_types@G@std@@@1@@Z 100e5440 f i CPlayerData.obj
 0002:0006e4a0       ??0?$_List_unchecked_iterator@V?$_List_val@U?$_List_simple_types@U?$pair@$$CBGV?$basic_string@DU?$char_traits@D@std@@V?$allocator@D@2@@std@@@std@@@std@@@std@@@std@@QAE@PAU?$_List_node@U?$pair@$$CBGV?$basic_string@DU?$char_traits@D@std@@V?$allocator@D@2@@std@@@std@@PAX@1@PBV?$_List_val@U?$_List_simple_types@U?$pair@$$CBGV?$basic_string@DU?$char_traits@D@std@@V?$allocator@D@2@@std@@@std@@@std@@@1@@Z 100e54a0 f i CPlayerData.obj
 0002:0006e500       ??0?$_List_val@U?$_List_simple_types@G@std@@@std@@QAE@XZ 100e5500 f i CPlayerData.obj
 0002:0006e580       ??0?$_List_val@U?$_List_simple_types@U?$pair@$$CBGV?$basic_string@DU?$char_traits@D@std@@V?$allocator@D@2@@std@@@std@@@std@@@std@@QAE@XZ 100e5580 f i CPlayerData.obj
 0002:0006e600       ??0?$_List_val@U?$_List_simple_types@U?$pair@$$CBGV?$shared_ptr@VCPlayerObjectAttachAddon@@@std@@@std@@@std@@@std@@QAE@XZ 100e5600 f i CPlayerData.obj
 0002:0006e680       ??0?$_List_val@U?$_List_simple_types@U?$pair@$$CBGVCVector@@@std@@@std@@@std@@QAE@XZ 100e5680 f i CPlayerData.obj
 0002:0006e700       ??0?$_Ptr_base@VCPlayerObjectAttachAddon@@@std@@IAE@XZ 100e5700 f i CPlayerData.obj
 0002:0006e770       ??0?$_Tree@V?$_Tmap_traits@GU?$pair@EV?$basic_string@DU?$char_traits@D@std@@V?$allocator@D@2@@std@@@std@@U?$less@G@2@V?$allocator@U?$pair@$$CBGU?$pair@EV?$basic_string@DU?$char_traits@D@std@@V?$allocator@D@2@@std@@@std@@@std@@@2@$00@std@@@std@@QAE@ABU?$less@G@1@@Z 100e5770 f i CPlayerData.obj
 0002:0006e7f0       ??0?$_Tree@V?$_Tset_traits@GU?$less@G@std@@V?$allocator@G@2@$0A@@std@@@std@@QAE@ABU?$less@G@1@@Z 100e57f0 f i CPlayerData.obj
 0002:0006e870       ??0?$_Tree_const_iterator@V?$_Tree_val@U?$_Tree_simple_types@G@std@@@std@@@std@@QAE@ABV01@@Z 100e5870 f i CPlayerData.obj
 0002:0006e8d0       ??0?$_Tree_unchecked_const_iterator@V?$_Tree_val@U?$_Tree_simple_types@G@std@@@std@@U_Iterator_base12@2@@std@@QAE@ABV01@@Z 100e58d0 f i CPlayerData.obj
 0002:0006e940       ??0?$_Tree_val@U?$_Tree_simple_types@G@std@@@std@@QAE@XZ 100e5940 f i CPlayerData.obj
 0002:0006e9c0       ??0?$_Tree_val@U?$_Tree_simple_types@U?$pair@$$CBGU?$pair@EV?$basic_string@DU?$char_traits@D@std@@V?$allocator@D@2@@std@@@std@@@std@@@std@@@std@@QAE@XZ 100e59c0 f i CPlayerData.obj
 0002:0006ea40       ??0?$_Umap_traits@GV?$basic_string@DU?$char_traits@D@std@@V?$allocator@D@2@@std@@V?$_Uhash_compare@GU?$hash@G@std@@U?$equal_to@G@2@@2@V?$allocator@U?$pair@$$CBGV?$basic_string@DU?$char_traits@D@std@@V?$allocator@D@2@@std@@@std@@@2@$0A@@std@@QAE@ABV?$_Uhash_compare@GU?$hash@G@std@@U?$equal_to@G@2@@1@@Z 100e5a40 f i CPlayerData.obj
 0002:0006eaa0       ??0?$_Umap_traits@GV?$shared_ptr@VCPlayerObjectAttachAddon@@@std@@V?$_Uhash_compare@GU?$hash@G@std@@U?$equal_to@G@2@@2@V?$allocator@U?$pair@$$CBGV?$shared_ptr@VCPlayerObjectAttachAddon@@@std@@@std@@@2@$0A@@std@@QAE@ABV?$_Uhash_compare@GU?$hash@G@std@@U?$equal_to@G@2@@1@@Z 100e5aa0 f i CPlayerData.obj
 0002:0006eb00       ??0?$_Umap_traits@GVCVector@@V?$_Uhash_compare@GU?$hash@G@std@@U?$equal_to@G@2@@std@@V?$allocator@U?$pair@$$CBGVCVector@@@std@@@3@$0A@@std@@QAE@ABV?$_Uhash_compare@GU?$hash@G@std@@U?$equal_to@G@2@@1@@Z 100e5b00 f i CPlayerData.obj
 0002:0006eb60       ??0?$_Uninitialized_backout@PAV?$_List_unchecked_const_iterator@V?$_List_val@U?$_List_simple_types@G@std@@@std@@U_Iterator_base0@2@@std@@@std@@QAE@PAV?$_List_unchecked_const_iterator@V?$_List_val@U?$_List_simple_types@G@std@@@std@@U_Iterator_base0@2@@1@@Z 100e5b60 f i CPlayerData.obj
 0002:0006ebd0       ??0?$_Uninitialized_backout@PAV?$_List_unchecked_iterator@V?$_List_val@U?$_List_simple_types@U?$pair@$$CBGV?$basic_string@DU?$char_traits@D@std@@V?$allocator@D@2@@std@@@std@@@std@@@std@@@std@@@std@@QAE@PAV?$_List_unchecked_iterator@V?$_List_val@U?$_List_simple_types@U?$pair@$$CBGV?$basic_string@DU?$char_traits@D@std@@V?$allocator@D@2@@std@@@std@@@std@@@std@@@1@@Z 100e5bd0 f i CPlayerData.obj
 0002:0006ec40       ??0?$_Uninitialized_backout@PAV?$_List_unchecked_iterator@V?$_List_val@U?$_List_simple_types@U?$pair@$$CBGV?$shared_ptr@VCPlayerObjectAttachAddon@@@std@@@std@@@std@@@std@@@std@@@std@@QAE@PAV?$_List_unchecked_iterator@V?$_List_val@U?$_List_simple_types@U?$pair@$$CBGV?$shared_ptr@VCPlayerObjectAttachAddon@@@std@@@std@@@std@@@std@@@1@@Z 100e5c40 f i CPlayerData.obj
 0002:0006ecb0       ??0?$_Uninitialized_backout_al@V?$allocator@URemovedBuilding@CPlayerData@@@std@@@std@@QAE@PAURemovedBuilding@CPlayerData@@AAV?$allocator@URemovedBuilding@CPlayerData@@@1@@Z 100e5cb0 f i CPlayerData.obj
 0002:0006ed30       ??0?$_Uset_traits@GV?$_Uhash_compare@GU?$hash@G@std@@U?$equal_to@G@2@@std@@V?$allocator@G@2@$0A@@std@@QAE@ABV?$_Uhash_compare@GU?$hash@G@std@@U?$equal_to@G@2@@1@@Z 100e5d30 f i CPlayerData.obj
 0002:0006ed90       ??0?$_Vector_val@U?$_Simple_types@URemovedBuilding@CPlayerData@@@std@@@std@@QAE@XZ 100e5d90 f i CPlayerData.obj
 0002:0006ee10       ??0?$_Vector_val@U?$_Simple_types@V?$_List_unchecked_const_iterator@V?$_List_val@U?$_List_simple_types@G@std@@@std@@U_Iterator_base0@2@@std@@@std@@@std@@QAE@XZ 100e5e10 f i CPlayerData.obj
 0002:0006ee90       ??0?$_Vector_val@U?$_Simple_types@V?$_List_unchecked_iterator@V?$_List_val@U?$_List_simple_types@U?$pair@$$CBGV?$basic_string@DU?$char_traits@D@std@@V?$allocator@D@2@@std@@@std@@@std@@@std@@@std@@@std@@@std@@QAE@XZ 100e5e90 f i CPlayerData.obj
 0002:0006ef10       ??0?$_Vector_val@U?$_Simple_types@V?$_List_unchecked_iterator@V?$_List_val@U?$_List_simple_types@U?$pair@$$CBGV?$shared_ptr@VCPlayerObjectAttachAddon@@@std@@@std@@@std@@@std@@@std@@@std@@@std@@QAE@XZ 100e5f10 f i CPlayerData.obj
 0002:0006ef90       ??0?$_Vector_val@U?$_Simple_types@V?$_List_unchecked_iterator@V?$_List_val@U?$_List_simple_types@U?$pair@$$CBGVCVector@@@std@@@std@@@std@@@std@@@std@@@std@@QAE@XZ 100e5f90 f i CPlayerData.obj
 0002:0006f010       ??0?$allocator@G@std@@QAE@XZ 100e6010 f i CPlayerData.obj
 0002:0006f070       ??0?$allocator@U?$_Tree_node@GPAX@std@@@std@@QAE@XZ 100e6070 f i CPlayerData.obj
 0002:0006f0d0       ??0?$allocator@U?$_Tree_node@U?$pair@$$CBGU?$pair@EV?$basic_string@DU?$char_traits@D@std@@V?$allocator@D@2@@std@@@std@@@std@@PAX@std@@@std@@QAE@XZ 100e60d0 f i CPlayerData.obj
 0002:0006f130       ??0?$allocator@U?$pair@$$CBGV?$basic_string@DU?$char_traits@D@std@@V?$allocator@D@2@@std@@@std@@@std@@QAE@XZ 100e6130 f i CPlayerData.obj
 0002:0006f190       ??0?$allocator@U?$pair@$$CBGV?$shared_ptr@VCPlayerObjectAttachAddon@@@std@@@std@@@std@@QAE@XZ 100e6190 f i CPlayerData.obj
 0002:0006f1f0       ??0?$allocator@U?$pair@$$CBGVCVector@@@std@@@std@@QAE@XZ 100e61f0 f i CPlayerData.obj
 0002:0006f250       ??0?$allocator@URemovedBuilding@CPlayerData@@@std@@QAE@XZ 100e6250 f i CPlayerData.obj
 0002:0006f2b0       ??0?$bitset@$0DOI@@std@@QAE@XZ 100e62b0 f i CPlayerData.obj
 0002:0006f320       ??0?$bitset@$0EAA@@std@@QAE@XZ 100e6320 f i CPlayerData.obj
 0002:0006f390       ??0?$list@GV?$allocator@G@std@@@std@@QAE@ABV?$allocator@G@1@@Z 100e6390 f i CPlayerData.obj
 0002:0006f410       ??0?$list@U?$pair@$$CBGV?$basic_string@DU?$char_traits@D@std@@V?$allocator@D@2@@std@@@std@@V?$allocator@U?$pair@$$CBGV?$basic_string@DU?$char_traits@D@std@@V?$allocator@D@2@@std@@@std@@@2@@std@@QAE@ABV?$allocator@U?$pair@$$CBGV?$basic_string@DU?$char_traits@D@std@@V?$allocator@D@2@@std@@@std@@@1@@Z 100e6410 f i CPlayerData.obj
 0002:0006f490       ??0?$list@U?$pair@$$CBGV?$shared_ptr@VCPlayerObjectAttachAddon@@@std@@@std@@V?$allocator@U?$pair@$$CBGV?$shared_ptr@VCPlayerObjectAttachAddon@@@std@@@std@@@2@@std@@QAE@ABV?$allocator@U?$pair@$$CBGV?$shared_ptr@VCPlayerObjectAttachAddon@@@std@@@std@@@1@@Z 100e6490 f i CPlayerData.obj
 0002:0006f510       ??0?$list@U?$pair@$$CBGVCVector@@@std@@V?$allocator@U?$pair@$$CBGVCVector@@@std@@@2@@std@@QAE@ABV?$allocator@U?$pair@$$CBGVCVector@@@std@@@1@@Z 100e6510 f i CPlayerData.obj
 0002:0006f590       ??0?$multimap@GU?$pair@EV?$basic_string@DU?$char_traits@D@std@@V?$allocator@D@2@@std@@@std@@U?$less@G@2@V?$allocator@U?$pair@$$CBGU?$pair@EV?$basic_string@DU?$char_traits@D@std@@V?$allocator@D@2@@std@@@std@@@std@@@2@@std@@QAE@XZ 100e6590 f i CPlayerData.obj
 0002:0006f600       ??0?$set@GU?$less@G@std@@V?$allocator@G@2@@std@@QAE@XZ 100e6600 f i CPlayerData.obj
 0002:0006f670       ??0?$shared_ptr@VCPlayerObjectAttachAddon@@@std@@QAE@$$QAV01@@Z 100e6670 f i CPlayerData.obj
 0002:0006f6f0       ??0?$shared_ptr@VCPlayerObjectAttachAddon@@@std@@QAE@$$T@Z 100e66f0 f i CPlayerData.obj
 0002:0006f750       ??0?$shared_ptr@VCPlayerObjectAttachAddon@@@std@@QAE@ABV01@@Z 100e6750 f i CPlayerData.obj
 0002:0006f7c0       ??0?$shared_ptr@VCPlayerObjectAttachAddon@@@std@@QAE@XZ 100e67c0 f i CPlayerData.obj
 0002:0006f820       ??0?$time_point@Usteady_clock@chrono@std@@V?$duration@_JU?$ratio@$00$0DLJKMKAA@@std@@@23@@chrono@std@@QAE@XZ 100e6820 f i CPlayerData.obj
 0002:0006f880       ??0?$unordered_map@GV?$basic_string@DU?$char_traits@D@std@@V?$allocator@D@2@@std@@U?$hash@G@2@U?$equal_to@G@2@V?$allocator@U?$pair@$$CBGV?$basic_string@DU?$char_traits@D@std@@V?$allocator@D@2@@std@@@std@@@2@@std@@QAE@XZ 100e6880 f i CPlayerData.obj
 0002:0006f900       ??0?$unordered_map@GV?$shared_ptr@VCPlayerObjectAttachAddon@@@std@@U?$hash@G@2@U?$equal_to@G@2@V?$allocator@U?$pair@$$CBGV?$shared_ptr@VCPlayerObjectAttachAddon@@@std@@@std@@@2@@std@@QAE@XZ 100e6900 f i CPlayerData.obj
 0002:0006f980       ??0?$unordered_map@GVCVector@@U?$hash@G@std@@U?$equal_to@G@3@V?$allocator@U?$pair@$$CBGVCVector@@@std@@@3@@std@@QAE@XZ 100e6980 f i CPlayerData.obj
 0002:0006fa00       ??0?$unordered_set@GU?$hash@G@std@@U?$equal_to@G@2@V?$allocator@G@2@@std@@QAE@XZ 100e6a00 f i CPlayerData.obj
 0002:0006fa80       ??0?$vector@URemovedBuilding@CPlayerData@@V?$allocator@URemovedBuilding@CPlayerData@@@std@@@std@@QAE@XZ 100e6a80 f i CPlayerData.obj
 0002:0006fb50       ??0CPlayerData@@QAE@G@Z    100e6b50 f   CPlayerData.obj
 0002:00070040       ??0CPlayerObjectAttachAddon@@QAE@XZ 100e7040 f i CPlayerData.obj
 0002:000700e0       ??0CVector@@QAE@ABV0@@Z    100e70e0 f i CPlayerData.obj
 0002:00070160       ??0RemovedBuilding@CPlayerData@@QAE@$$QAU01@@Z 100e7160 f i CPlayerData.obj
 0002:000701e0       ??0RemovedBuilding@CPlayerData@@QAE@ABU01@@Z 100e71e0 f i CPlayerData.obj
 0002:00070260       ??0RemovedBuilding@CPlayerData@@QAE@HABVCVector@@M@Z 100e7260 f i CPlayerData.obj
 0002:000702e0       ??0_Clear_guard@?$_Hash@V?$_Umap_traits@GV?$basic_string@DU?$char_traits@D@std@@V?$allocator@D@2@@std@@V?$_Uhash_compare@GU?$hash@G@std@@U?$equal_to@G@2@@2@V?$allocator@U?$pair@$$CBGV?$basic_string@DU?$char_traits@D@std@@V?$allocator@D@2@@std@@@std@@@2@$0A@@std@@@std@@QAE@QAV12@@Z 100e72e0 f i CPlayerData.obj
 0002:00070340       ??0_Clear_guard@?$_Hash@V?$_Umap_traits@GV?$shared_ptr@VCPlayerObjectAttachAddon@@@std@@V?$_Uhash_compare@GU?$hash@G@std@@U?$equal_to@G@2@@2@V?$allocator@U?$pair@$$CBGV?$shared_ptr@VCPlayerObjectAttachAddon@@@std@@@std@@@2@$0A@@std@@@std@@QAE@QAV12@@Z 100e7340 f i CPlayerData.obj
 0002:000703a0       ??0_Clear_guard@?$_Hash@V?$_Uset_traits@GV?$_Uhash_compare@GU?$hash@G@std@@U?$equal_to@G@2@@std@@V?$allocator@G@2@$0A@@std@@@std@@QAE@QAV12@@Z 100e73a0 f i CPlayerData.obj
 0002:00070400       ??0_Range_eraser@?$_Hash@V?$_Umap_traits@GV?$basic_string@DU?$char_traits@D@std@@V?$allocator@D@2@@std@@V?$_Uhash_compare@GU?$hash@G@std@@U?$equal_to@G@2@@2@V?$allocator@U?$pair@$$CBGV?$basic_string@DU?$char_traits@D@std@@V?$allocator@D@2@@std@@@std@@@2@$0A@@std@@@std@@QAE@AAV?$list@U?$pair@$$CBGV?$basic_string@DU?$char_traits@D@std@@V?$allocator@D@2@@std@@@std@@V?$allocator@U?$pair@$$CBGV?$basic_string@DU?$char_traits@D@std@@V?$allocator@D@2@@std@@@std@@@2@@2@QAU?$_List_node@U?$pair@$$CBGV?$basic_string@DU?$char_traits@D@std@@V?$allocator@D@2@@std@@@std@@PAX@2@@Z 100e7400 f i CPlayerData.obj
 0002:00070480       ??0_Range_eraser@?$_Hash@V?$_Umap_traits@GV?$shared_ptr@VCPlayerObjectAttachAddon@@@std@@V?$_Uhash_compare@GU?$hash@G@std@@U?$equal_to@G@2@@2@V?$allocator@U?$pair@$$CBGV?$shared_ptr@VCPlayerObjectAttachAddon@@@std@@@std@@@2@$0A@@std@@@std@@QAE@AAV?$list@U?$pair@$$CBGV?$shared_ptr@VCPlayerObjectAttachAddon@@@std@@@std@@V?$allocator@U?$pair@$$CBGV?$shared_ptr@VCPlayerObjectAttachAddon@@@std@@@std@@@2@@2@QAU?$_List_node@U?$pair@$$CBGV?$shared_ptr@VCPlayerObjectAttachAddon@@@std@@@std@@PAX@2@@Z 100e7480 f i CPlayerData.obj
 0002:00070500       ??0_Range_eraser@?$_Hash@V?$_Uset_traits@GV?$_Uhash_compare@GU?$hash@G@std@@U?$equal_to@G@2@@std@@V?$allocator@G@2@$0A@@std@@@std@@QAE@AAV?$list@GV?$allocator@G@std@@@2@QAU?$_List_node@GPAX@2@@Z 100e7500 f i CPlayerData.obj
 0002:00070580       ??0_Ref_count_base@std@@IAE@XZ 100e7580 f i CPlayerData.obj
 0002:000705f0       ??1?$_Alloc_construct_ptr@V?$allocator@U?$_List_node@GPAX@std@@@std@@@std@@QAE@XZ 100e75f0 f i CPlayerData.obj
 0002:000706a0       ??1?$_Alloc_construct_ptr@V?$allocator@U?$_List_node@U?$pair@$$CBGV?$basic_string@DU?$char_traits@D@std@@V?$allocator@D@2@@std@@@std@@PAX@std@@@std@@@std@@QAE@XZ 100e76a0 f i CPlayerData.obj
 0002:00070750       ??1?$_Alloc_construct_ptr@V?$allocator@U?$_List_node@U?$pair@$$CBGV?$shared_ptr@VCPlayerObjectAttachAddon@@@std@@@std@@PAX@std@@@std@@@std@@QAE@XZ 100e7750 f i CPlayerData.obj
 0002:00070800       ??1?$_Hash@V?$_Umap_traits@GV?$basic_string@DU?$char_traits@D@std@@V?$allocator@D@2@@std@@V?$_Uhash_compare@GU?$hash@G@std@@U?$equal_to@G@2@@2@V?$allocator@U?$pair@$$CBGV?$basic_string@DU?$char_traits@D@std@@V?$allocator@D@2@@std@@@std@@@2@$0A@@std@@@std@@QAE@XZ 100e7800 f i CPlayerData.obj
 0002:00070860       ??1?$_Hash@V?$_Umap_traits@GV?$shared_ptr@VCPlayerObjectAttachAddon@@@std@@V?$_Uhash_compare@GU?$hash@G@std@@U?$equal_to@G@2@@2@V?$allocator@U?$pair@$$CBGV?$shared_ptr@VCPlayerObjectAttachAddon@@@std@@@std@@@2@$0A@@std@@@std@@QAE@XZ 100e7860 f i CPlayerData.obj
 0002:000708c0       ??1?$_Hash@V?$_Umap_traits@GVCVector@@V?$_Uhash_compare@GU?$hash@G@std@@U?$equal_to@G@2@@std@@V?$allocator@U?$pair@$$CBGVCVector@@@std@@@3@$0A@@std@@@std@@QAE@XZ 100e78c0 f i CPlayerData.obj
 0002:00070920       ??1?$_Hash@V?$_Uset_traits@GV?$_Uhash_compare@GU?$hash@G@std@@U?$equal_to@G@2@@std@@V?$allocator@G@2@$0A@@std@@@std@@QAE@XZ 100e7920 f i CPlayerData.obj
 0002:00070980       ??1?$_Hash_vec@V?$allocator@V?$_List_unchecked_const_iterator@V?$_List_val@U?$_List_simple_types@G@std@@@std@@U_Iterator_base0@2@@std@@@std@@@std@@QAE@XZ 100e7980 f i CPlayerData.obj
 0002:00070a60       ??1?$_Hash_vec@V?$allocator@V?$_List_unchecked_iterator@V?$_List_val@U?$_List_simple_types@U?$pair@$$CBGV?$basic_string@DU?$char_traits@D@std@@V?$allocator@D@2@@std@@@std@@@std@@@std@@@std@@@std@@@std@@QAE@XZ 100e7a60 f i CPlayerData.obj
 0002:00070b40       ??1?$_Hash_vec@V?$allocator@V?$_List_unchecked_iterator@V?$_List_val@U?$_List_simple_types@U?$pair@$$CBGV?$shared_ptr@VCPlayerObjectAttachAddon@@@std@@@std@@@std@@@std@@@std@@@std@@@std@@QAE@XZ 100e7b40 f i CPlayerData.obj
 0002:00070c20       ??1?$_Hash_vec@V?$allocator@V?$_List_unchecked_iterator@V?$_List_val@U?$_List_simple_types@U?$pair@$$CBGVCVector@@@std@@@std@@@std@@@std@@@std@@@std@@QAE@XZ 100e7c20 f i CPlayerData.obj
 0002:00070d00       ??1?$_List_const_iterator@V?$_List_val@U?$_List_simple_types@G@std@@@std@@@std@@QAE@XZ 100e7d00 f i CPlayerData.obj
 0002:00070d50       ??1?$_List_const_iterator@V?$_List_val@U?$_List_simple_types@U?$pair@$$CBGV?$basic_string@DU?$char_traits@D@std@@V?$allocator@D@2@@std@@@std@@@std@@@std@@@std@@QAE@XZ 100e7d50 f i CPlayerData.obj
 0002:00070da0       ??1?$_List_const_iterator@V?$_List_val@U?$_List_simple_types@U?$pair@$$CBGV?$shared_ptr@VCPlayerObjectAttachAddon@@@std@@@std@@@std@@@std@@@std@@QAE@XZ 100e7da0 f i CPlayerData.obj
 0002:00070df0       ??1?$_List_iterator@V?$_List_val@U?$_List_simple_types@G@std@@@std@@@std@@QAE@XZ 100e7df0 f i CPlayerData.obj
 0002:00070e40       ??1?$_List_iterator@V?$_List_val@U?$_List_simple_types@U?$pair@$$CBGV?$basic_string@DU?$char_traits@D@std@@V?$allocator@D@2@@std@@@std@@@std@@@std@@@std@@QAE@XZ 100e7e40 f i CPlayerData.obj
 0002:00070e90       ??1?$_List_iterator@V?$_List_val@U?$_List_simple_types@U?$pair@$$CBGV?$shared_ptr@VCPlayerObjectAttachAddon@@@std@@@std@@@std@@@std@@@std@@QAE@XZ 100e7e90 f i CPlayerData.obj
 0002:00070ee0       ??1?$_List_node_emplace_op2@V?$allocator@U?$_List_node@GPAX@std@@@std@@@std@@QAE@XZ 100e7ee0 f i CPlayerData.obj
 0002:00070fb0       ??1?$_List_node_emplace_op2@V?$allocator@U?$_List_node@U?$pair@$$CBGV?$basic_string@DU?$char_traits@D@std@@V?$allocator@D@2@@std@@@std@@PAX@std@@@std@@@std@@QAE@XZ 100e7fb0 f i CPlayerData.obj
 0002:00071080       ??1?$_List_node_emplace_op2@V?$allocator@U?$_List_node@U?$pair@$$CBGV?$shared_ptr@VCPlayerObjectAttachAddon@@@std@@@std@@PAX@std@@@std@@@std@@QAE@XZ 100e8080 f i CPlayerData.obj
 0002:00071150       ??1?$_List_unchecked_const_iterator@V?$_List_val@U?$_List_simple_types@G@std@@@std@@U_Iterator_base12@2@@std@@QAE@XZ 100e8150 f i CPlayerData.obj
 0002:000711a0       ??1?$_List_unchecked_const_iterator@V?$_List_val@U?$_List_simple_types@U?$pair@$$CBGV?$basic_string@DU?$char_traits@D@std@@V?$allocator@D@2@@std@@@std@@@std@@@std@@U_Iterator_base12@2@@std@@QAE@XZ 100e81a0 f i CPlayerData.obj
 0002:000711f0       ??1?$_List_unchecked_const_iterator@V?$_List_val@U?$_List_simple_types@U?$pair@$$CBGV?$shared_ptr@VCPlayerObjectAttachAddon@@@std@@@std@@@std@@@std@@U_Iterator_base12@2@@std@@QAE@XZ 100e81f0 f i CPlayerData.obj
 0002:00071240       ??1?$_Ref_count_obj2@VCPlayerObjectAttachAddon@@@std@@UAE@XZ 100e8240 f i CPlayerData.obj
 0002:000712b0       ??1?$_Tree@V?$_Tmap_traits@GU?$pair@EV?$basic_string@DU?$char_traits@D@std@@V?$allocator@D@2@@std@@@std@@U?$less@G@2@V?$allocator@U?$pair@$$CBGU?$pair@EV?$basic_string@DU?$char_traits@D@std@@V?$allocator@D@2@@std@@@std@@@std@@@2@$00@std@@@std@@QAE@XZ 100e82b0 f i CPlayerData.obj
 0002:00071390       ??1?$_Tree@V?$_Tset_traits@GU?$less@G@std@@V?$allocator@G@2@$0A@@std@@@std@@QAE@XZ 100e8390 f i CPlayerData.obj
 0002:00071470       ??1?$_Uninitialized_backout@PAV?$_List_unchecked_const_iterator@V?$_List_val@U?$_List_simple_types@G@std@@@std@@U_Iterator_base0@2@@std@@@std@@QAE@XZ 100e8470 f i CPlayerData.obj
 0002:000714e0       ??1?$_Uninitialized_backout@PAV?$_List_unchecked_iterator@V?$_List_val@U?$_List_simple_types@U?$pair@$$CBGV?$basic_string@DU?$char_traits@D@std@@V?$allocator@D@2@@std@@@std@@@std@@@std@@@std@@@std@@QAE@XZ 100e84e0 f i CPlayerData.obj
 0002:00071550       ??1?$_Uninitialized_backout@PAV?$_List_unchecked_iterator@V?$_List_val@U?$_List_simple_types@U?$pair@$$CBGV?$shared_ptr@VCPlayerObjectAttachAddon@@@std@@@std@@@std@@@std@@@std@@@std@@QAE@XZ 100e8550 f i CPlayerData.obj
 0002:000715c0       ??1?$_Uninitialized_backout_al@V?$allocator@URemovedBuilding@CPlayerData@@@std@@@std@@QAE@XZ 100e85c0 f i CPlayerData.obj
 0002:00071630       ??1?$list@GV?$allocator@G@std@@@std@@QAE@XZ 100e8630 f i CPlayerData.obj
 0002:000716f0       ??1?$list@U?$pair@$$CBGV?$basic_string@DU?$char_traits@D@std@@V?$allocator@D@2@@std@@@std@@V?$allocator@U?$pair@$$CBGV?$basic_string@DU?$char_traits@D@std@@V?$allocator@D@2@@std@@@std@@@2@@std@@QAE@XZ 100e86f0 f i CPlayerData.obj
 0002:000717b0       ??1?$list@U?$pair@$$CBGV?$shared_ptr@VCPlayerObjectAttachAddon@@@std@@@std@@V?$allocator@U?$pair@$$CBGV?$shared_ptr@VCPlayerObjectAttachAddon@@@std@@@std@@@2@@std@@QAE@XZ 100e87b0 f i CPlayerData.obj
 0002:00071870       ??1?$list@U?$pair@$$CBGVCVector@@@std@@V?$allocator@U?$pair@$$CBGVCVector@@@std@@@2@@std@@QAE@XZ 100e8870 f i CPlayerData.obj
 0002:00071930       ??1?$multimap@GU?$pair@EV?$basic_string@DU?$char_traits@D@std@@V?$allocator@D@2@@std@@@std@@U?$less@G@2@V?$allocator@U?$pair@$$CBGU?$pair@EV?$basic_string@DU?$char_traits@D@std@@V?$allocator@D@2@@std@@@std@@@std@@@2@@std@@QAE@XZ 100e8930 f i CPlayerData.obj
 0002:00071980       ??1?$pair@$$CBGU?$pair@EV?$basic_string@DU?$char_traits@D@std@@V?$allocator@D@2@@std@@@std@@@std@@QAE@XZ 100e8980 f i CPlayerData.obj
 0002:000719d0       ??1?$pair@$$CBGV?$basic_string@DU?$char_traits@D@std@@V?$allocator@D@2@@std@@@std@@QAE@XZ 100e89d0 f i CPlayerData.obj
 0002:00071a20       ??1?$pair@$$CBGV?$shared_ptr@VCPlayerObjectAttachAddon@@@std@@@std@@QAE@XZ 100e8a20 f i CPlayerData.obj
 0002:00071a70       ??1?$pair@EV?$basic_string@DU?$char_traits@D@std@@V?$allocator@D@2@@std@@@std@@QAE@XZ 100e8a70 f i CPlayerData.obj
 0002:00071ac0       ??1?$pair@V?$_List_const_iterator@V?$_List_val@U?$_List_simple_types@G@std@@@std@@@std@@_N@std@@QAE@XZ 100e8ac0 f i CPlayerData.obj
 0002:00071b10       ??1?$pair@V?$_List_iterator@V?$_List_val@U?$_List_simple_types@U?$pair@$$CBGV?$shared_ptr@VCPlayerObjectAttachAddon@@@std@@@std@@@std@@@std@@@std@@_N@std@@QAE@XZ 100e8b10 f i CPlayerData.obj
 0002:00071b60       ??1?$set@GU?$less@G@std@@V?$allocator@G@2@@std@@QAE@XZ 100e8b60 f i CPlayerData.obj
 0002:00071bb0       ??1?$shared_ptr@VCPlayerObjectAttachAddon@@@std@@QAE@XZ 100e8bb0 f i CPlayerData.obj
 0002:00071c10       ??1?$unordered_map@GV?$basic_string@DU?$char_traits@D@std@@V?$allocator@D@2@@std@@U?$hash@G@2@U?$equal_to@G@2@V?$allocator@U?$pair@$$CBGV?$basic_string@DU?$char_traits@D@std@@V?$allocator@D@2@@std@@@std@@@2@@std@@QAE@XZ 100e8c10 f i CPlayerData.obj
 0002:00071c60       ??1?$unordered_map@GV?$shared_ptr@VCPlayerObjectAttachAddon@@@std@@U?$hash@G@2@U?$equal_to@G@2@V?$allocator@U?$pair@$$CBGV?$shared_ptr@VCPlayerObjectAttachAddon@@@std@@@std@@@2@@std@@QAE@XZ 100e8c60 f i CPlayerData.obj
 0002:00071cb0       ??1?$unordered_map@GVCVector@@U?$hash@G@std@@U?$equal_to@G@3@V?$allocator@U?$pair@$$CBGVCVector@@@std@@@3@@std@@QAE@XZ 100e8cb0 f i CPlayerData.obj
 0002:00071d00       ??1?$unordered_set@GU?$hash@G@std@@U?$equal_to@G@2@V?$allocator@G@2@@std@@QAE@XZ 100e8d00 f i CPlayerData.obj
 0002:00071d50       ??1?$vector@URemovedBuilding@CPlayerData@@V?$allocator@URemovedBuilding@CPlayerData@@@std@@@std@@QAE@XZ 100e8d50 f i CPlayerData.obj
 0002:00071e30       ??1CPlayerData@@QAE@XZ     100e8e30 f   CPlayerData.obj
 0002:00071fa0       ??1_Clear_guard@?$_Hash@V?$_Umap_traits@GV?$basic_string@DU?$char_traits@D@std@@V?$allocator@D@2@@std@@V?$_Uhash_compare@GU?$hash@G@std@@U?$equal_to@G@2@@2@V?$allocator@U?$pair@$$CBGV?$basic_string@DU?$char_traits@D@std@@V?$allocator@D@2@@std@@@std@@@2@$0A@@std@@@std@@QAE@XZ 100e8fa0 f i CPlayerData.obj
 0002:00072010       ??1_Clear_guard@?$_Hash@V?$_Umap_traits@GV?$shared_ptr@VCPlayerObjectAttachAddon@@@std@@V?$_Uhash_compare@GU?$hash@G@std@@U?$equal_to@G@2@@2@V?$allocator@U?$pair@$$CBGV?$shared_ptr@VCPlayerObjectAttachAddon@@@std@@@std@@@2@$0A@@std@@@std@@QAE@XZ 100e9010 f i CPlayerData.obj
 0002:00072080       ??1_Clear_guard@?$_Hash@V?$_Uset_traits@GV?$_Uhash_compare@GU?$hash@G@std@@U?$equal_to@G@2@@std@@V?$allocator@G@2@$0A@@std@@@std@@QAE@XZ 100e9080 f i CPlayerData.obj
 0002:000720f0       ??1_Range_eraser@?$_Hash@V?$_Umap_traits@GV?$basic_string@DU?$char_traits@D@std@@V?$allocator@D@2@@std@@V?$_Uhash_compare@GU?$hash@G@std@@U?$equal_to@G@2@@2@V?$allocator@U?$pair@$$CBGV?$basic_string@DU?$char_traits@D@std@@V?$allocator@D@2@@std@@@std@@@2@$0A@@std@@@std@@QAE@XZ 100e90f0 f i CPlayerData.obj
 0002:00072160       ??1_Range_eraser@?$_Hash@V?$_Umap_traits@GV?$shared_ptr@VCPlayerObjectAttachAddon@@@std@@V?$_Uhash_compare@GU?$hash@G@std@@U?$equal_to@G@2@@2@V?$allocator@U?$pair@$$CBGV?$shared_ptr@VCPlayerObjectAttachAddon@@@std@@@std@@@2@$0A@@std@@@std@@QAE@XZ 100e9160 f i CPlayerData.obj
 0002:000721d0       ??1_Range_eraser@?$_Hash@V?$_Uset_traits@GV?$_Uhash_compare@GU?$hash@G@std@@U?$equal_to@G@2@@std@@V?$allocator@G@2@$0A@@std@@@std@@QAE@XZ 100e91d0 f i CPlayerData.obj
 0002:00072240       ??1_Ref_count_base@std@@UAE@XZ 100e9240 f i CPlayerData.obj
 0002:00072290       ??4?$_Tree_const_iterator@V?$_Tree_val@U?$_Tree_simple_types@G@std@@@std@@@std@@QAEAAV01@$$QAV01@@Z 100e9290 f i CPlayerData.obj
 0002:000722f0       ??4?$_Tree_unchecked_const_iterator@V?$_Tree_val@U?$_Tree_simple_types@G@std@@@std@@U_Iterator_base12@2@@std@@QAEAAV01@$$QAV01@@Z 100e92f0 f i CPlayerData.obj
 0002:00072360       ??4?$shared_ptr@VCPlayerObjectAttachAddon@@@std@@QAEAAV01@$$QAV01@@Z 100e9360 f i CPlayerData.obj
 0002:000723f0       ??4?$shared_ptr@VCPlayerObjectAttachAddon@@@std@@QAEAAV01@ABV01@@Z 100e93f0 f i CPlayerData.obj
 0002:00072480       ??8?$_List_const_iterator@V?$_List_val@U?$_List_simple_types@G@std@@@std@@@std@@QBE_NABV01@@Z 100e9480 f i CPlayerData.obj
 0002:000725a0       ??8?$_List_const_iterator@V?$_List_val@U?$_List_simple_types@U?$pair@$$CBGV?$basic_string@DU?$char_traits@D@std@@V?$allocator@D@2@@std@@@std@@@std@@@std@@@std@@QBE_NABV01@@Z 100e95a0 f i CPlayerData.obj
 0002:000726c0       ??8?$_List_const_iterator@V?$_List_val@U?$_List_simple_types@U?$pair@$$CBGV?$shared_ptr@VCPlayerObjectAttachAddon@@@std@@@std@@@std@@@std@@@std@@QBE_NABV01@@Z 100e96c0 f i CPlayerData.obj
 0002:000727e0       ??8?$_List_unchecked_const_iterator@V?$_List_val@U?$_List_simple_types@G@std@@@std@@U_Iterator_base0@2@@std@@QBE_NABV01@@Z 100e97e0 f i CPlayerData.obj
 0002:00072870       ??8?$_List_unchecked_const_iterator@V?$_List_val@U?$_List_simple_types@U?$pair@$$CBGV?$basic_string@DU?$char_traits@D@std@@V?$allocator@D@2@@std@@@std@@@std@@@std@@U_Iterator_base0@2@@std@@QBE_NABV01@@Z 100e9870 f i CPlayerData.obj
 0002:00072900       ??9?$_List_const_iterator@V?$_List_val@U?$_List_simple_types@G@std@@@std@@@std@@QBE_NABV01@@Z 100e9900 f i CPlayerData.obj
 0002:00072990       ??9?$_List_const_iterator@V?$_List_val@U?$_List_simple_types@U?$pair@$$CBGV?$shared_ptr@VCPlayerObjectAttachAddon@@@std@@@std@@@std@@@std@@@std@@QBE_NABV01@@Z 100e9990 f i CPlayerData.obj
 0002:00072a20       ??9?$_List_unchecked_const_iterator@V?$_List_val@U?$_List_simple_types@G@std@@@std@@U_Iterator_base0@2@@std@@QBE_NABV01@@Z 100e9a20 f i CPlayerData.obj
 0002:00072ab0       ??9?$_List_unchecked_const_iterator@V?$_List_val@U?$_List_simple_types@U?$pair@$$CBGV?$basic_string@DU?$char_traits@D@std@@V?$allocator@D@2@@std@@@std@@@std@@@std@@U_Iterator_base0@2@@std@@QBE_NABV01@@Z 100e9ab0 f i CPlayerData.obj
 0002:00072b40       ??A?$unordered_map@GV?$basic_string@DU?$char_traits@D@std@@V?$allocator@D@2@@std@@U?$hash@G@2@U?$equal_to@G@2@V?$allocator@U?$pair@$$CBGV?$basic_string@DU?$char_traits@D@std@@V?$allocator@D@2@@std@@@std@@@2@@std@@QAEAAV?$basic_string@DU?$char_traits@D@std@@V?$allocator@D@2@@1@ABG@Z 100e9b40 f i CPlayerData.obj
 0002:00072bb0       ??B?$shared_ptr@VCPlayerObjectAttachAddon@@@std@@QBE_NXZ 100e9bb0 f i CPlayerData.obj
 0002:00072c30       ??C?$_List_iterator@V?$_List_val@U?$_List_simple_types@U?$pair@$$CBGV?$basic_string@DU?$char_traits@D@std@@V?$allocator@D@2@@std@@@std@@@std@@@std@@@std@@QBEPAU?$pair@$$CBGV?$basic_string@DU?$char_traits@D@std@@V?$allocator@D@2@@std@@@1@XZ 100e9c30 f i CPlayerData.obj
 0002:00072ca0       ??C?$_List_iterator@V?$_List_val@U?$_List_simple_types@U?$pair@$$CBGV?$shared_ptr@VCPlayerObjectAttachAddon@@@std@@@std@@@std@@@std@@@std@@QBEPAU?$pair@$$CBGV?$shared_ptr@VCPlayerObjectAttachAddon@@@std@@@1@XZ 100e9ca0 f i CPlayerData.obj
 0002:00072d10       ??D?$_List_const_iterator@V?$_List_val@U?$_List_simple_types@U?$pair@$$CBGV?$basic_string@DU?$char_traits@D@std@@V?$allocator@D@2@@std@@@std@@@std@@@std@@@std@@QBEABU?$pair@$$CBGV?$basic_string@DU?$char_traits@D@std@@V?$allocator@D@2@@std@@@1@XZ 100e9d10 f i CPlayerData.obj
 0002:00072e90       ??D?$_List_const_iterator@V?$_List_val@U?$_List_simple_types@U?$pair@$$CBGV?$shared_ptr@VCPlayerObjectAttachAddon@@@std@@@std@@@std@@@std@@@std@@QBEABU?$pair@$$CBGV?$shared_ptr@VCPlayerObjectAttachAddon@@@std@@@1@XZ 100e9e90 f i CPlayerData.obj
 0002:00073010       ??D?$_List_iterator@V?$_List_val@U?$_List_simple_types@U?$pair@$$CBGV?$basic_string@DU?$char_traits@D@std@@V?$allocator@D@2@@std@@@std@@@std@@@std@@@std@@QBEAAU?$pair@$$CBGV?$basic_string@DU?$char_traits@D@std@@V?$allocator@D@2@@std@@@1@XZ 100ea010 f i CPlayerData.obj
 0002:00073070       ??D?$_List_iterator@V?$_List_val@U?$_List_simple_types@U?$pair@$$CBGV?$shared_ptr@VCPlayerObjectAttachAddon@@@std@@@std@@@std@@@std@@@std@@QBEAAU?$pair@$$CBGV?$shared_ptr@VCPlayerObjectAttachAddon@@@std@@@1@XZ 100ea070 f i CPlayerData.obj
 0002:000730d0       ??D?$_List_unchecked_const_iterator@V?$_List_val@U?$_List_simple_types@G@std@@@std@@U_Iterator_base0@2@@std@@QBEABGXZ 100ea0d0 f i CPlayerData.obj
 0002:00073130       ??D?$_List_unchecked_const_iterator@V?$_List_val@U?$_List_simple_types@U?$pair@$$CBGV?$basic_string@DU?$char_traits@D@std@@V?$allocator@D@2@@std@@@std@@@std@@@std@@U_Iterator_base0@2@@std@@QBEABU?$pair@$$CBGV?$basic_string@DU?$char_traits@D@std@@V?$allocator@D@2@@std@@@1@XZ 100ea130 f i CPlayerData.obj
 0002:00073190       ??D?$_List_unchecked_iterator@V?$_List_val@U?$_List_simple_types@U?$pair@$$CBGV?$basic_string@DU?$char_traits@D@std@@V?$allocator@D@2@@std@@@std@@@std@@@std@@@std@@QBEAAU?$pair@$$CBGV?$basic_string@DU?$char_traits@D@std@@V?$allocator@D@2@@std@@@1@XZ 100ea190 f i CPlayerData.obj
 0002:000731f0       ??D?$_Tree_const_iterator@V?$_Tree_val@U?$_Tree_simple_types@G@std@@@std@@@std@@QBEABGXZ 100ea1f0 f i CPlayerData.obj
 0002:00073370       ??E?$_List_unchecked_const_iterator@V?$_List_val@U?$_List_simple_types@G@std@@@std@@U_Iterator_base0@2@@std@@QAEAAV01@XZ 100ea370 f i CPlayerData.obj
 0002:000733d0       ??E?$_List_unchecked_const_iterator@V?$_List_val@U?$_List_simple_types@U?$pair@$$CBGV?$basic_string@DU?$char_traits@D@std@@V?$allocator@D@2@@std@@@std@@@std@@@std@@U_Iterator_base0@2@@std@@QAEAAV01@XZ 100ea3d0 f i CPlayerData.obj
 0002:00073430       ??E?$_List_unchecked_iterator@V?$_List_val@U?$_List_simple_types@U?$pair@$$CBGV?$basic_string@DU?$char_traits@D@std@@V?$allocator@D@2@@std@@@std@@@std@@@std@@@std@@QAEAAV01@XZ 100ea430 f i CPlayerData.obj
 0002:00073490       ??E?$_Tree_const_iterator@V?$_Tree_val@U?$_Tree_simple_types@G@std@@@std@@@std@@QAEAAV01@XZ 100ea490 f i CPlayerData.obj
 0002:00073600       ??E?$_Tree_unchecked_const_iterator@V?$_Tree_val@U?$_Tree_simple_types@G@std@@@std@@U_Iterator_base12@2@@std@@QAEAAV01@XZ 100ea600 f i CPlayerData.obj
 0002:000736d0       ??F?$_List_unchecked_const_iterator@V?$_List_val@U?$_List_simple_types@G@std@@@std@@U_Iterator_base0@2@@std@@QAEAAV01@XZ 100ea6d0 f i CPlayerData.obj
 0002:00073740       ??F?$_List_unchecked_const_iterator@V?$_List_val@U?$_List_simple_types@U?$pair@$$CBGV?$basic_string@DU?$char_traits@D@std@@V?$allocator@D@2@@std@@@std@@@std@@@std@@U_Iterator_base0@2@@std@@QAEAAV01@XZ 100ea740 f i CPlayerData.obj
 0002:000737b0       ??F?$_List_unchecked_const_iterator@V?$_List_val@U?$_List_simple_types@U?$pair@$$CBGV?$shared_ptr@VCPlayerObjectAttachAddon@@@std@@@std@@@std@@@std@@U_Iterator_base0@2@@std@@QAEAAV01@XZ 100ea7b0 f i CPlayerData.obj
 0002:00073820       ??GCVector@@QBE?AV0@ABV0@@Z 100ea820 f i CPlayerData.obj
 0002:000738d0       ??_E?$_Ref_count_obj2@VCPlayerObjectAttachAddon@@@std@@UAEPAXI@Z 100ea8d0 f i CPlayerData.obj
 0002:000738d0       ??_G?$_Ref_count_obj2@VCPlayerObjectAttachAddon@@@std@@UAEPAXI@Z 100ea8d0 f i CPlayerData.obj
 0002:00073940       ??_G?$pair@$$CBGU?$pair@EV?$basic_string@DU?$char_traits@D@std@@V?$allocator@D@2@@std@@@std@@@std@@QAEPAXI@Z 100ea940 f i CPlayerData.obj
 0002:000739b0       ??_G?$pair@$$CBGV?$basic_string@DU?$char_traits@D@std@@V?$allocator@D@2@@std@@@std@@QAEPAXI@Z 100ea9b0 f i CPlayerData.obj
 0002:00073a20       ??_G?$pair@$$CBGV?$shared_ptr@VCPlayerObjectAttachAddon@@@std@@@std@@QAEPAXI@Z 100eaa20 f i CPlayerData.obj
 0002:00073a90       ?DeleteObjectAddon@CPlayerData@@QAEXG@Z 100eaa90 f   CPlayerData.obj
 0002:00073c40       ?DestroyObject@CPlayerData@@QAE_NG@Z 100eac40 f   CPlayerData.obj
 0002:00073de0       ?FindObjectAddon@CPlayerData@@QAE?BV?$shared_ptr@VCPlayerObjectAttachAddon@@@std@@G@Z 100eade0 f   CPlayerData.obj
 0002:00073f50       ?Get@?$CSingleton@VCConfig@@@@SAPAVCConfig@@XZ 100eaf50 f i CPlayerData.obj
 0002:00073ff0       ?GetAFKAccuracy@CPlugin@@QAEKXZ 100eaff0 f i CPlayerData.obj
 0002:00074050       ?GetBuildingsRemoved@CPlayerData@@QBEIXZ 100eb050 f   CPlayerData.obj
 0002:000740b0       ?GetGangZoneIDFromClientSide@CPlayerData@@QAEGG_N@Z 100eb0b0 f   CPlayerData.obj
 0002:000741b0       ?GetObjectAddon@CPlayerData@@QAE?AV?$shared_ptr@VCPlayerObjectAttachAddon@@@std@@G@Z 100eb1b0 f   CPlayerData.obj
 0002:00074420       ?GetPlayerFightingStyleForPlayer@CPlayerData@@QAEHG@Z 100eb420 f   CPlayerData.obj
 0002:000744d0       ?GetPlayerNameForPlayer@CPlayerData@@QAEPBDG@Z 100eb4d0 f   CPlayerData.obj
 0002:00074680       ?GetPlayerSkinForPlayer@CPlayerData@@QAEHG@Z 100eb680 f   CPlayerData.obj
 0002:00074730       ?GetPlayerTeamForPlayer@CPlayerData@@QAEHG@Z 100eb730 f   CPlayerData.obj
 0002:000747e0       ?HideNewObjects@CPlayerData@@QAEX_N@Z 100eb7e0 f   CPlayerData.obj
 0002:00074840       ?HideObject@CPlayerData@@QAEXG_N@Z 100eb840 f   CPlayerData.obj
 0002:00074a10       ?IsBuildingRemoved@CPlayerData@@QBE_NHABVCVector@@M@Z 100eba10 f   CPlayerData.obj
 0002:00074b50       ?IsObjectHidden@CPlayerData@@QBE_NG@Z 100ebb50 f   CPlayerData.obj
 0002:00074ce0       ?Length@CVector@@QBEMXZ    100ebce0 f i CPlayerData.obj
 0002:00074d90       ?NewObjectsHidden@CPlayerData@@QBE_NXZ 100ebd90 f   CPlayerData.obj
 0002:00074df0       ?Process@CPlayerData@@QAEXXZ 100ebdf0 f   CPlayerData.obj
 0002:00075bb0       ?ResetPlayerMarkerForPlayer@CPlayerData@@QAEXG@Z 100ecbb0 f   CPlayerData.obj
 0002:00075d70       ?SetBuildingsRemoved@CPlayerData@@QAEXHABVCVector@@M@Z 100ecd70 f   CPlayerData.obj
 0002:00075de0       ?SetPlayerFightingStyleForPlayer@CPlayerData@@QAE_NGH@Z 100ecde0 f   CPlayerData.obj
 0002:00075fb0       ?SetPlayerNameForPlayer@CPlayerData@@QAE_NGPBD@Z 100ecfb0 f   CPlayerData.obj
 0002:00076210       ?SetPlayerSkinForPlayer@CPlayerData@@QAE_NGH@Z 100ed210 f   CPlayerData.obj
 0002:000763e0       ?SetPlayerTeamForPlayer@CPlayerData@@QAE_NGH@Z 100ed3e0 f   CPlayerData.obj
 0002:000765b0       ?ShowObject@CPlayerData@@QAEXG_N@Z 100ed5b0 f   CPlayerData.obj
 0002:00076640       ?_Alloc_sentinel_and_proxy@?$_Tree@V?$_Tmap_traits@GU?$pair@EV?$basic_string@DU?$char_traits@D@std@@V?$allocator@D@2@@std@@@std@@U?$less@G@2@V?$allocator@U?$pair@$$CBGU?$pair@EV?$basic_string@DU?$char_traits@D@std@@V?$allocator@D@2@@std@@@std@@@std@@@2@$00@std@@@std@@IAEXXZ 100ed640 f i CPlayerData.obj
 0002:00076790       ?_Alloc_sentinel_and_proxy@?$_Tree@V?$_Tset_traits@GU?$less@G@std@@V?$allocator@G@2@$0A@@std@@@std@@IAEXXZ 100ed790 f i CPlayerData.obj
 0002:000768e0       ?_Alloc_sentinel_and_proxy@?$list@GV?$allocator@G@std@@@std@@AAEXXZ 100ed8e0 f i CPlayerData.obj
 0002:00076a80       ?_Alloc_sentinel_and_proxy@?$list@U?$pair@$$CBGV?$basic_string@DU?$char_traits@D@std@@V?$allocator@D@2@@std@@@std@@V?$allocator@U?$pair@$$CBGV?$basic_string@DU?$char_traits@D@std@@V?$allocator@D@2@@std@@@std@@@2@@std@@AAEXXZ 100eda80 f i CPlayerData.obj
 0002:00076c20       ?_Alloc_sentinel_and_proxy@?$list@U?$pair@$$CBGV?$shared_ptr@VCPlayerObjectAttachAddon@@@std@@@std@@V?$allocator@U?$pair@$$CBGV?$shared_ptr@VCPlayerObjectAttachAddon@@@std@@@std@@@2@@std@@AAEXXZ 100edc20 f i CPlayerData.obj
 0002:00076dc0       ?_Alloc_sentinel_and_proxy@?$list@U?$pair@$$CBGVCVector@@@std@@V?$allocator@U?$pair@$$CBGVCVector@@@std@@@2@@std@@AAEXXZ 100eddc0 f i CPlayerData.obj
 0002:00076f60       ?_Allocate@?$_Alloc_construct_ptr@V?$allocator@U?$_List_node@GPAX@std@@@std@@@std@@QAEXXZ 100edf60 f i CPlayerData.obj
 0002:00076fd0       ?_Allocate@?$_Alloc_construct_ptr@V?$allocator@U?$_List_node@U?$pair@$$CBGV?$basic_string@DU?$char_traits@D@std@@V?$allocator@D@2@@std@@@std@@PAX@std@@@std@@@std@@QAEXXZ 100edfd0 f i CPlayerData.obj
 0002:00077040       ?_Allocate@?$_Alloc_construct_ptr@V?$allocator@U?$_List_node@U?$pair@$$CBGV?$shared_ptr@VCPlayerObjectAttachAddon@@@std@@@std@@PAX@std@@@std@@@std@@QAEXXZ 100ee040 f i CPlayerData.obj
 0002:000770b0       ?_Assign_grow@?$_Hash_vec@V?$allocator@V?$_List_unchecked_const_iterator@V?$_List_val@U?$_List_simple_types@G@std@@@std@@U_Iterator_base0@2@@std@@@std@@@std@@QAEXIV?$_List_unchecked_const_iterator@V?$_List_val@U?$_List_simple_types@G@std@@@std@@U_Iterator_base0@2@@2@@Z 100ee0b0 f i CPlayerData.obj
 0002:000771e0       ?_Assign_grow@?$_Hash_vec@V?$allocator@V?$_List_unchecked_iterator@V?$_List_val@U?$_List_simple_types@U?$pair@$$CBGV?$basic_string@DU?$char_traits@D@std@@V?$allocator@D@2@@std@@@std@@@std@@@std@@@std@@@std@@@std@@QAEXIV?$_List_unchecked_iterator@V?$_List_val@U?$_List_simple_types@U?$pair@$$CBGV?$basic_string@DU?$char_traits@D@std@@V?$allocator@D@2@@std@@@std@@@std@@@std@@@2@@Z 100ee1e0 f i CPlayerData.obj
 0002:00077310       ?_Assign_grow@?$_Hash_vec@V?$allocator@V?$_List_unchecked_iterator@V?$_List_val@U?$_List_simple_types@U?$pair@$$CBGV?$shared_ptr@VCPlayerObjectAttachAddon@@@std@@@std@@@std@@@std@@@std@@@std@@@std@@QAEXIV?$_List_unchecked_iterator@V?$_List_val@U?$_List_simple_types@U?$pair@$$CBGV?$shared_ptr@VCPlayerObjectAttachAddon@@@std@@@std@@@std@@@std@@@2@@Z 100ee310 f i CPlayerData.obj
 0002:00077440       ?_Bump_erased@_Range_eraser@?$_Hash@V?$_Umap_traits@GV?$basic_string@DU?$char_traits@D@std@@V?$allocator@D@2@@std@@V?$_Uhash_compare@GU?$hash@G@std@@U?$equal_to@G@2@@2@V?$allocator@U?$pair@$$CBGV?$basic_string@DU?$char_traits@D@std@@V?$allocator@D@2@@std@@@std@@@2@$0A@@std@@@std@@QAEXXZ 100ee440 f i CPlayerData.obj
 0002:000774a0       ?_Bump_erased@_Range_eraser@?$_Hash@V?$_Umap_traits@GV?$shared_ptr@VCPlayerObjectAttachAddon@@@std@@V?$_Uhash_compare@GU?$hash@G@std@@U?$equal_to@G@2@@2@V?$allocator@U?$pair@$$CBGV?$shared_ptr@VCPlayerObjectAttachAddon@@@std@@@std@@@2@$0A@@std@@@std@@QAEXXZ 100ee4a0 f i CPlayerData.obj
 0002:00077500       ?_Bump_erased@_Range_eraser@?$_Hash@V?$_Uset_traits@GV?$_Uhash_compare@GU?$hash@G@std@@U?$equal_to@G@2@@std@@V?$allocator@G@2@$0A@@std@@@std@@QAEXXZ 100ee500 f i CPlayerData.obj
 0002:00077560       ?_Calculate_growth@?$vector@URemovedBuilding@CPlayerData@@V?$allocator@URemovedBuilding@CPlayerData@@@std@@@std@@ABEII@Z 100ee560 f i CPlayerData.obj
 0002:00077610       ?_Change_array@?$vector@URemovedBuilding@CPlayerData@@V?$allocator@URemovedBuilding@CPlayerData@@@std@@@std@@AAEXQAURemovedBuilding@CPlayerData@@II@Z 100ee610 f i CPlayerData.obj
 0002:00077710       ?_Check_max_size@?$_Hash@V?$_Umap_traits@GV?$basic_string@DU?$char_traits@D@std@@V?$allocator@D@2@@std@@V?$_Uhash_compare@GU?$hash@G@std@@U?$equal_to@G@2@@2@V?$allocator@U?$pair@$$CBGV?$basic_string@DU?$char_traits@D@std@@V?$allocator@D@2@@std@@@std@@@2@$0A@@std@@@std@@IBEXXZ 100ee710 f i CPlayerData.obj
 0002:00077790       ?_Check_max_size@?$_Hash@V?$_Umap_traits@GV?$shared_ptr@VCPlayerObjectAttachAddon@@@std@@V?$_Uhash_compare@GU?$hash@G@std@@U?$equal_to@G@2@@2@V?$allocator@U?$pair@$$CBGV?$shared_ptr@VCPlayerObjectAttachAddon@@@std@@@std@@@2@$0A@@std@@@std@@IBEXXZ 100ee790 f i CPlayerData.obj
 0002:00077810       ?_Check_max_size@?$_Hash@V?$_Uset_traits@GV?$_Uhash_compare@GU?$hash@G@std@@U?$equal_to@G@2@@std@@V?$allocator@G@2@$0A@@std@@@std@@IBEXXZ 100ee810 f i CPlayerData.obj
 0002:00077890       ?_Check_rehash_required_1@?$_Hash@V?$_Umap_traits@GV?$basic_string@DU?$char_traits@D@std@@V?$allocator@D@2@@std@@V?$_Uhash_compare@GU?$hash@G@std@@U?$equal_to@G@2@@2@V?$allocator@U?$pair@$$CBGV?$basic_string@DU?$char_traits@D@std@@V?$allocator@D@2@@std@@@std@@@2@$0A@@std@@@std@@IBE_NXZ 100ee890 f i CPlayerData.obj
 0002:000779f0       ?_Check_rehash_required_1@?$_Hash@V?$_Umap_traits@GV?$shared_ptr@VCPlayerObjectAttachAddon@@@std@@V?$_Uhash_compare@GU?$hash@G@std@@U?$equal_to@G@2@@2@V?$allocator@U?$pair@$$CBGV?$shared_ptr@VCPlayerObjectAttachAddon@@@std@@@std@@@2@$0A@@std@@@std@@IBE_NXZ 100ee9f0 f i CPlayerData.obj
 0002:00077b50       ?_Check_rehash_required_1@?$_Hash@V?$_Uset_traits@GV?$_Uhash_compare@GU?$hash@G@std@@U?$equal_to@G@2@@std@@V?$allocator@G@2@$0A@@std@@@std@@IBE_NXZ 100eeb50 f i CPlayerData.obj
 0002:00077cb0       ?_Decref@?$_Ptr_base@VCPlayerObjectAttachAddon@@@std@@IAEXXZ 100eecb0 f i CPlayerData.obj
 0002:00077d20       ?_Decref@_Ref_count_base@std@@QAEXXZ 100eed20 f i CPlayerData.obj
 0002:00077db0       ?_Decwref@_Ref_count_base@std@@QAEXXZ 100eedb0 f i CPlayerData.obj
 0002:00077e30       ?_Delete_this@?$_Ref_count_obj2@VCPlayerObjectAttachAddon@@@std@@EAEXXZ 100eee30 f i CPlayerData.obj
 0002:00077ed0       ?_Desired_grow_bucket_count@?$_Hash@V?$_Umap_traits@GV?$basic_string@DU?$char_traits@D@std@@V?$allocator@D@2@@std@@V?$_Uhash_compare@GU?$hash@G@std@@U?$equal_to@G@2@@2@V?$allocator@U?$pair@$$CBGV?$basic_string@DU?$char_traits@D@std@@V?$allocator@D@2@@std@@@std@@@2@$0A@@std@@@std@@IBEII@Z 100eeed0 f i CPlayerData.obj
 0002:00077fa0       ?_Desired_grow_bucket_count@?$_Hash@V?$_Umap_traits@GV?$shared_ptr@VCPlayerObjectAttachAddon@@@std@@V?$_Uhash_compare@GU?$hash@G@std@@U?$equal_to@G@2@@2@V?$allocator@U?$pair@$$CBGV?$shared_ptr@VCPlayerObjectAttachAddon@@@std@@@std@@@2@$0A@@std@@@std@@IBEII@Z 100eefa0 f i CPlayerData.obj
 0002:00078070       ?_Desired_grow_bucket_count@?$_Hash@V?$_Uset_traits@GV?$_Uhash_compare@GU?$hash@G@std@@U?$equal_to@G@2@@std@@V?$allocator@G@2@$0A@@std@@@std@@IBEII@Z 100ef070 f i CPlayerData.obj
 0002:00078140       ?_Destroy@?$_Ref_count_obj2@VCPlayerObjectAttachAddon@@@std@@EAEXXZ 100ef140 f i CPlayerData.obj
 0002:000781a0       ?_Destroy@?$vector@URemovedBuilding@CPlayerData@@V?$allocator@URemovedBuilding@CPlayerData@@@std@@@std@@AAEXPAURemovedBuilding@CPlayerData@@0@Z 100ef1a0 f i CPlayerData.obj
 0002:00078210       ?_Erase_bucket@?$_Hash@V?$_Umap_traits@GV?$shared_ptr@VCPlayerObjectAttachAddon@@@std@@V?$_Uhash_compare@GU?$hash@G@std@@U?$equal_to@G@2@@2@V?$allocator@U?$pair@$$CBGV?$shared_ptr@VCPlayerObjectAttachAddon@@@std@@@std@@@2@$0A@@std@@@std@@IAEXPAU?$_List_node@U?$pair@$$CBGV?$shared_ptr@VCPlayerObjectAttachAddon@@@std@@@std@@PAX@2@I@Z 100ef210 f i CPlayerData.obj
 0002:000782f0       ?_Erase_bucket@?$_Hash@V?$_Uset_traits@GV?$_Uhash_compare@GU?$hash@G@std@@U?$equal_to@G@2@@std@@V?$allocator@G@2@$0A@@std@@@std@@IAEXPAU?$_List_node@GPAX@2@I@Z 100ef2f0 f i CPlayerData.obj
 0002:000783d0       ?_Extract@?$_In_place_key_extract_map@GGV?$shared_ptr@VCPlayerObjectAttachAddon@@@std@@@std@@SAABGABGABV?$shared_ptr@VCPlayerObjectAttachAddon@@@2@@Z 100ef3d0 f i CPlayerData.obj
 0002:00078420       ?_Forced_rehash@?$_Hash@V?$_Umap_traits@GV?$basic_string@DU?$char_traits@D@std@@V?$allocator@D@2@@std@@V?$_Uhash_compare@GU?$hash@G@std@@U?$equal_to@G@2@@2@V?$allocator@U?$pair@$$CBGV?$basic_string@DU?$char_traits@D@std@@V?$allocator@D@2@@std@@@std@@@2@$0A@@std@@@std@@IAEXI@Z 100ef420 f i CPlayerData.obj
 0002:00078860       ?_Forced_rehash@?$_Hash@V?$_Umap_traits@GV?$shared_ptr@VCPlayerObjectAttachAddon@@@std@@V?$_Uhash_compare@GU?$hash@G@std@@U?$equal_to@G@2@@2@V?$allocator@U?$pair@$$CBGV?$shared_ptr@VCPlayerObjectAttachAddon@@@std@@@std@@@2@$0A@@std@@@std@@IAEXI@Z 100ef860 f i CPlayerData.obj
 0002:00078ca0       ?_Forced_rehash@?$_Hash@V?$_Uset_traits@GV?$_Uhash_compare@GU?$hash@G@std@@U?$equal_to@G@2@@std@@V?$allocator@G@2@$0A@@std@@@std@@IAEXI@Z 100efca0 f i CPlayerData.obj
 0002:000790e0       ?_Get_deleter@_Ref_count_base@std@@UBEPAXABVtype_info@@@Z 100f00e0 f i CPlayerData.obj
 0002:00079140       ?_Get_first@?$_Compressed_pair@V?$allocator@U?$_List_node@GPAX@std@@@std@@V?$_List_val@U?$_List_simple_types@G@std@@@2@$00@std@@QAEAAV?$allocator@U?$_List_node@GPAX@std@@@2@XZ 100f0140 f i CPlayerData.obj
 0002:000791a0       ?_Get_first@?$_Compressed_pair@V?$allocator@U?$_List_node@GPAX@std@@@std@@V?$_List_val@U?$_List_simple_types@G@std@@@2@$00@std@@QBEABV?$allocator@U?$_List_node@GPAX@std@@@2@XZ 100f01a0 f i CPlayerData.obj
 0002:00079200       ?_Get_first@?$_Compressed_pair@V?$allocator@U?$_List_node@U?$pair@$$CBGV?$basic_string@DU?$char_traits@D@std@@V?$allocator@D@2@@std@@@std@@PAX@std@@@std@@V?$_List_val@U?$_List_simple_types@U?$pair@$$CBGV?$basic_string@DU?$char_traits@D@std@@V?$allocator@D@2@@std@@@std@@@std@@@2@$00@std@@QAEAAV?$allocator@U?$_List_node@U?$pair@$$CBGV?$basic_string@DU?$char_traits@D@std@@V?$allocator@D@2@@std@@@std@@PAX@std@@@2@XZ 100f0200 f i CPlayerData.obj
 0002:00079260       ?_Get_first@?$_Compressed_pair@V?$allocator@U?$_List_node@U?$pair@$$CBGV?$basic_string@DU?$char_traits@D@std@@V?$allocator@D@2@@std@@@std@@PAX@std@@@std@@V?$_List_val@U?$_List_simple_types@U?$pair@$$CBGV?$basic_string@DU?$char_traits@D@std@@V?$allocator@D@2@@std@@@std@@@std@@@2@$00@std@@QBEABV?$allocator@U?$_List_node@U?$pair@$$CBGV?$basic_string@DU?$char_traits@D@std@@V?$allocator@D@2@@std@@@std@@PAX@std@@@2@XZ 100f0260 f i CPlayerData.obj
 0002:000792c0       ?_Get_first@?$_Compressed_pair@V?$allocator@U?$_List_node@U?$pair@$$CBGV?$shared_ptr@VCPlayerObjectAttachAddon@@@std@@@std@@PAX@std@@@std@@V?$_List_val@U?$_List_simple_types@U?$pair@$$CBGV?$shared_ptr@VCPlayerObjectAttachAddon@@@std@@@std@@@std@@@2@$00@std@@QAEAAV?$allocator@U?$_List_node@U?$pair@$$CBGV?$shared_ptr@VCPlayerObjectAttachAddon@@@std@@@std@@PAX@std@@@2@XZ 100f02c0 f i CPlayerData.obj
 0002:00079320       ?_Get_first@?$_Compressed_pair@V?$allocator@U?$_List_node@U?$pair@$$CBGV?$shared_ptr@VCPlayerObjectAttachAddon@@@std@@@std@@PAX@std@@@std@@V?$_List_val@U?$_List_simple_types@U?$pair@$$CBGV?$shared_ptr@VCPlayerObjectAttachAddon@@@std@@@std@@@std@@@2@$00@std@@QBEABV?$allocator@U?$_List_node@U?$pair@$$CBGV?$shared_ptr@VCPlayerObjectAttachAddon@@@std@@@std@@PAX@std@@@2@XZ 100f0320 f i CPlayerData.obj
 0002:00079380       ?_Get_first@?$_Compressed_pair@V?$allocator@U?$_Tree_node@U?$pair@$$CBGU?$pair@EV?$basic_string@DU?$char_traits@D@std@@V?$allocator@D@2@@std@@@std@@@std@@PAX@std@@@std@@V?$_Tree_val@U?$_Tree_simple_types@U?$pair@$$CBGU?$pair@EV?$basic_string@DU?$char_traits@D@std@@V?$allocator@D@2@@std@@@std@@@std@@@std@@@2@$00@std@@QAEAAV?$allocator@U?$_Tree_node@U?$pair@$$CBGU?$pair@EV?$basic_string@DU?$char_traits@D@std@@V?$allocator@D@2@@std@@@std@@@std@@PAX@std@@@2@XZ 100f0380 f i CPlayerData.obj
 0002:000793e0       ?_Get_first@?$_Compressed_pair@V?$allocator@URemovedBuilding@CPlayerData@@@std@@V?$_Vector_val@U?$_Simple_types@URemovedBuilding@CPlayerData@@@std@@@2@$00@std@@QAEAAV?$allocator@URemovedBuilding@CPlayerData@@@2@XZ 100f03e0 f i CPlayerData.obj
 0002:00079440       ?_Get_first@?$_Compressed_pair@V?$allocator@URemovedBuilding@CPlayerData@@@std@@V?$_Vector_val@U?$_Simple_types@URemovedBuilding@CPlayerData@@@std@@@2@$00@std@@QBEABV?$allocator@URemovedBuilding@CPlayerData@@@2@XZ 100f0440 f i CPlayerData.obj
 0002:000794a0       ?_Get_first@?$_Compressed_pair@V?$allocator@V?$_List_unchecked_const_iterator@V?$_List_val@U?$_List_simple_types@G@std@@@std@@U_Iterator_base0@2@@std@@@std@@V?$_Vector_val@U?$_Simple_types@V?$_List_unchecked_const_iterator@V?$_List_val@U?$_List_simple_types@G@std@@@std@@U_Iterator_base0@2@@std@@@std@@@2@$00@std@@QAEAAV?$allocator@V?$_List_unchecked_const_iterator@V?$_List_val@U?$_List_simple_types@G@std@@@std@@U_Iterator_base0@2@@std@@@2@XZ 100f04a0 f i CPlayerData.obj
 0002:00079500       ?_Get_first@?$_Compressed_pair@V?$allocator@V?$_List_unchecked_const_iterator@V?$_List_val@U?$_List_simple_types@G@std@@@std@@U_Iterator_base0@2@@std@@@std@@V?$_Vector_val@U?$_Simple_types@V?$_List_unchecked_const_iterator@V?$_List_val@U?$_List_simple_types@G@std@@@std@@U_Iterator_base0@2@@std@@@std@@@2@$00@std@@QBEABV?$allocator@V?$_List_unchecked_const_iterator@V?$_List_val@U?$_List_simple_types@G@std@@@std@@U_Iterator_base0@2@@std@@@2@XZ 100f0500 f i CPlayerData.obj
 0002:00079560       ?_Get_first@?$_Compressed_pair@V?$allocator@V?$_List_unchecked_iterator@V?$_List_val@U?$_List_simple_types@U?$pair@$$CBGV?$basic_string@DU?$char_traits@D@std@@V?$allocator@D@2@@std@@@std@@@std@@@std@@@std@@@std@@V?$_Vector_val@U?$_Simple_types@V?$_List_unchecked_iterator@V?$_List_val@U?$_List_simple_types@U?$pair@$$CBGV?$basic_string@DU?$char_traits@D@std@@V?$allocator@D@2@@std@@@std@@@std@@@std@@@std@@@std@@@2@$00@std@@QAEAAV?$allocator@V?$_List_unchecked_iterator@V?$_List_val@U?$_List_simple_types@U?$pair@$$CBGV?$basic_string@DU?$char_traits@D@std@@V?$allocator@D@2@@std@@@std@@@std@@@std@@@std@@@2@XZ 100f0560 f i CPlayerData.obj
 0002:000795c0       ?_Get_first@?$_Compressed_pair@V?$allocator@V?$_List_unchecked_iterator@V?$_List_val@U?$_List_simple_types@U?$pair@$$CBGV?$basic_string@DU?$char_traits@D@std@@V?$allocator@D@2@@std@@@std@@@std@@@std@@@std@@@std@@V?$_Vector_val@U?$_Simple_types@V?$_List_unchecked_iterator@V?$_List_val@U?$_List_simple_types@U?$pair@$$CBGV?$basic_string@DU?$char_traits@D@std@@V?$allocator@D@2@@std@@@std@@@std@@@std@@@std@@@std@@@2@$00@std@@QBEABV?$allocator@V?$_List_unchecked_iterator@V?$_List_val@U?$_List_simple_types@U?$pair@$$CBGV?$basic_string@DU?$char_traits@D@std@@V?$allocator@D@2@@std@@@std@@@std@@@std@@@std@@@2@XZ 100f05c0 f i CPlayerData.obj
 0002:00079620       ?_Get_first@?$_Compressed_pair@V?$allocator@V?$_List_unchecked_iterator@V?$_List_val@U?$_List_simple_types@U?$pair@$$CBGV?$shared_ptr@VCPlayerObjectAttachAddon@@@std@@@std@@@std@@@std@@@std@@@std@@V?$_Vector_val@U?$_Simple_types@V?$_List_unchecked_iterator@V?$_List_val@U?$_List_simple_types@U?$pair@$$CBGV?$shared_ptr@VCPlayerObjectAttachAddon@@@std@@@std@@@std@@@std@@@std@@@std@@@2@$00@std@@QAEAAV?$allocator@V?$_List_unchecked_iterator@V?$_List_val@U?$_List_simple_types@U?$pair@$$CBGV?$shared_ptr@VCPlayerObjectAttachAddon@@@std@@@std@@@std@@@std@@@std@@@2@XZ 100f0620 f i CPlayerData.obj
 0002:00079680       ?_Get_first@?$_Compressed_pair@V?$allocator@V?$_List_unchecked_iterator@V?$_List_val@U?$_List_simple_types@U?$pair@$$CBGV?$shared_ptr@VCPlayerObjectAttachAddon@@@std@@@std@@@std@@@std@@@std@@@std@@V?$_Vector_val@U?$_Simple_types@V?$_List_unchecked_iterator@V?$_List_val@U?$_List_simple_types@U?$pair@$$CBGV?$shared_ptr@VCPlayerObjectAttachAddon@@@std@@@std@@@std@@@std@@@std@@@std@@@2@$00@std@@QBEABV?$allocator@V?$_List_unchecked_iterator@V?$_List_val@U?$_List_simple_types@U?$pair@$$CBGV?$shared_ptr@VCPlayerObjectAttachAddon@@@std@@@std@@@std@@@std@@@std@@@2@XZ 100f0680 f i CPlayerData.obj
 0002:000796e0       ?_Get_scary@?$_Tree@V?$_Tmap_traits@GU?$pair@EV?$basic_string@DU?$char_traits@D@std@@V?$allocator@D@2@@std@@@std@@U?$less@G@2@V?$allocator@U?$pair@$$CBGU?$pair@EV?$basic_string@DU?$char_traits@D@std@@V?$allocator@D@2@@std@@@std@@@std@@@2@$00@std@@@std@@IAEPAV?$_Tree_val@U?$_Tree_simple_types@U?$pair@$$CBGU?$pair@EV?$basic_string@DU?$char_traits@D@std@@V?$allocator@D@2@@std@@@std@@@std@@@std@@@2@XZ 100f06e0 f i CPlayerData.obj
 0002:00079740       ?_Getal@?$_Tree@V?$_Tmap_traits@GU?$pair@EV?$basic_string@DU?$char_traits@D@std@@V?$allocator@D@2@@std@@@std@@U?$less@G@2@V?$allocator@U?$pair@$$CBGU?$pair@EV?$basic_string@DU?$char_traits@D@std@@V?$allocator@D@2@@std@@@std@@@std@@@2@$00@std@@@std@@IAEAAV?$allocator@U?$_Tree_node@U?$pair@$$CBGU?$pair@EV?$basic_string@DU?$char_traits@D@std@@V?$allocator@D@2@@std@@@std@@@std@@PAX@std@@@2@XZ 100f0740 f i CPlayerData.obj
 0002:000797a0       ?_Getal@?$list@GV?$allocator@G@std@@@std@@AAEAAV?$allocator@U?$_List_node@GPAX@std@@@2@XZ 100f07a0 f i CPlayerData.obj
 0002:00079800       ?_Getal@?$list@GV?$allocator@G@std@@@std@@ABEABV?$allocator@U?$_List_node@GPAX@std@@@2@XZ 100f0800 f i CPlayerData.obj
 0002:00079860       ?_Getal@?$list@U?$pair@$$CBGV?$basic_string@DU?$char_traits@D@std@@V?$allocator@D@2@@std@@@std@@V?$allocator@U?$pair@$$CBGV?$basic_string@DU?$char_traits@D@std@@V?$allocator@D@2@@std@@@std@@@2@@std@@AAEAAV?$allocator@U?$_List_node@U?$pair@$$CBGV?$basic_string@DU?$char_traits@D@std@@V?$allocator@D@2@@std@@@std@@PAX@std@@@2@XZ 100f0860 f i CPlayerData.obj
 0002:000798c0       ?_Getal@?$list@U?$pair@$$CBGV?$basic_string@DU?$char_traits@D@std@@V?$allocator@D@2@@std@@@std@@V?$allocator@U?$pair@$$CBGV?$basic_string@DU?$char_traits@D@std@@V?$allocator@D@2@@std@@@std@@@2@@std@@ABEABV?$allocator@U?$_List_node@U?$pair@$$CBGV?$basic_string@DU?$char_traits@D@std@@V?$allocator@D@2@@std@@@std@@PAX@std@@@2@XZ 100f08c0 f i CPlayerData.obj
 0002:00079920       ?_Getal@?$list@U?$pair@$$CBGV?$shared_ptr@VCPlayerObjectAttachAddon@@@std@@@std@@V?$allocator@U?$pair@$$CBGV?$shared_ptr@VCPlayerObjectAttachAddon@@@std@@@std@@@2@@std@@AAEAAV?$allocator@U?$_List_node@U?$pair@$$CBGV?$shared_ptr@VCPlayerObjectAttachAddon@@@std@@@std@@PAX@std@@@2@XZ 100f0920 f i CPlayerData.obj
 0002:00079980       ?_Getal@?$list@U?$pair@$$CBGV?$shared_ptr@VCPlayerObjectAttachAddon@@@std@@@std@@V?$allocator@U?$pair@$$CBGV?$shared_ptr@VCPlayerObjectAttachAddon@@@std@@@std@@@2@@std@@ABEABV?$allocator@U?$_List_node@U?$pair@$$CBGV?$shared_ptr@VCPlayerObjectAttachAddon@@@std@@@std@@PAX@std@@@2@XZ 100f0980 f i CPlayerData.obj
 0002:000799e0       ?_Getal@?$vector@URemovedBuilding@CPlayerData@@V?$allocator@URemovedBuilding@CPlayerData@@@std@@@std@@AAEAAV?$allocator@URemovedBuilding@CPlayerData@@@2@XZ 100f09e0 f i CPlayerData.obj
 0002:00079a40       ?_Getal@?$vector@URemovedBuilding@CPlayerData@@V?$allocator@URemovedBuilding@CPlayerData@@@std@@@std@@ABEABV?$allocator@URemovedBuilding@CPlayerData@@@2@XZ 100f0a40 f i CPlayerData.obj
 0002:00079aa0       ?_Incref@?$_Ptr_base@VCPlayerObjectAttachAddon@@@std@@IBEXXZ 100f0aa0 f i CPlayerData.obj
 0002:00079b10       ?_Incref@_Ref_count_base@std@@QAEXXZ 100f0b10 f i CPlayerData.obj
 0002:00079b70       ?_Insert_new_node_before@?$_Hash@V?$_Umap_traits@GV?$basic_string@DU?$char_traits@D@std@@V?$allocator@D@2@@std@@V?$_Uhash_compare@GU?$hash@G@std@@U?$equal_to@G@2@@2@V?$allocator@U?$pair@$$CBGV?$basic_string@DU?$char_traits@D@std@@V?$allocator@D@2@@std@@@std@@@2@$0A@@std@@@std@@IAEPAU?$_List_node@U?$pair@$$CBGV?$basic_string@DU?$char_traits@D@std@@V?$allocator@D@2@@std@@@std@@PAX@2@IQAU32@0@Z 100f0b70 f i CPlayerData.obj
 0002:00079d10       ?_Insert_new_node_before@?$_Hash@V?$_Umap_traits@GV?$shared_ptr@VCPlayerObjectAttachAddon@@@std@@V?$_Uhash_compare@GU?$hash@G@std@@U?$equal_to@G@2@@2@V?$allocator@U?$pair@$$CBGV?$shared_ptr@VCPlayerObjectAttachAddon@@@std@@@std@@@2@$0A@@std@@@std@@IAEPAU?$_List_node@U?$pair@$$CBGV?$shared_ptr@VCPlayerObjectAttachAddon@@@std@@@std@@PAX@2@IQAU32@0@Z 100f0d10 f i CPlayerData.obj
 0002:00079eb0       ?_Insert_new_node_before@?$_Hash@V?$_Uset_traits@GV?$_Uhash_compare@GU?$hash@G@std@@U?$equal_to@G@2@@std@@V?$allocator@G@2@$0A@@std@@@std@@IAEPAU?$_List_node@GPAX@2@IQAU32@0@Z 100f0eb0 f i CPlayerData.obj
 0002:0007a050       ?_Kfn@?$_Uset_traits@GV?$_Uhash_compare@GU?$hash@G@std@@U?$equal_to@G@2@@std@@V?$allocator@G@2@$0A@@std@@SAABGABG@Z 100f1050 f i CPlayerData.obj
 0002:0007a0a0       ?_Make_const_iter@?$list@GV?$allocator@G@std@@@std@@QBE?AV?$_List_const_iterator@V?$_List_val@U?$_List_simple_types@G@std@@@std@@@2@PAU?$_List_node@GPAX@2@@Z 100f10a0 f i CPlayerData.obj
 0002:0007a120       ?_Make_iter@?$list@GV?$allocator@G@std@@@std@@QBE?AV?$_List_iterator@V?$_List_val@U?$_List_simple_types@G@std@@@std@@@2@PAU?$_List_node@GPAX@2@@Z 100f1120 f i CPlayerData.obj
 0002:0007a1a0       ?_Make_iter@?$list@U?$pair@$$CBGV?$basic_string@DU?$char_traits@D@std@@V?$allocator@D@2@@std@@@std@@V?$allocator@U?$pair@$$CBGV?$basic_string@DU?$char_traits@D@std@@V?$allocator@D@2@@std@@@std@@@2@@std@@QBE?AV?$_List_iterator@V?$_List_val@U?$_List_simple_types@U?$pair@$$CBGV?$basic_string@DU?$char_traits@D@std@@V?$allocator@D@2@@std@@@std@@@std@@@std@@@2@PAU?$_List_node@U?$pair@$$CBGV?$basic_string@DU?$char_traits@D@std@@V?$allocator@D@2@@std@@@std@@PAX@2@@Z 100f11a0 f i CPlayerData.obj
 0002:0007a220       ?_Make_iter@?$list@U?$pair@$$CBGV?$shared_ptr@VCPlayerObjectAttachAddon@@@std@@@std@@V?$allocator@U?$pair@$$CBGV?$shared_ptr@VCPlayerObjectAttachAddon@@@std@@@std@@@2@@std@@QBE?AV?$_List_iterator@V?$_List_val@U?$_List_simple_types@U?$pair@$$CBGV?$shared_ptr@VCPlayerObjectAttachAddon@@@std@@@std@@@std@@@std@@@2@PAU?$_List_node@U?$pair@$$CBGV?$shared_ptr@VCPlayerObjectAttachAddon@@@std@@@std@@PAX@2@@Z 100f1220 f i CPlayerData.obj
 0002:0007a2a0       ?_Max_bucket_size@?$_Hash@V?$_Umap_traits@GV?$basic_string@DU?$char_traits@D@std@@V?$allocator@D@2@@std@@V?$_Uhash_compare@GU?$hash@G@std@@U?$equal_to@G@2@@2@V?$allocator@U?$pair@$$CBGV?$basic_string@DU?$char_traits@D@std@@V?$allocator@D@2@@std@@@std@@@2@$0A@@std@@@std@@IAEAAMXZ 100f12a0 f i CPlayerData.obj
 0002:0007a300       ?_Max_bucket_size@?$_Hash@V?$_Umap_traits@GV?$basic_string@DU?$char_traits@D@std@@V?$allocator@D@2@@std@@V?$_Uhash_compare@GU?$hash@G@std@@U?$equal_to@G@2@@2@V?$allocator@U?$pair@$$CBGV?$basic_string@DU?$char_traits@D@std@@V?$allocator@D@2@@std@@@std@@@2@$0A@@std@@@std@@IBEABMXZ 100f1300 f i CPlayerData.obj
 0002:0007a360       ?_Max_bucket_size@?$_Hash@V?$_Umap_traits@GV?$shared_ptr@VCPlayerObjectAttachAddon@@@std@@V?$_Uhash_compare@GU?$hash@G@std@@U?$equal_to@G@2@@2@V?$allocator@U?$pair@$$CBGV?$shared_ptr@VCPlayerObjectAttachAddon@@@std@@@std@@@2@$0A@@std@@@std@@IAEAAMXZ 100f1360 f i CPlayerData.obj
 0002:0007a3c0       ?_Max_bucket_size@?$_Hash@V?$_Umap_traits@GV?$shared_ptr@VCPlayerObjectAttachAddon@@@std@@V?$_Uhash_compare@GU?$hash@G@std@@U?$equal_to@G@2@@2@V?$allocator@U?$pair@$$CBGV?$shared_ptr@VCPlayerObjectAttachAddon@@@std@@@std@@@2@$0A@@std@@@std@@IBEABMXZ 100f13c0 f i CPlayerData.obj
 0002:0007a420       ?_Max_bucket_size@?$_Hash@V?$_Umap_traits@GVCVector@@V?$_Uhash_compare@GU?$hash@G@std@@U?$equal_to@G@2@@std@@V?$allocator@U?$pair@$$CBGVCVector@@@std@@@3@$0A@@std@@@std@@IAEAAMXZ 100f1420 f i CPlayerData.obj
 0002:0007a480       ?_Max_bucket_size@?$_Hash@V?$_Uset_traits@GV?$_Uhash_compare@GU?$hash@G@std@@U?$equal_to@G@2@@std@@V?$allocator@G@2@$0A@@std@@@std@@IAEAAMXZ 100f1480 f i CPlayerData.obj
 0002:0007a4e0       ?_Max_bucket_size@?$_Hash@V?$_Uset_traits@GV?$_Uhash_compare@GU?$hash@G@std@@U?$equal_to@G@2@@std@@V?$allocator@G@2@$0A@@std@@@std@@IBEABMXZ 100f14e0 f i CPlayerData.obj
 0002:0007a540       ?_Min_load_factor_buckets@?$_Hash@V?$_Umap_traits@GV?$basic_string@DU?$char_traits@D@std@@V?$allocator@D@2@@std@@V?$_Uhash_compare@GU?$hash@G@std@@U?$equal_to@G@2@@2@V?$allocator@U?$pair@$$CBGV?$basic_string@DU?$char_traits@D@std@@V?$allocator@D@2@@std@@@std@@@2@$0A@@std@@@std@@IBEII@Z 100f1540 f i CPlayerData.obj
 0002:0007a630       ?_Min_load_factor_buckets@?$_Hash@V?$_Umap_traits@GV?$shared_ptr@VCPlayerObjectAttachAddon@@@std@@V?$_Uhash_compare@GU?$hash@G@std@@U?$equal_to@G@2@@2@V?$allocator@U?$pair@$$CBGV?$shared_ptr@VCPlayerObjectAttachAddon@@@std@@@std@@@2@$0A@@std@@@std@@IBEII@Z 100f1630 f i CPlayerData.obj
 0002:0007a720       ?_Min_load_factor_buckets@?$_Hash@V?$_Uset_traits@GV?$_Uhash_compare@GU?$hash@G@std@@U?$equal_to@G@2@@std@@V?$allocator@G@2@$0A@@std@@@std@@IBEII@Z 100f1720 f i CPlayerData.obj
 0002:0007a810       ?_Orphan_non_end@?$_List_val@U?$_List_simple_types@G@std@@@std@@QAEXXZ 100f1810 f i CPlayerData.obj
 0002:0007a930       ?_Orphan_non_end@?$_List_val@U?$_List_simple_types@U?$pair@$$CBGV?$basic_string@DU?$char_traits@D@std@@V?$allocator@D@2@@std@@@std@@@std@@@std@@QAEXXZ 100f1930 f i CPlayerData.obj
 0002:0007aa50       ?_Orphan_non_end@?$_List_val@U?$_List_simple_types@U?$pair@$$CBGV?$shared_ptr@VCPlayerObjectAttachAddon@@@std@@@std@@@std@@@std@@QAEXXZ 100f1a50 f i CPlayerData.obj
 0002:0007ab70       ?_Orphan_ptr2@?$_List_val@U?$_List_simple_types@G@std@@@std@@QAEXPAU?$_List_node@GPAX@2@@Z 100f1b70 f i CPlayerData.obj
 0002:0007aca0       ?_Orphan_ptr2@?$_List_val@U?$_List_simple_types@U?$pair@$$CBGV?$shared_ptr@VCPlayerObjectAttachAddon@@@std@@@std@@@std@@@std@@QAEXPAU?$_List_node@U?$pair@$$CBGV?$shared_ptr@VCPlayerObjectAttachAddon@@@std@@@std@@PAX@2@@Z 100f1ca0 f i CPlayerData.obj
 0002:0007add0       ?_Orphan_range@?$vector@URemovedBuilding@CPlayerData@@V?$allocator@URemovedBuilding@CPlayerData@@@std@@@std@@ABEXPAURemovedBuilding@CPlayerData@@0@Z 100f1dd0 f i CPlayerData.obj
 0002:0007ae40       ?_Orphan_range_locked@?$vector@URemovedBuilding@CPlayerData@@V?$allocator@URemovedBuilding@CPlayerData@@@std@@@std@@ABEXPAURemovedBuilding@CPlayerData@@0@Z 100f1e40 f i CPlayerData.obj
 0002:0007af50       ?_Orphan_range_unlocked@?$vector@URemovedBuilding@CPlayerData@@V?$allocator@URemovedBuilding@CPlayerData@@@std@@@std@@ABEXPAURemovedBuilding@CPlayerData@@0@Z 100f1f50 f i CPlayerData.obj
 0002:0007b020       ?_Rehash_for_1@?$_Hash@V?$_Umap_traits@GV?$basic_string@DU?$char_traits@D@std@@V?$allocator@D@2@@std@@V?$_Uhash_compare@GU?$hash@G@std@@U?$equal_to@G@2@@2@V?$allocator@U?$pair@$$CBGV?$basic_string@DU?$char_traits@D@std@@V?$allocator@D@2@@std@@@std@@@2@$0A@@std@@@std@@IAEXXZ 100f2020 f i CPlayerData.obj
 0002:0007b0a0       ?_Rehash_for_1@?$_Hash@V?$_Umap_traits@GV?$shared_ptr@VCPlayerObjectAttachAddon@@@std@@V?$_Uhash_compare@GU?$hash@G@std@@U?$equal_to@G@2@@2@V?$allocator@U?$pair@$$CBGV?$shared_ptr@VCPlayerObjectAttachAddon@@@std@@@std@@@2@$0A@@std@@@std@@IAEXXZ 100f20a0 f i CPlayerData.obj
 0002:0007b120       ?_Rehash_for_1@?$_Hash@V?$_Uset_traits@GV?$_Uhash_compare@GU?$hash@G@std@@U?$equal_to@G@2@@std@@V?$allocator@G@2@$0A@@std@@@std@@IAEXXZ 100f2120 f i CPlayerData.obj
 0002:0007b1a0       ?_Release@?$_Alloc_construct_ptr@V?$allocator@U?$_List_node@GPAX@std@@@std@@@std@@QAEPAU?$_List_node@GPAX@2@XZ 100f21a0 f i CPlayerData.obj
 0002:0007b220       ?_Release@?$_Alloc_construct_ptr@V?$allocator@U?$_List_node@U?$pair@$$CBGV?$basic_string@DU?$char_traits@D@std@@V?$allocator@D@2@@std@@@std@@PAX@std@@@std@@@std@@QAEPAU?$_List_node@U?$pair@$$CBGV?$basic_string@DU?$char_traits@D@std@@V?$allocator@D@2@@std@@@std@@PAX@2@XZ 100f2220 f i CPlayerData.obj
 0002:0007b2a0       ?_Release@?$_Alloc_construct_ptr@V?$allocator@U?$_List_node@U?$pair@$$CBGV?$shared_ptr@VCPlayerObjectAttachAddon@@@std@@@std@@PAX@std@@@std@@@std@@QAEPAU?$_List_node@U?$pair@$$CBGV?$shared_ptr@VCPlayerObjectAttachAddon@@@std@@@std@@PAX@2@XZ 100f22a0 f i CPlayerData.obj
 0002:0007b320       ?_Release@?$_Uninitialized_backout@PAV?$_List_unchecked_const_iterator@V?$_List_val@U?$_List_simple_types@G@std@@@std@@U_Iterator_base0@2@@std@@@std@@QAEPAV?$_List_unchecked_const_iterator@V?$_List_val@U?$_List_simple_types@G@std@@@std@@U_Iterator_base0@2@@2@XZ 100f2320 f i CPlayerData.obj
 0002:0007b390       ?_Release@?$_Uninitialized_backout@PAV?$_List_unchecked_iterator@V?$_List_val@U?$_List_simple_types@U?$pair@$$CBGV?$basic_string@DU?$char_traits@D@std@@V?$allocator@D@2@@std@@@std@@@std@@@std@@@std@@@std@@QAEPAV?$_List_unchecked_iterator@V?$_List_val@U?$_List_simple_types@U?$pair@$$CBGV?$basic_string@DU?$char_traits@D@std@@V?$allocator@D@2@@std@@@std@@@std@@@std@@@2@XZ 100f2390 f i CPlayerData.obj
 0002:0007b400       ?_Release@?$_Uninitialized_backout@PAV?$_List_unchecked_iterator@V?$_List_val@U?$_List_simple_types@U?$pair@$$CBGV?$shared_ptr@VCPlayerObjectAttachAddon@@@std@@@std@@@std@@@std@@@std@@@std@@QAEPAV?$_List_unchecked_iterator@V?$_List_val@U?$_List_simple_types@U?$pair@$$CBGV?$shared_ptr@VCPlayerObjectAttachAddon@@@std@@@std@@@std@@@std@@@2@XZ 100f2400 f i CPlayerData.obj
 0002:0007b470       ?_Release@?$_Uninitialized_backout_al@V?$allocator@URemovedBuilding@CPlayerData@@@std@@@std@@QAEPAURemovedBuilding@CPlayerData@@XZ 100f2470 f i CPlayerData.obj
 0002:0007b4e0       ?_Swap@?$_Ptr_base@VCPlayerObjectAttachAddon@@@std@@IAEXAAV12@@Z 100f24e0 f i CPlayerData.obj
 0002:0007b560       ?_Tidy@?$_Hash_vec@V?$allocator@V?$_List_unchecked_const_iterator@V?$_List_val@U?$_List_simple_types@G@std@@@std@@U_Iterator_base0@2@@std@@@std@@@std@@QAEXXZ 100f2560 f i CPlayerData.obj
 0002:0007b650       ?_Tidy@?$_Hash_vec@V?$allocator@V?$_List_unchecked_iterator@V?$_List_val@U?$_List_simple_types@U?$pair@$$CBGV?$basic_string@DU?$char_traits@D@std@@V?$allocator@D@2@@std@@@std@@@std@@@std@@@std@@@std@@@std@@QAEXXZ 100f2650 f i CPlayerData.obj
 0002:0007b740       ?_Tidy@?$_Hash_vec@V?$allocator@V?$_List_unchecked_iterator@V?$_List_val@U?$_List_simple_types@U?$pair@$$CBGV?$shared_ptr@VCPlayerObjectAttachAddon@@@std@@@std@@@std@@@std@@@std@@@std@@@std@@QAEXXZ 100f2740 f i CPlayerData.obj
 0002:0007b830       ?_Tidy@?$_Hash_vec@V?$allocator@V?$_List_unchecked_iterator@V?$_List_val@U?$_List_simple_types@U?$pair@$$CBGVCVector@@@std@@@std@@@std@@@std@@@std@@@std@@QAEXXZ 100f2830 f i CPlayerData.obj
 0002:0007b920       ?_Tidy@?$list@GV?$allocator@G@std@@@std@@AAEXXZ 100f2920 f i CPlayerData.obj
 0002:0007b9c0       ?_Tidy@?$list@U?$pair@$$CBGV?$basic_string@DU?$char_traits@D@std@@V?$allocator@D@2@@std@@@std@@V?$allocator@U?$pair@$$CBGV?$basic_string@DU?$char_traits@D@std@@V?$allocator@D@2@@std@@@std@@@2@@std@@AAEXXZ 100f29c0 f i CPlayerData.obj
 0002:0007ba60       ?_Tidy@?$list@U?$pair@$$CBGV?$shared_ptr@VCPlayerObjectAttachAddon@@@std@@@std@@V?$allocator@U?$pair@$$CBGV?$shared_ptr@VCPlayerObjectAttachAddon@@@std@@@std@@@2@@std@@AAEXXZ 100f2a60 f i CPlayerData.obj
 0002:0007bb00       ?_Tidy@?$list@U?$pair@$$CBGVCVector@@@std@@V?$allocator@U?$pair@$$CBGVCVector@@@std@@@2@@std@@AAEXXZ 100f2b00 f i CPlayerData.obj
 0002:0007bba0       ?_Tidy@?$vector@URemovedBuilding@CPlayerData@@V?$allocator@URemovedBuilding@CPlayerData@@@std@@@std@@AAEXXZ 100f2ba0 f i CPlayerData.obj
 0002:0007bce0       ?_Umove@?$vector@URemovedBuilding@CPlayerData@@V?$allocator@URemovedBuilding@CPlayerData@@@std@@@std@@AAEPAURemovedBuilding@CPlayerData@@PAU34@00@Z 100f2ce0 f i CPlayerData.obj
